---
triple:          'arm64-apple-darwin'
binary-path:     '/Users/cloudtest/vss/_work/1/b/onnxruntime-osx-arm64-1.24.4/lib/libonnxruntime.1.24.4.dylib'
relocations:
  - { offset: 0x5D, size: 0x8, addend: 0x0, symName: __ZN4onnx7checkerL16experimental_opsE, symObjAddr: 0x2EE850, symBinAddr: 0x15798B8, symSize: 0x0 }
  - { offset: 0x2BA, size: 0x8, addend: 0x0, symName: __ZN4onnx7checker16check_value_infoERKNS_14ValueInfoProtoERKNS0_14CheckerContextE, symObjAddr: 0x0, symBinAddr: 0xC4A39C, symSize: 0x78C }
  - { offset: 0x17FA, size: 0x8, addend: 0x0, symName: __ZN4onnx7checker12check_tensorERKNS_11TensorProtoERKNS0_14CheckerContextE, symObjAddr: 0x172C, symBinAddr: 0xC4BAC8, symSize: 0xD78 }
  - { offset: 0x3B8E, size: 0x8, addend: 0x0, symName: __ZN4onnx7checker30resolve_external_data_locationERKNSt3__112basic_stringIcNS1_11char_traitsIcEENS1_9allocatorIcEEEES9_S9_, symObjAddr: 0x2B04, symBinAddr: 0xC4CEA0, symSize: 0x6D4 }
  - { offset: 0x5A22, size: 0x8, addend: 0x0, symName: __ZN4onnx7checker19check_sparse_tensorERKNS_17SparseTensorProtoERKNS0_14CheckerContextE, symObjAddr: 0x45AC, symBinAddr: 0xC4E46C, symSize: 0xB54 }
  - { offset: 0x7C27, size: 0x8, addend: 0x0, symName: __ZN4onnx7checker15check_attributeERKNS_14AttributeProtoERKNS0_14CheckerContextERKNS0_19LexicalScopeContextE, symObjAddr: 0x750C, symBinAddr: 0xC4FDF8, symSize: 0xF80 }
  - { offset: 0xB3D5, size: 0x8, addend: 0x0, symName: __ZN4onnx7checker11check_graphERKNS_10GraphProtoERKNS0_14CheckerContextERKNS0_19LexicalScopeContextE, symObjAddr: 0x8EFC, symBinAddr: 0xC517E8, symSize: 0x1040 }
  - { offset: 0xFD64, size: 0x8, addend: 0x0, symName: __ZN4onnx7checker10check_nodeERKNS_9NodeProtoERKNS0_14CheckerContextERKNS0_19LexicalScopeContextE, symObjAddr: 0x9FB4, symBinAddr: 0xC52828, symSize: 0x8F8 }
  - { offset: 0x12495, size: 0x8, addend: 0x0, symName: __ZN4onnx7checkerL33print_warning_if_has_experimentalERKNSt3__113unordered_setINS1_12basic_stringIcNS1_11char_traitsIcEENS1_9allocatorIcEEEENS1_4hashIS8_EENS1_8equal_toIS8_EENS6_IS8_EEEE, symObjAddr: 0xC160, symBinAddr: 0xC546E0, symSize: 0x39C }
  - { offset: 0x21E62, size: 0x8, addend: 0x0, symName: __ZN4onnx10MakeStringIJA8_cA11_cA7_cA5_cA27_cEEENSt3__112basic_stringIcNS6_11char_traitsIcEENS6_9allocatorIcEEEEDpRKT_, symObjAddr: 0x12DC, symBinAddr: 0xC4B678, symSize: 0x238 }
  - { offset: 0x226F5, size: 0x8, addend: 0x0, symName: __ZN4onnx10MakeStringIJA8_cA10_cA7_cA5_cA27_cEEENSt3__112basic_stringIcNS6_11char_traitsIcEENS6_9allocatorIcEEEEDpRKT_, symObjAddr: 0xC34, symBinAddr: 0xC4AFD0, symSize: 0x238 }
  - { offset: 0x22F88, size: 0x8, addend: 0x0, symName: __ZN4onnx10MakeStringIJA8_cA6_cA7_cA5_cA27_cEEENSt3__112basic_stringIcNS6_11char_traitsIcEENS6_9allocatorIcEEEEDpRKT_, symObjAddr: 0xE6C, symBinAddr: 0xC4B208, symSize: 0x238 }
  - { offset: 0x2381B, size: 0x8, addend: 0x0, symName: __ZN4onnx10MakeStringIJA8_cA5_cA7_cA11_cA31_cEEENSt3__112basic_stringIcNS6_11char_traitsIcEENS6_9allocatorIcEEEEDpRKT_, symObjAddr: 0x78C, symBinAddr: 0xC4AB28, symSize: 0x238 }
  - { offset: 0x240AE, size: 0x8, addend: 0x0, symName: __ZN4onnx10MakeStringIJA8_cA5_cA7_cA11_cA27_cEEENSt3__112basic_stringIcNS6_11char_traitsIcEENS6_9allocatorIcEEEEDpRKT_, symObjAddr: 0x9FC, symBinAddr: 0xC4AD98, symSize: 0x238 }
  - { offset: 0x24941, size: 0x8, addend: 0x0, symName: __ZN4onnx10MakeStringIJA8_cA9_cA7_cA5_cA27_cEEENSt3__112basic_stringIcNS6_11char_traitsIcEENS6_9allocatorIcEEEEDpRKT_, symObjAddr: 0x10A4, symBinAddr: 0xC4B440, symSize: 0x238 }
  - { offset: 0x251D4, size: 0x8, addend: 0x0, symName: __ZN4onnx10MakeStringIJA48_cNSt3__112basic_stringIcNS2_11char_traitsIcEENS2_9allocatorIcEEEEA4_cNS_9TypeProto9ValueCaseEEEES8_DpRKT_, symObjAddr: 0x1514, symBinAddr: 0xC4B8B0, symSize: 0x218 }
  - { offset: 0x262F5, size: 0x8, addend: 0x0, symName: __ZN4onnx10MakeStringIJA28_cNSt3__112basic_stringIcNS2_11char_traitsIcEENS2_9allocatorIcEEEEA52_cEEES8_DpRKT_, symObjAddr: 0x31D8, symBinAddr: 0xC4D574, symSize: 0x200 }
  - { offset: 0x269D1, size: 0x8, addend: 0x0, symName: __ZN4onnx10MakeStringIJA22_ciA30_cA12_cA15_cPKcA2_cEEENSt3__112basic_stringIcNS8_11char_traitsIcEENS8_9allocatorIcEEEEDpRKT_, symObjAddr: 0x3C48, symBinAddr: 0xC4DFE4, symSize: 0x270 }
  - { offset: 0x273CE, size: 0x8, addend: 0x0, symName: __ZN4onnx10MakeStringIJA22_ciA30_cA11_cA15_cPKcA2_cEEENSt3__112basic_stringIcNS8_11char_traitsIcEENS8_9allocatorIcEEEEDpRKT_, symObjAddr: 0x39D8, symBinAddr: 0xC4DD74, symSize: 0x270 }
  - { offset: 0x27DCB, size: 0x8, addend: 0x0, symName: __ZN4onnx10MakeStringIJA8_cA10_cA7_cS3_A27_cEEENSt3__112basic_stringIcNS5_11char_traitsIcEENS5_9allocatorIcEEEEDpRKT_, symObjAddr: 0x24A4, symBinAddr: 0xC4C840, symSize: 0x238 }
  - { offset: 0x2865E, size: 0x8, addend: 0x0, symName: __ZN4onnx10MakeStringIJA39_cNSt3__112basic_stringIcNS2_11char_traitsIcEENS2_9allocatorIcEEEEA30_cEEES8_DpRKT_, symObjAddr: 0x26DC, symBinAddr: 0xC4CA78, symSize: 0x200 }
  - { offset: 0x28D3A, size: 0x8, addend: 0x0, symName: __ZN4onnx10MakeStringIJA36_cNSt3__112basic_stringIcNS2_11char_traitsIcEENS2_9allocatorIcEEEEA55_cPKcEEES8_DpRKT_, symObjAddr: 0x28DC, symBinAddr: 0xC4CC78, symSize: 0x228 }
  - { offset: 0x294F8, size: 0x8, addend: 0x0, symName: __ZN4onnx10MakeStringIJA27_cNSt3__112basic_stringIcNS2_11char_traitsIcEENS2_9allocatorIcEEEEA47_cEEES8_DpRKT_, symObjAddr: 0x35D8, symBinAddr: 0xC4D974, symSize: 0x200 }
  - { offset: 0x29BD4, size: 0x8, addend: 0x0, symName: __ZN4onnx10MakeStringIJA27_cNSt3__112basic_stringIcNS2_11char_traitsIcEENS2_9allocatorIcEEEEA34_cEEES8_DpRKT_, symObjAddr: 0x33D8, symBinAddr: 0xC4D774, symSize: 0x200 }
  - { offset: 0x2A2B0, size: 0x8, addend: 0x0, symName: __ZN4onnx10MakeStringIJA27_cNSt3__112basic_stringIcNS2_11char_traitsIcEENS2_9allocatorIcEEEEA41_cEEES8_DpRKT_, symObjAddr: 0x37D8, symBinAddr: 0xC4DB74, symSize: 0x200 }
  - { offset: 0x2A98C, size: 0x8, addend: 0x0, symName: __ZN4onnx10MakeStringIJA38_cNSt3__112basic_stringIcNS2_11char_traitsIcEENS2_9allocatorIcEEEEA4_ciEEES8_DpRKT_, symObjAddr: 0x3EB8, symBinAddr: 0xC4E254, symSize: 0x218 }
  - { offset: 0x2B495, size: 0x8, addend: 0x0, symName: __ZN4onnx10MakeStringIJA36_cNSt3__112basic_stringIcNS2_11char_traitsIcEENS2_9allocatorIcEEEEA23_cS8_A45_cEEES8_DpRKT_, symObjAddr: 0x103A0, symBinAddr: 0xC554B4, symSize: 0x248 }
  - { offset: 0x2BD30, size: 0x8, addend: 0x0, symName: __ZN4onnx10MakeStringIJA36_cNSt3__112basic_stringIcNS2_11char_traitsIcEENS2_9allocatorIcEEEEA23_cS8_A30_cEEES8_DpRKT_, symObjAddr: 0x105E8, symBinAddr: 0xC556FC, symSize: 0x248 }
  - { offset: 0x2C5CB, size: 0x8, addend: 0x0, symName: __ZN4onnx10MakeStringIJA49_cNSt3__112basic_stringIcNS2_11char_traitsIcEENS2_9allocatorIcEEEEA23_cEEES8_DpRKT_, symObjAddr: 0xFCE4, symBinAddr: 0xC54DF8, symSize: 0x200 }
  - { offset: 0x2CCA7, size: 0x8, addend: 0x0, symName: __ZN4onnx10MakeStringIJA49_cNSt3__112basic_stringIcNS2_11char_traitsIcEENS2_9allocatorIcEEEEA58_cS8_EEES8_DpRKT_, symObjAddr: 0xFEE4, symBinAddr: 0xC54FF8, symSize: 0x22C }
  - { offset: 0x2D461, size: 0x8, addend: 0x0, symName: __ZN4onnx10MakeStringIJA36_cNSt3__112basic_stringIcNS2_11char_traitsIcEENS2_9allocatorIcEEEEA29_cS8_A12_cS8_A31_cEEES8_DpRKT_, symObjAddr: 0x10110, symBinAddr: 0xC55224, symSize: 0x290 }
  - { offset: 0x2E865, size: 0x8, addend: 0x0, symName: __ZN4onnx10MakeStringIJA16_cNSt3__112basic_stringIcNS2_11char_traitsIcEENS2_9allocatorIcEEEEA23_cEEES8_DpRKT_, symObjAddr: 0x730C, symBinAddr: 0xC4FBF8, symSize: 0x200 }
  - { offset: 0x2EF5F, size: 0x8, addend: 0x0, symName: __ZN4onnx10MakeStringIJA16_cNSt3__112basic_stringIcNS2_11char_traitsIcEENS2_9allocatorIcEEEEA28_cmA2_ciS1_EEES8_DpRKT_, symObjAddr: 0x119BC, symBinAddr: 0xC564A4, symSize: 0x268 }
  - { offset: 0x2F8D7, size: 0x8, addend: 0x0, symName: __ZN4onnx10MakeStringIJA16_cNSt3__112basic_stringIcNS2_11char_traitsIcEENS2_9allocatorIcEEEEA31_cEEES8_DpRKT_, symObjAddr: 0x6D0C, symBinAddr: 0xC4F5F8, symSize: 0x200 }
  - { offset: 0x2FFB3, size: 0x8, addend: 0x0, symName: __ZN4onnx10MakeStringIJA16_cNSt3__112basic_stringIcNS2_11char_traitsIcEENS2_9allocatorIcEEEEA28_cmA23_cEEES8_DpRKT_, symObjAddr: 0x10D5C, symBinAddr: 0xC55E70, symSize: 0x234 }
  - { offset: 0x307CF, size: 0x8, addend: 0x0, symName: __ZN4onnx10MakeStringIJA16_cNSt3__112basic_stringIcNS2_11char_traitsIcEENS2_9allocatorIcEEEEA28_cmA20_cxA2_cEEES8_DpRKT_, symObjAddr: 0x10AF4, symBinAddr: 0xC55C08, symSize: 0x268 }
  - { offset: 0x31147, size: 0x8, addend: 0x0, symName: __ZN4onnx10MakeStringIJA8_cA7_cS2_A20_cA27_cEEENSt3__112basic_stringIcNS5_11char_traitsIcEENS5_9allocatorIcEEEEDpRKT_, symObjAddr: 0x66D4, symBinAddr: 0xC4EFC0, symSize: 0x238 }
  - { offset: 0x319DA, size: 0x8, addend: 0x0, symName: __ZN4onnx10MakeStringIJA23_cNSt3__112basic_stringIcNS2_11char_traitsIcEENS2_9allocatorIcEEEEA20_cEEES8_DpRKT_, symObjAddr: 0x690C, symBinAddr: 0xC4F1F8, symSize: 0x200 }
  - { offset: 0x320B6, size: 0x8, addend: 0x0, symName: __ZN4onnx10MakeStringIJA16_cNSt3__112basic_stringIcNS2_11char_traitsIcEENS2_9allocatorIcEEEEA29_cEEES8_DpRKT_, symObjAddr: 0x6B0C, symBinAddr: 0xC4F3F8, symSize: 0x200 }
  - { offset: 0x32792, size: 0x8, addend: 0x0, symName: __ZN4onnx10MakeStringIJA24_cNSt3__112basic_stringIcNS2_11char_traitsIcEENS2_9allocatorIcEEEES1_EEES8_DpRKT_, symObjAddr: 0x6F0C, symBinAddr: 0xC4F7F8, symSize: 0x200 }
  - { offset: 0x32E6E, size: 0x8, addend: 0x0, symName: __ZN4onnx10MakeStringIJA24_cNSt3__112basic_stringIcNS2_11char_traitsIcEENS2_9allocatorIcEEEEA25_cEEES8_DpRKT_, symObjAddr: 0x710C, symBinAddr: 0xC4F9F8, symSize: 0x200 }
  - { offset: 0x3354A, size: 0x8, addend: 0x0, symName: __ZN4onnx10MakeStringIJA24_cNSt3__112basic_stringIcNS2_11char_traitsIcEENS2_9allocatorIcEEEEA43_cEEES8_DpRKT_, symObjAddr: 0x115BC, symBinAddr: 0xC560A4, symSize: 0x200 }
  - { offset: 0x33C26, size: 0x8, addend: 0x0, symName: __ZN4onnx10MakeStringIJA24_cNSt3__112basic_stringIcNS2_11char_traitsIcEENS2_9allocatorIcEEEEA7_cxA21_cmEEES8_DpRKT_, symObjAddr: 0x108A8, symBinAddr: 0xC559BC, symSize: 0x24C }
  - { offset: 0x344AF, size: 0x8, addend: 0x0, symName: __ZN4onnx10MakeStringIJA24_cNSt3__112basic_stringIcNS2_11char_traitsIcEENS2_9allocatorIcEEEEA55_cEEES8_DpRKT_, symObjAddr: 0x117BC, symBinAddr: 0xC562A4, symSize: 0x200 }
  - { offset: 0x34B8B, size: 0x8, addend: 0x0, symName: __ZN4onnx10MakeStringIJA16_cNSt3__112basic_stringIcNS2_11char_traitsIcEENS2_9allocatorIcEEEEA28_cmA37_cEEES8_DpRKT_, symObjAddr: 0x11C24, symBinAddr: 0xC5670C, symSize: 0x234 }
  - { offset: 0x35A3F, size: 0x8, addend: 0x0, symName: __ZN4onnx10MakeStringIJA8_cA5_cA7_cS2_A31_cEEENSt3__112basic_stringIcNS5_11char_traitsIcEENS5_9allocatorIcEEEEDpRKT_, symObjAddr: 0x848C, symBinAddr: 0xC50D78, symSize: 0x238 }
  - { offset: 0x362D2, size: 0x8, addend: 0x0, symName: __ZN4onnx10MakeStringIJA8_cA5_cA7_cS2_A27_cEEENSt3__112basic_stringIcNS5_11char_traitsIcEENS5_9allocatorIcEEEEDpRKT_, symObjAddr: 0x86C4, symBinAddr: 0xC50FB0, symSize: 0x238 }
  - { offset: 0x36B65, size: 0x8, addend: 0x0, symName: __ZN4onnx10MakeStringIJA18_cNSt3__112basic_stringIcNS2_11char_traitsIcEENS2_9allocatorIcEEEEA48_cEEES8_DpRKT_, symObjAddr: 0x8AFC, symBinAddr: 0xC513E8, symSize: 0x200 }
  - { offset: 0x37241, size: 0x8, addend: 0x0, symName: __ZN4onnx10MakeStringIJA49_cNSt3__112basic_stringIcNS2_11char_traitsIcEENS2_9allocatorIcEEEEA2_cEEES8_DpRKT_, symObjAddr: 0x88FC, symBinAddr: 0xC511E8, symSize: 0x200 }
  - { offset: 0x3791D, size: 0x8, addend: 0x0, symName: __ZN4onnx10MakeStringIJA18_cNSt3__112basic_stringIcNS2_11char_traitsIcEENS2_9allocatorIcEEEEA44_cEEES8_DpRKT_, symObjAddr: 0x8CFC, symBinAddr: 0xC515E8, symSize: 0x200 }
  - { offset: 0x3845A, size: 0x8, addend: 0x0, symName: __ZN4onnx10MakeStringIJA64_cNSt3__112basic_stringIcNS2_11char_traitsIcEENS2_9allocatorIcEEEEA48_cEEES8_DpRKT_, symObjAddr: 0xBD60, symBinAddr: 0xC542E0, symSize: 0x200 }
  - { offset: 0x38B36, size: 0x8, addend: 0x0, symName: __ZN4onnx10MakeStringIJA63_cNSt3__112basic_stringIcNS2_11char_traitsIcEENS2_9allocatorIcEEEEA13_cA7_cS8_A10_cS8_A39_cEEES8_DpRKT_, symObjAddr: 0xB880, symBinAddr: 0xC53E10, symSize: 0x1F8 }
  - { offset: 0x390A5, size: 0x8, addend: 0x0, symName: __ZN4onnx10MakeStringIJA64_cNSt3__112basic_stringIcNS2_11char_traitsIcEENS2_9allocatorIcEEEEA53_cEEES8_DpRKT_, symObjAddr: 0xB2B4, symBinAddr: 0xC539D8, symSize: 0x200 }
  - { offset: 0x398FA, size: 0x8, addend: 0x0, symName: __ZN4onnx10MakeStringIJA8_cA5_cA7_cS3_A27_cEEENSt3__112basic_stringIcNS5_11char_traitsIcEENS5_9allocatorIcEEEEDpRKT_, symObjAddr: 0xB648, symBinAddr: 0xC53BD8, symSize: 0x238 }
  - { offset: 0x3A18D, size: 0x8, addend: 0x0, symName: __ZN4onnx10MakeStringIJA15_cNSt3__112basic_stringIcNS2_11char_traitsIcEENS2_9allocatorIcEEEEA41_cEEES8_DpRKT_, symObjAddr: 0xBF60, symBinAddr: 0xC544E0, symSize: 0x200 }
  - { offset: 0x3A869, size: 0x8, addend: 0x0, symName: __ZN4onnx10MakeStringIJA8_cA5_cA7_cA6_cA31_cEEENSt3__112basic_stringIcNS6_11char_traitsIcEENS6_9allocatorIcEEEEDpRKT_, symObjAddr: 0xB07C, symBinAddr: 0xC537A0, symSize: 0x238 }
  - { offset: 0x3B0FC, size: 0x8, addend: 0x0, symName: __ZN4onnx10MakeStringIJA12_cNSt3__112basic_stringIcNS2_11char_traitsIcEENS2_9allocatorIcEEEEA27_cEEES8_DpRKT_, symObjAddr: 0xAD88, symBinAddr: 0xC535A0, symSize: 0x200 }
  - { offset: 0x3B7D8, size: 0x8, addend: 0x0, symName: __ZN4onnx10MakeStringIJA8_cS1_A7_cA5_cA31_cEEENSt3__112basic_stringIcNS5_11char_traitsIcEENS5_9allocatorIcEEEEDpRKT_, symObjAddr: 0xA8AC, symBinAddr: 0xC53120, symSize: 0x238 }
  - { offset: 0x3C06B, size: 0x8, addend: 0x0, symName: __ZN4onnx10MakeStringIJA18_cNSt3__112basic_stringIcNS2_11char_traitsIcEENS2_9allocatorIcEEEEA9_cS8_A34_cEEES8_DpRKT_, symObjAddr: 0xAAE4, symBinAddr: 0xC53358, symSize: 0x248 }
  - { offset: 0x3CEBC, size: 0x8, addend: 0x0, symName: __ZN4onnx18MakeStringInternalIA63_cJNSt3__112basic_stringIcNS2_11char_traitsIcEENS2_9allocatorIcEEEEA13_cA7_cS8_A10_cS8_A39_cEEEvRNS2_18basic_stringstreamIcS5_S7_EERKT_DpRKT0_, symObjAddr: 0x1474C, symBinAddr: 0xC56BBC, symSize: 0x130 }
  - { offset: 0x3D5BB, size: 0x8, addend: 0x0, symName: __ZN4onnx10MakeStringIJPKcA16_cNSt3__112basic_stringIcNS4_11char_traitsIcEENS4_9allocatorIcEEEEEEESA_DpRKT_, symObjAddr: 0x11ED0, symBinAddr: 0xC569B8, symSize: 0x204 }
  - { offset: 0x3F9C6, size: 0x8, addend: 0x0, symName: __ZN4onnx17LoadProtoFromPathINS_10ModelProtoEEEvRKNSt3__112basic_stringIcNS2_11char_traitsIcEENS2_9allocatorIcEEEERT_, symObjAddr: 0xF174, symBinAddr: 0xC54A7C, symSize: 0x37C }
  - { offset: 0x408B9, size: 0x8, addend: 0x0, symName: __ZN4onnx19ParseProtoFromBytesINS_10ModelProtoEEEbPT_PKcm, symObjAddr: 0x14BAC, symBinAddr: 0xC56EEC, symSize: 0xDC }
  - { offset: 0x40987, size: 0x8, addend: 0x0, symName: __ZN4onnx10MakeStringIJA28_cNSt3__112basic_stringIcNS2_11char_traitsIcEENS2_9allocatorIcEEEEA40_cEEES8_DpRKT_, symObjAddr: 0x149AC, symBinAddr: 0xC56CEC, symSize: 0x200 }
  - { offset: 0x41063, size: 0x8, addend: 0x0, symName: __ZN4onnx10MakeStringIJA34_cNSt3__112basic_stringIcNS2_11char_traitsIcEENS2_9allocatorIcEEEEA57_cEEES8_DpRKT_, symObjAddr: 0x14C88, symBinAddr: 0xC56FC8, symSize: 0x200 }
  - { offset: 0x75543, size: 0x8, addend: 0x0, symName: __ZN4onnx10MakeStringIJA8_cA5_cA7_cS3_A27_cEEENSt3__112basic_stringIcNS5_11char_traitsIcEENS5_9allocatorIcEEEEDpRKT_, symObjAddr: 0xB648, symBinAddr: 0xC53BD8, symSize: 0x238 }
  - { offset: 0x8F59F, size: 0x8, addend: 0x0, symName: __ZN4onnx7checker15ValidationErrorD1Ev, symObjAddr: 0x9C4, symBinAddr: 0xC4AD60, symSize: 0x38 }
  - { offset: 0x8F5C3, size: 0x8, addend: 0x0, symName: __ZN4onnx7checker15ValidationErrorD1Ev, symObjAddr: 0x9C4, symBinAddr: 0xC4AD60, symSize: 0x38 }
  - { offset: 0x8F60B, size: 0x8, addend: 0x0, symName: __ZN4onnx7checker15ValidationErrorD1Ev, symObjAddr: 0x9C4, symBinAddr: 0xC4AD60, symSize: 0x38 }
  - { offset: 0x93231, size: 0x8, addend: 0x0, symName: '__ZZN4onnx7checker11check_graphERKNS_10GraphProtoERKNS0_14CheckerContextERKNS0_19LexicalScopeContextEENK3$_0clEv', symObjAddr: 0xBA78, symBinAddr: 0xC54008, symSize: 0x2D8 }
  - { offset: 0x949A4, size: 0x8, addend: 0x0, symName: __ZN4onnx7checker15ValidationErrorC1ERKS1_, symObjAddr: 0x11E58, symBinAddr: 0xC56940, symSize: 0x78 }
  - { offset: 0x9574D, size: 0x8, addend: 0x0, symName: __ZNSt3__113basic_fstreamIcNS_11char_traitsIcEEEC1EPKcj, symObjAddr: 0x14EEC, symBinAddr: 0xC571C8, symSize: 0x110 }
  - { offset: 0x9586C, size: 0x8, addend: 0x0, symName: __ZNSt3__112basic_stringIcNS_11char_traitsIcEENS_9allocatorIcEEE20__init_with_sentinelB8ne190102INS_19istreambuf_iteratorIcS2_EES8_EEvT_T0_, symObjAddr: 0x151F0, symBinAddr: 0xC572D8, symSize: 0x14C }
  - { offset: 0x95B3B, size: 0x8, addend: 0x0, symName: __ZN4onnx7checker15ValidationErrorD0Ev, symObjAddr: 0x10830, symBinAddr: 0xC55944, symSize: 0x48 }
  - { offset: 0x95CA7, size: 0x8, addend: 0x0, symName: __ZNK4onnx7checker15ValidationError4whatEv, symObjAddr: 0x10878, symBinAddr: 0xC5598C, symSize: 0x30 }
  - { offset: 0x988D7, size: 0x8, addend: 0x0, symName: __GLOBAL__sub_I_checker.cc, symObjAddr: 0x16C10, symBinAddr: 0xC57424, symSize: 0x4EC }
  - { offset: 0x9B847, size: 0x8, addend: 0x0, symName: __ZN4onnx4barfEPKcz, symObjAddr: 0x0, symBinAddr: 0xC57910, symSize: 0x100 }
  - { offset: 0x9E28A, size: 0x8, addend: 0x0, symName: __ZN4onnx4barfEPKcz, symObjAddr: 0x0, symBinAddr: 0xC57910, symSize: 0x100 }
  - { offset: 0x9E55A, size: 0x8, addend: 0x0, symName: __ZN4onnx18throw_assert_errorERNSt3__112basic_stringIcNS0_11char_traitsIcEENS0_9allocatorIcEEEE, symObjAddr: 0x100, symBinAddr: 0xC57A10, symSize: 0x50 }
  - { offset: 0x9E7C4, size: 0x8, addend: 0x0, symName: __ZN4onnx12assert_errorC1ERKNSt3__112basic_stringIcNS1_11char_traitsIcEENS1_9allocatorIcEEEE, symObjAddr: 0x150, symBinAddr: 0xC57A60, symSize: 0x20 }
  - { offset: 0x9E867, size: 0x8, addend: 0x0, symName: __ZN4onnx12assert_errorD1Ev, symObjAddr: 0x170, symBinAddr: 0xC57A80, symSize: 0x4 }
  - { offset: 0x9E889, size: 0x8, addend: 0x0, symName: __ZN4onnx12assert_errorD1Ev, symObjAddr: 0x170, symBinAddr: 0xC57A80, symSize: 0x4 }
  - { offset: 0x9E920, size: 0x8, addend: 0x0, symName: __ZN4onnx12assert_errorD0Ev, symObjAddr: 0x270, symBinAddr: 0xC57A84, symSize: 0x14 }
  - { offset: 0xA0890, size: 0x8, addend: 0x0, symName: __ZN4onnx6Common6StatusC2ENS0_14StatusCategoryENS0_10StatusCodeERKNSt3__112basic_stringIcNS4_11char_traitsIcEENS4_9allocatorIcEEEE, symObjAddr: 0x0, symBinAddr: 0xC57A98, symSize: 0x120 }
  - { offset: 0xA557C, size: 0x8, addend: 0x0, symName: __ZN4onnx6Common6Status2OKEv, symObjAddr: 0x5A0, symBinAddr: 0xC57C50, symSize: 0x38 }
  - { offset: 0xA559E, size: 0x8, addend: 0x0, symName: __MergedGlobals, symObjAddr: 0x267F0, symBinAddr: 0x15798E0, symSize: 0x0 }
  - { offset: 0xA5D3B, size: 0x8, addend: 0x0, symName: __ZN4onnx6Common6StatusC2ENS0_14StatusCategoryENS0_10StatusCodeERKNSt3__112basic_stringIcNS4_11char_traitsIcEENS4_9allocatorIcEEEE, symObjAddr: 0x0, symBinAddr: 0xC57A98, symSize: 0x120 }
  - { offset: 0xA636D, size: 0x8, addend: 0x0, symName: __ZN4onnx6Common6StatusC1ENS0_14StatusCategoryENS0_10StatusCodeERKNSt3__112basic_stringIcNS4_11char_traitsIcEENS4_9allocatorIcEEEE, symObjAddr: 0x164, symBinAddr: 0xC57BB8, symSize: 0x4 }
  - { offset: 0xA63A5, size: 0x8, addend: 0x0, symName: __ZN4onnx6Common6StatusC1ENS0_14StatusCategoryENS0_10StatusCodeERKNSt3__112basic_stringIcNS4_11char_traitsIcEENS4_9allocatorIcEEEE, symObjAddr: 0x164, symBinAddr: 0xC57BB8, symSize: 0x4 }
  - { offset: 0xA6439, size: 0x8, addend: 0x0, symName: __ZNK4onnx6Common6Status4IsOKEv, symObjAddr: 0x250, symBinAddr: 0xC57BBC, symSize: 0x10 }
  - { offset: 0xA645D, size: 0x8, addend: 0x0, symName: __ZNK4onnx6Common6Status4IsOKEv, symObjAddr: 0x250, symBinAddr: 0xC57BBC, symSize: 0x10 }
  - { offset: 0xA647E, size: 0x8, addend: 0x0, symName: __ZNK4onnx6Common6Status4IsOKEv, symObjAddr: 0x250, symBinAddr: 0xC57BBC, symSize: 0x10 }
  - { offset: 0xA64B7, size: 0x8, addend: 0x0, symName: __ZNK4onnx6Common6Status12ErrorMessageEv, symObjAddr: 0x290, symBinAddr: 0xC57BCC, symSize: 0x84 }
  - { offset: 0xA655B, size: 0x8, addend: 0x0, symName: __ZNK4onnx6Common6Status12ErrorMessageEv.cold.1, symObjAddr: 0x7FC, symBinAddr: 0x1168EA8, symSize: 0x58 }
  - { offset: 0xA65D8, size: 0x8, addend: 0x0, symName: __ZN4onnx6Common6Status2OKEv.cold.1, symObjAddr: 0x854, symBinAddr: 0x1168F00, symSize: 0x50 }
  - { offset: 0xA671E, size: 0x8, addend: 0x0, symName: _OUTLINED_FUNCTION_1, symObjAddr: 0x8AC, symBinAddr: 0xC57C88, symSize: 0x8 }
  - { offset: 0xC010E, size: 0x8, addend: 0x0, symName: __ZN4onnx13MakeAttributeENSt3__112basic_stringIcNS0_11char_traitsIcEENS0_9allocatorIcEEEEf, symObjAddr: 0x0, symBinAddr: 0xC57C90, symSize: 0x94 }
  - { offset: 0xC0283, size: 0x8, addend: 0x0, symName: __ZN4onnx13MakeAttributeENSt3__112basic_stringIcNS0_11char_traitsIcEENS0_9allocatorIcEEEEx, symObjAddr: 0x94, symBinAddr: 0xC57D24, symSize: 0x98 }
  - { offset: 0xC03F6, size: 0x8, addend: 0x0, symName: __ZN4onnx13MakeAttributeENSt3__112basic_stringIcNS0_11char_traitsIcEENS0_9allocatorIcEEEENS_11TensorProtoE, symObjAddr: 0x1E0, symBinAddr: 0xC57DBC, symSize: 0x124 }
  - { offset: 0xC073D, size: 0x8, addend: 0x0, symName: __ZN4onnx13MakeAttributeENSt3__112basic_stringIcNS0_11char_traitsIcEENS0_9allocatorIcEEEENS_10GraphProtoE, symObjAddr: 0x304, symBinAddr: 0xC57EE0, symSize: 0x124 }
  - { offset: 0xC0A84, size: 0x8, addend: 0x0, symName: __ZN4onnx13MakeAttributeENSt3__112basic_stringIcNS0_11char_traitsIcEENS0_9allocatorIcEEEENS0_6vectorIxNS4_IxEEEE, symObjAddr: 0x658, symBinAddr: 0xC58004, symSize: 0x10C }
  - { offset: 0xC0CC0, size: 0x8, addend: 0x0, symName: __ZN4onnx16MakeRefAttributeERKNSt3__112basic_stringIcNS0_11char_traitsIcEENS0_9allocatorIcEEEENS_28AttributeProto_AttributeTypeE, symObjAddr: 0xCE4, symBinAddr: 0xC58110, symSize: 0xB8 }
  - { offset: 0xCEC23, size: 0x8, addend: 0x0, symName: __ZN4onnx11GetOpSchemaINS_13If_Onnx_ver25EEENS_8OpSchemaEv, symObjAddr: 0x0, symBinAddr: 0xC581C8, symSize: 0x3F8 }
  - { offset: 0xCFFB0, size: 0x8, addend: 0x0, symName: __ZN4onnxL23control_flow_types_ir13Ev, symObjAddr: 0x580, symBinAddr: 0xC585C0, symSize: 0x1D8 }
  - { offset: 0xD0843, size: 0x8, addend: 0x0, symName: __ZN4onnx11GetOpSchemaINS_15Loop_Onnx_ver25EEENS_8OpSchemaEv, symObjAddr: 0x7C8, symBinAddr: 0xC58798, symSize: 0x46C }
  - { offset: 0xD1BC5, size: 0x8, addend: 0x0, symName: __ZN4onnx11GetOpSchemaINS_15Scan_Onnx_ver25EEENS_8OpSchemaEv, symObjAddr: 0xC34, symBinAddr: 0xC58C04, symSize: 0x450 }
  - { offset: 0x1142FB, size: 0x8, addend: 0x0, symName: __ZN4onnx11GetOpSchemaINS_13If_Onnx_ver24EEENS_8OpSchemaEv, symObjAddr: 0x0, symBinAddr: 0xC59054, symSize: 0x3F8 }
  - { offset: 0x115688, size: 0x8, addend: 0x0, symName: __ZN4onnxL23control_flow_types_ir12Ev, symObjAddr: 0x580, symBinAddr: 0xC5944C, symSize: 0x1D8 }
  - { offset: 0x115F1B, size: 0x8, addend: 0x0, symName: __ZN4onnx11GetOpSchemaINS_13If_Onnx_ver23EEENS_8OpSchemaEv, symObjAddr: 0x7C8, symBinAddr: 0xC59624, symSize: 0x3F8 }
  - { offset: 0x1172A8, size: 0x8, addend: 0x0, symName: __ZN4onnxL23control_flow_types_ir11Ev, symObjAddr: 0xBC0, symBinAddr: 0xC59A1C, symSize: 0x1D8 }
  - { offset: 0x117B3B, size: 0x8, addend: 0x0, symName: __ZN4onnx11GetOpSchemaINS_13If_Onnx_ver21EEENS_8OpSchemaEv, symObjAddr: 0xD98, symBinAddr: 0xC59BF4, symSize: 0x3F8 }
  - { offset: 0x118EC8, size: 0x8, addend: 0x0, symName: __ZN4onnxL23control_flow_types_ir10Ev, symObjAddr: 0x1190, symBinAddr: 0xC59FEC, symSize: 0x1D8 }
  - { offset: 0x11975B, size: 0x8, addend: 0x0, symName: __ZN4onnx11GetOpSchemaINS_13If_Onnx_ver19EEENS_8OpSchemaEv, symObjAddr: 0x1368, symBinAddr: 0xC5A1C4, symSize: 0x3F4 }
  - { offset: 0x11AB08, size: 0x8, addend: 0x0, symName: __ZN4onnxL22control_flow_types_ir9Ev, symObjAddr: 0x175C, symBinAddr: 0xC5A5B8, symSize: 0x1D8 }
  - { offset: 0x11B39B, size: 0x8, addend: 0x0, symName: __ZN4onnx11GetOpSchemaINS_13If_Onnx_ver16EEENS_8OpSchemaEv, symObjAddr: 0x1934, symBinAddr: 0xC5A790, symSize: 0x3F4 }
  - { offset: 0x11C748, size: 0x8, addend: 0x0, symName: __ZN4onnxL22control_flow_types_ir4Ev, symObjAddr: 0x1D28, symBinAddr: 0xC5AB84, symSize: 0x1D8 }
  - { offset: 0x11CFDB, size: 0x8, addend: 0x0, symName: __ZN4onnx11GetOpSchemaINS_15Loop_Onnx_ver24EEENS_8OpSchemaEv, symObjAddr: 0x1F00, symBinAddr: 0xC5AD5C, symSize: 0x46C }
  - { offset: 0x11E36C, size: 0x8, addend: 0x0, symName: __ZN4onnx11GetOpSchemaINS_15Loop_Onnx_ver23EEENS_8OpSchemaEv, symObjAddr: 0x236C, symBinAddr: 0xC5B1C8, symSize: 0x46C }
  - { offset: 0x11F6FD, size: 0x8, addend: 0x0, symName: __ZN4onnx11GetOpSchemaINS_15Loop_Onnx_ver21EEENS_8OpSchemaEv, symObjAddr: 0x27D8, symBinAddr: 0xC5B634, symSize: 0x46C }
  - { offset: 0x120A8E, size: 0x8, addend: 0x0, symName: __ZN4onnx11GetOpSchemaINS_15Loop_Onnx_ver19EEENS_8OpSchemaEv, symObjAddr: 0x2C44, symBinAddr: 0xC5BAA0, symSize: 0x468 }
  - { offset: 0x121E3F, size: 0x8, addend: 0x0, symName: __ZN4onnx11GetOpSchemaINS_15Loop_Onnx_ver16EEENS_8OpSchemaEv, symObjAddr: 0x30AC, symBinAddr: 0xC5BF08, symSize: 0x468 }
  - { offset: 0x1231F0, size: 0x8, addend: 0x0, symName: __ZN4onnx11GetOpSchemaINS_15Scan_Onnx_ver24EEENS_8OpSchemaEv, symObjAddr: 0x3514, symBinAddr: 0xC5C370, symSize: 0x450 }
  - { offset: 0x1245F2, size: 0x8, addend: 0x0, symName: __ZN4onnx11GetOpSchemaINS_15Scan_Onnx_ver23EEENS_8OpSchemaEv, symObjAddr: 0x3964, symBinAddr: 0xC5C7C0, symSize: 0x450 }
  - { offset: 0x1259F4, size: 0x8, addend: 0x0, symName: __ZN4onnx11GetOpSchemaINS_15Scan_Onnx_ver21EEENS_8OpSchemaEv, symObjAddr: 0x3DB4, symBinAddr: 0xC5CC10, symSize: 0x450 }
  - { offset: 0x126DF6, size: 0x8, addend: 0x0, symName: __ZN4onnx11GetOpSchemaINS_15Scan_Onnx_ver19EEENS_8OpSchemaEv, symObjAddr: 0x4204, symBinAddr: 0xC5D060, symSize: 0x450 }
  - { offset: 0x1281F8, size: 0x8, addend: 0x0, symName: __ZN4onnx11GetOpSchemaINS_15Scan_Onnx_ver16EEENS_8OpSchemaEv, symObjAddr: 0x4654, symBinAddr: 0xC5D4B0, symSize: 0x450 }
  - { offset: 0x129696, size: 0x8, addend: 0x0, symName: __ZN4onnx27ScanInferenceFunctionOpset8ERNS_16InferenceContextE, symObjAddr: 0x4AA4, symBinAddr: 0xC5D900, symSize: 0xE64 }
  - { offset: 0x12D57B, size: 0x8, addend: 0x0, symName: __ZN4onnx25RemoveDimensionsFromShapeERKNS_9TypeProtoEi, symObjAddr: 0x5C4C, symBinAddr: 0xC5EA70, symSize: 0x1DC }
  - { offset: 0x12DDCE, size: 0x8, addend: 0x0, symName: __ZN4onnx10MakeStringIJA22_cA12_cmA19_cEEENSt3__112basic_stringIcNS4_11char_traitsIcEENS4_9allocatorIcEEEEDpRKT_, symObjAddr: 0x5A04, symBinAddr: 0xC5E860, symSize: 0x210 }
  - { offset: 0x12E505, size: 0x8, addend: 0x0, symName: __ZN4onnx10MakeStringIJA22_cA63_cmA9_cEEENSt3__112basic_stringIcNS4_11char_traitsIcEENS4_9allocatorIcEEEEDpRKT_, symObjAddr: 0x6234, symBinAddr: 0xC5EE6C, symSize: 0x210 }
  - { offset: 0x12EC3C, size: 0x8, addend: 0x0, symName: __ZN4onnx10MakeStringIJA22_cA59_cmA20_cmEEENSt3__112basic_stringIcNS4_11char_traitsIcEENS4_9allocatorIcEEEEDpRKT_, symObjAddr: 0x6014, symBinAddr: 0xC5EC4C, symSize: 0x220 }
  - { offset: 0x12FE43, size: 0x8, addend: 0x0, symName: __ZN4onnx11GetOpSchemaINS_14Scan_Onnx_ver8EEENS_8OpSchemaEv, symObjAddr: 0x649C, symBinAddr: 0xC5F07C, symSize: 0x448 }
  - { offset: 0x1311C9, size: 0x8, addend: 0x0, symName: __ZN4onnx11GetOpSchemaINS_14Loop_Onnx_ver1EEENS_8OpSchemaEv, symObjAddr: 0x68E4, symBinAddr: 0xC5F4C4, symSize: 0x464 }
  - { offset: 0x132542, size: 0x8, addend: 0x0, symName: __ZN4onnxL27LoopInferenceFunctionOpset8ERNS_16InferenceContextE, symObjAddr: 0x6D48, symBinAddr: 0xC5F928, symSize: 0xB28 }
  - { offset: 0x1354E8, size: 0x8, addend: 0x0, symName: __ZN4onnx10MakeStringIJA22_cA63_cmA6_cNS_9TypeProto9ValueCaseEEEENSt3__112basic_stringIcNS6_11char_traitsIcEENS6_9allocatorIcEEEEDpRKT_, symObjAddr: 0x12488, symBinAddr: 0xC65D34, symSize: 0x220 }
  - { offset: 0x135C85, size: 0x8, addend: 0x0, symName: __ZN4onnx11GetOpSchemaINS_15Loop_Onnx_ver11EEENS_8OpSchemaEv, symObjAddr: 0x7870, symBinAddr: 0xC60450, symSize: 0x464 }
  - { offset: 0x136FFE, size: 0x8, addend: 0x0, symName: __ZN4onnxL28LoopInferenceFunctionOpset11ERNS_16InferenceContextE, symObjAddr: 0x7CD4, symBinAddr: 0xC608B4, symSize: 0xB28 }
  - { offset: 0x139F8D, size: 0x8, addend: 0x0, symName: __ZN4onnx11GetOpSchemaINS_14Scan_Onnx_ver9EEENS_8OpSchemaEv, symObjAddr: 0x87FC, symBinAddr: 0xC613DC, symSize: 0x430 }
  - { offset: 0x13B371, size: 0x8, addend: 0x0, symName: __ZN4onnxL27ScanInferenceFunctionOpset9ERNS_16InferenceContextE, symObjAddr: 0x8C2C, symBinAddr: 0xC6180C, symSize: 0x11A4 }
  - { offset: 0x1404B6, size: 0x8, addend: 0x0, symName: __ZN4onnx10MakeStringIJA23_cA38_cmA42_cmA3_cEEENSt3__112basic_stringIcNS5_11char_traitsIcEENS5_9allocatorIcEEEEDpRKT_, symObjAddr: 0x1283C, symBinAddr: 0xC65F54, symSize: 0x244 }
  - { offset: 0x140D3B, size: 0x8, addend: 0x0, symName: __ZN4onnx10MakeStringIJA23_cA39_cmA43_cmA3_cEEENSt3__112basic_stringIcNS5_11char_traitsIcEENS5_9allocatorIcEEEEDpRKT_, symObjAddr: 0x12DDC, symBinAddr: 0xC66198, symSize: 0x244 }
  - { offset: 0x1415C1, size: 0x8, addend: 0x0, symName: __ZN4onnxL36handle_negative_axis_validate_opset9ERKNSt3__112basic_stringIcNS0_11char_traitsIcEENS0_9allocatorIcEEEEii, symObjAddr: 0x13020, symBinAddr: 0xC663DC, symSize: 0x12C }
  - { offset: 0x14183D, size: 0x8, addend: 0x0, symName: __ZN4onnx27RemoveIthDimensionFromShapeERKNS_9TypeProtoEi, symObjAddr: 0x1314C, symBinAddr: 0xC66508, symSize: 0x1F0 }
  - { offset: 0x141D65, size: 0x8, addend: 0x0, symName: __ZN4onnx11GetOpSchemaINS_12If_Onnx_ver1EEENS_8OpSchemaEv, symObjAddr: 0x9DD0, symBinAddr: 0xC629B0, symSize: 0x3F0 }
  - { offset: 0x1430D6, size: 0x8, addend: 0x0, symName: __ZN4onnxL20IfInferenceFunction1ERNS_16InferenceContextE, symObjAddr: 0xA1C0, symBinAddr: 0xC62DA0, symSize: 0x5FC }
  - { offset: 0x144BF1, size: 0x8, addend: 0x0, symName: __ZN4onnx10MakeStringIJA22_cA28_cmA7_cNS_9TypeProto9ValueCaseES3_S5_EEENSt3__112basic_stringIcNS6_11char_traitsIcEENS6_9allocatorIcEEEEDpRKT_, symObjAddr: 0x139DC, symBinAddr: 0xC66D84, symSize: 0x254 }
  - { offset: 0x1454EA, size: 0x8, addend: 0x0, symName: __ZN4onnx10MakeStringIJA22_cA43_cmA7_ciS3_iEEENSt3__112basic_stringIcNS4_11char_traitsIcEENS4_9allocatorIcEEEEDpRKT_, symObjAddr: 0x13C30, symBinAddr: 0xC66FD8, symSize: 0x254 }
  - { offset: 0x145DE3, size: 0x8, addend: 0x0, symName: __ZN4onnx10MakeStringIJA22_cA66_cmA5_cmEEENSt3__112basic_stringIcNS4_11char_traitsIcEENS4_9allocatorIcEEEEDpRKT_, symObjAddr: 0x1359C, symBinAddr: 0xC66944, symSize: 0x220 }
  - { offset: 0x146580, size: 0x8, addend: 0x0, symName: __ZN4onnx10MakeStringIJA22_cA13_cmA24_cmEEENSt3__112basic_stringIcNS4_11char_traitsIcEENS4_9allocatorIcEEEEDpRKT_, symObjAddr: 0x137BC, symBinAddr: 0xC66B64, symSize: 0x220 }
  - { offset: 0x146D1D, size: 0x8, addend: 0x0, symName: __ZN4onnx11GetOpSchemaINS_13If_Onnx_ver11EEENS_8OpSchemaEv, symObjAddr: 0xA7BC, symBinAddr: 0xC6339C, symSize: 0x3F0 }
  - { offset: 0x14808E, size: 0x8, addend: 0x0, symName: __ZN4onnxL22IfInferenceFunction_11ERNS_16InferenceContextE, symObjAddr: 0xABAC, symBinAddr: 0xC6378C, symSize: 0x610 }
  - { offset: 0x149C03, size: 0x8, addend: 0x0, symName: __ZN4onnx11GetOpSchemaINS_13If_Onnx_ver13EEENS_8OpSchemaEv, symObjAddr: 0xB1BC, symBinAddr: 0xC63D9C, symSize: 0x4C0 }
  - { offset: 0x14B42D, size: 0x8, addend: 0x0, symName: __ZN4onnxL22IfInferenceFunction_13ERNS_16InferenceContextE, symObjAddr: 0xB67C, symBinAddr: 0xC6425C, symSize: 0x410 }
  - { offset: 0x14C97E, size: 0x8, addend: 0x0, symName: __ZN4onnx11GetOpSchemaINS_15Loop_Onnx_ver13EEENS_8OpSchemaEv, symObjAddr: 0xBA8C, symBinAddr: 0xC6466C, symSize: 0x558 }
  - { offset: 0x14E19E, size: 0x8, addend: 0x0, symName: __ZN4onnxL24LoopInferenceFunction_13ERNS_16InferenceContextE, symObjAddr: 0xBFE4, symBinAddr: 0xC64BC4, symSize: 0xC04 }
  - { offset: 0x151463, size: 0x8, addend: 0x0, symName: __ZN4onnx10MakeStringIJA22_cA68_cmA6_cNS_9TypeProto9ValueCaseEEEENSt3__112basic_stringIcNS6_11char_traitsIcEENS6_9allocatorIcEEEEDpRKT_, symObjAddr: 0x140A4, symBinAddr: 0xC6744C, symSize: 0x220 }
  - { offset: 0x151C00, size: 0x8, addend: 0x0, symName: __ZN4onnx10MakeStringIJA22_cA76_cmA6_cNS_9TypeProto9ValueCaseEEEENSt3__112basic_stringIcNS6_11char_traitsIcEENS6_9allocatorIcEEEEDpRKT_, symObjAddr: 0x13E84, symBinAddr: 0xC6722C, symSize: 0x220 }
  - { offset: 0x15239D, size: 0x8, addend: 0x0, symName: __ZN4onnx11GetOpSchemaINS_15Scan_Onnx_ver11EEENS_8OpSchemaEv, symObjAddr: 0xCBE8, symBinAddr: 0xC657C8, symSize: 0x430 }
  - { offset: 0x154B8E, size: 0x8, addend: 0x0, symName: __ZN4onnx10MakeStringIJA23_cNSt3__112basic_stringIcNS2_11char_traitsIcEENS2_9allocatorIcEEEEA13_ciA34_ciEEES8_DpRKT_, symObjAddr: 0x13350, symBinAddr: 0xC666F8, symSize: 0x24C }
  - { offset: 0x183EF2, size: 0x8, addend: 0x0, symName: __ZNSt3__16vectorIN4onnx9TypeProtoENS_9allocatorIS2_EEE7reserveEm, symObjAddr: 0x5908, symBinAddr: 0xC5E764, symSize: 0xFC }
  - { offset: 0x1842CB, size: 0x8, addend: 0x0, symName: __ZN4onnx10MakeStringIJA22_cA12_cmA19_cEEENSt3__112basic_stringIcNS4_11char_traitsIcEENS4_9allocatorIcEEEEDpRKT_, symObjAddr: 0x5A04, symBinAddr: 0xC5E860, symSize: 0x210 }
  - { offset: 0x1843B5, size: 0x8, addend: 0x0, symName: __ZNSt3__16vectorIN4onnx9TypeProtoENS_9allocatorIS2_EEE24__emplace_back_slow_pathIJS2_EEEPS2_DpOT_, symObjAddr: 0x120D0, symBinAddr: 0xC65BF8, symSize: 0x13C }
  - { offset: 0x184886, size: 0x8, addend: 0x0, symName: __ZN4onnx10MakeStringIJA22_cA63_cmA6_cNS_9TypeProto9ValueCaseEEEENSt3__112basic_stringIcNS6_11char_traitsIcEENS6_9allocatorIcEEEEDpRKT_, symObjAddr: 0x12488, symBinAddr: 0xC65D34, symSize: 0x220 }
  - { offset: 0x186171, size: 0x8, addend: 0x0, symName: __ZN4onnx10MakeStringIJA23_cA39_cmA43_cmA3_cEEENSt3__112basic_stringIcNS5_11char_traitsIcEENS5_9allocatorIcEEEEDpRKT_, symObjAddr: 0x12DDC, symBinAddr: 0xC66198, symSize: 0x244 }
  - { offset: 0x186193, size: 0x8, addend: 0x0, symName: __ZN4onnx10MakeStringIJA23_cNSt3__112basic_stringIcNS2_11char_traitsIcEENS2_9allocatorIcEEEEA13_ciA34_ciEEES8_DpRKT_, symObjAddr: 0x13350, symBinAddr: 0xC666F8, symSize: 0x24C }
  - { offset: 0x1AA1A1, size: 0x8, addend: 0x0, symName: __ZN4onnx19IfInferenceFunctionERNS_16InferenceContextE, symObjAddr: 0x70, symBinAddr: 0xC6766C, symSize: 0x410 }
  - { offset: 0x1AC454, size: 0x8, addend: 0x0, symName: __ZN4onnx21LoopInferenceFunctionERNS_16InferenceContextE, symObjAddr: 0x8F8, symBinAddr: 0xC67A7C, symSize: 0xBE4 }
  - { offset: 0x1B57F1, size: 0x8, addend: 0x0, symName: __ZN4onnx10MakeStringIJA22_cA90_cmA6_cNS_9TypeProto9ValueCaseEEEENSt3__112basic_stringIcNS6_11char_traitsIcEENS6_9allocatorIcEEEEDpRKT_, symObjAddr: 0x17F8, symBinAddr: 0xC68660, symSize: 0x220 }
  - { offset: 0x1B68FA, size: 0x8, addend: 0x0, symName: __ZN4onnx29handle_negative_axis_validateERKNSt3__112basic_stringIcNS0_11char_traitsIcEENS0_9allocatorIcEEEEii, symObjAddr: 0x1C90, symBinAddr: 0xC68880, symSize: 0x12C }
  - { offset: 0x1B746D, size: 0x8, addend: 0x0, symName: __ZN4onnx21ScanInferenceFunctionERNS_16InferenceContextE, symObjAddr: 0x2008, symBinAddr: 0xC689AC, symSize: 0x11DC }
  - { offset: 0x1C2478, size: 0x8, addend: 0x0, symName: __ZNSt3__16vectorIN4onnx9TypeProtoENS_9allocatorIS2_EEE21__push_back_slow_pathIRKS2_EEPS2_OT_, symObjAddr: 0x4410, symBinAddr: 0xC69B88, symSize: 0x194 }
  - { offset: 0x1DA78A, size: 0x8, addend: 0x0, symName: __ZN4onnx5Utils13DataTypeUtils6ToTypeERKNS_9TypeProtoE, symObjAddr: 0xE0, symBinAddr: 0xC69D1C, symSize: 0x25C }
  - { offset: 0x1DB253, size: 0x8, addend: 0x0, symName: __ZN4onnx5Utils13DataTypeUtils8ToStringERKNS_9TypeProtoERKNSt3__112basic_stringIcNS5_11char_traitsIcEENS5_9allocatorIcEEEESD_, symObjAddr: 0x33C, symBinAddr: 0xC69F78, symSize: 0xC68 }
  - { offset: 0x1DE6D5, size: 0x8, addend: 0x0, symName: __ZNSt3__112__hash_tableINS_17__hash_value_typeINS_12basic_stringIcNS_11char_traitsIcEENS_9allocatorIcEEEEN4onnx9TypeProtoEEENS_22__unordered_map_hasherIS7_SA_NS_4hashIS7_EENS_8equal_toIS7_EELb1EEENS_21__unordered_map_equalIS7_SA_SF_SD_Lb1EEENS5_ISA_EEE4findIS7_EENS_15__hash_iteratorIPNS_11__hash_nodeISA_PvEEEERKT_, symObjAddr: 0x477C, symBinAddr: 0xC6D594, symSize: 0x1E8 }
  - { offset: 0x1DE9DD, size: 0x8, addend: 0x0, symName: __ZN4onnx5Utils13DataTypeUtils10FromStringERKNSt3__112basic_stringIcNS2_11char_traitsIcEENS2_9allocatorIcEEEERNS_9TypeProtoE, symObjAddr: 0xFA4, symBinAddr: 0xC6ABE0, symSize: 0x1188 }
  - { offset: 0x1E1E7D, size: 0x8, addend: 0x0, symName: __ZN4onnx5Utils13DataTypeUtils6ToTypeERKNS_9TypeProtoE.cold.1, symObjAddr: 0x6DA0, symBinAddr: 0x1168F50, symSize: 0x48 }
  - { offset: 0x1E1EAA, size: 0x8, addend: 0x0, symName: __ZN4onnx5Utils13DataTypeUtils6ToTypeERKNS_9TypeProtoE.cold.2, symObjAddr: 0x6DE8, symBinAddr: 0x1168F98, symSize: 0x40 }
  - { offset: 0x1E2672, size: 0x8, addend: 0x0, symName: __ZN4onnx5Utils13DataTypeUtils16ToDataTypeStringEi, symObjAddr: 0x23B4, symBinAddr: 0xC6BF94, symSize: 0x314 }
  - { offset: 0x1E34C0, size: 0x8, addend: 0x0, symName: __ZN4onnx5Utils11StringRange21ParensWhitespaceStripEv, symObjAddr: 0x290C, symBinAddr: 0xC6C2A8, symSize: 0x1C4 }
  - { offset: 0x1E3801, size: 0x8, addend: 0x0, symName: __ZN4onnx5Utils13DataTypeUtils18FromDataTypeStringERKNSt3__112basic_stringIcNS2_11char_traitsIcEENS2_9allocatorIcEEEE, symObjAddr: 0x2C20, symBinAddr: 0xC6C518, symSize: 0x250 }
  - { offset: 0x1E3BAB, size: 0x8, addend: 0x0, symName: __ZN4onnx16TypeProto_Opaque14mutable_domainEv, symObjAddr: 0x2E80, symBinAddr: 0xC6C768, symSize: 0x2C }
  - { offset: 0x1E3BE2, size: 0x8, addend: 0x0, symName: __ZN4onnx16TypeProto_Opaque14mutable_domainEv, symObjAddr: 0x2E80, symBinAddr: 0xC6C768, symSize: 0x2C }
  - { offset: 0x1E3F0E, size: 0x8, addend: 0x0, symName: __ZN4onnx5Utils12TypesWrapperD2Ev, symObjAddr: 0x44BC, symBinAddr: 0xC6D4AC, symSize: 0xE8 }
  - { offset: 0x1E3F1E, size: 0x8, addend: 0x0, symName: __ZN4onnx16TypeProto_Opaque12mutable_nameEv, symObjAddr: 0x2EAC, symBinAddr: 0xC6C794, symSize: 0x2C }
  - { offset: 0x1E3F55, size: 0x8, addend: 0x0, symName: __ZN4onnx16TypeProto_Opaque12mutable_nameEv, symObjAddr: 0x2EAC, symBinAddr: 0xC6C794, symSize: 0x2C }
  - { offset: 0x1E3FDC, size: 0x8, addend: 0x0, symName: __ZNSt3__112basic_stringIcNS_11char_traitsIcEENS_9allocatorIcEEEC1B8ne190102EPKcm, symObjAddr: 0x2AE0, symBinAddr: 0xC6C46C, symSize: 0xAC }
  - { offset: 0x1E42D1, size: 0x8, addend: 0x0, symName: __ZN4onnx16TypeProto_Tensor13mutable_shapeEv, symObjAddr: 0x2F4C, symBinAddr: 0xC6C7C0, symSize: 0x68 }
  - { offset: 0x1E43CB, size: 0x8, addend: 0x0, symName: __ZN4onnx5Utils13DataTypeUtils6ToTypeERKNSt3__112basic_stringIcNS2_11char_traitsIcEENS2_9allocatorIcEEEE, symObjAddr: 0x212C, symBinAddr: 0xC6BD68, symSize: 0x9C }
  - { offset: 0x1E449A, size: 0x8, addend: 0x0, symName: __ZN4onnx5Utils13DataTypeUtils11ToTypeProtoERKPKNSt3__112basic_stringIcNS2_11char_traitsIcEENS2_9allocatorIcEEEE, symObjAddr: 0x21C8, symBinAddr: 0xC6BE04, symSize: 0x190 }
  - { offset: 0x1E4746, size: 0x8, addend: 0x0, symName: __ZN4onnx5Utils13DataTypeUtils11ToTypeProtoERKPKNSt3__112basic_stringIcNS2_11char_traitsIcEENS2_9allocatorIcEEEE.cold.1, symObjAddr: 0x6EE8, symBinAddr: 0x1168FD8, symSize: 0x4C }
  - { offset: 0x1E4773, size: 0x8, addend: 0x0, symName: __ZN4onnx5Utils13DataTypeUtils11ToTypeProtoERKPKNSt3__112basic_stringIcNS2_11char_traitsIcEENS2_9allocatorIcEEEE.cold.2, symObjAddr: 0x6F34, symBinAddr: 0x1169024, symSize: 0x48 }
  - { offset: 0x1E4ADE, size: 0x8, addend: 0x0, symName: __ZN4onnx5Utils12TypesWrapperC2Ev, symObjAddr: 0x35B4, symBinAddr: 0xC6C9A0, symSize: 0xB0C }
  - { offset: 0x1E8EF0, size: 0x8, addend: 0x0, symName: __ZN4onnx5Utils11StringRange10LAndRStripEv, symObjAddr: 0x30B4, symBinAddr: 0xC6C828, symSize: 0x174 }
  - { offset: 0x1E996B, size: 0x8, addend: 0x0, symName: __ZN4onnx5Utils12TypesWrapperD1Ev, symObjAddr: 0x35B0, symBinAddr: 0xC6C99C, symSize: 0x4 }
  - { offset: 0x1E9997, size: 0x8, addend: 0x0, symName: __ZN4onnx5Utils12TypesWrapperD1Ev, symObjAddr: 0x35B0, symBinAddr: 0xC6C99C, symSize: 0x4 }
  - { offset: 0x1E99AA, size: 0x8, addend: 0x0, symName: __ZN4onnx5Utils12TypesWrapperD2Ev, symObjAddr: 0x44BC, symBinAddr: 0xC6D4AC, symSize: 0xE8 }
  - { offset: 0x1EB40C, size: 0x8, addend: 0x0, symName: __ZNSt3__112__hash_tableINS_17__hash_value_typeINS_12basic_stringIcNS_11char_traitsIcEENS_9allocatorIcEEEEN4onnx9TypeProtoEEENS_22__unordered_map_hasherIS7_SA_NS_4hashIS7_EENS_8equal_toIS7_EELb1EEENS_21__unordered_map_equalIS7_SA_SF_SD_Lb1EEENS5_ISA_EEE4findIS7_EENS_15__hash_iteratorIPNS_11__hash_nodeISA_PvEEEERKT_, symObjAddr: 0x477C, symBinAddr: 0xC6D594, symSize: 0x1E8 }
  - { offset: 0x1EB97A, size: 0x8, addend: 0x0, symName: __ZNSt3__112__hash_tableINS_17__hash_value_typeIiNS_12basic_stringIcNS_11char_traitsIcEENS_9allocatorIcEEEEEENS_22__unordered_map_hasherIiS8_NS_4hashIiEENS_8equal_toIiEELb1EEENS_21__unordered_map_equalIiS8_SD_SB_Lb1EEENS5_IS8_EEE25__emplace_unique_key_argsIiJRKNS_21piecewise_construct_tENS_5tupleIJRKiEEENSN_IJEEEEEENS_4pairINS_15__hash_iteratorIPNS_11__hash_nodeIS8_PvEEEEbEERKT_DpOT0_, symObjAddr: 0x6118, symBinAddr: 0xC6D77C, symSize: 0x374 }
  - { offset: 0x1F05B0, size: 0x8, addend: 0x0, symName: _OUTLINED_FUNCTION_0, symObjAddr: 0x6FC4, symBinAddr: 0xC6DAF0, symSize: 0x1C }
  - { offset: 0x1F05C8, size: 0x8, addend: 0x0, symName: _OUTLINED_FUNCTION_2, symObjAddr: 0x6FE8, symBinAddr: 0xC6DB0C, symSize: 0x8 }
  - { offset: 0x1F05E0, size: 0x8, addend: 0x0, symName: _OUTLINED_FUNCTION_3, symObjAddr: 0x6FF0, symBinAddr: 0xC6DB14, symSize: 0x8 }
  - { offset: 0x22AB03, size: 0x8, addend: 0x0, symName: __ZN4onnx18FunctionBodyHelper10BuildNodesERKNSt3__16vectorINS0_7NodeDefENS1_9allocatorIS3_EEEE, symObjAddr: 0x1E28, symBinAddr: 0xC6DB1C, symSize: 0x45C }
  - { offset: 0x22B75C, size: 0x8, addend: 0x0, symName: __ZNSt3__128__exception_guard_exceptionsINS_6vectorIN4onnx9NodeProtoENS_9allocatorIS3_EEE16__destroy_vectorEED1B8ne190102Ev, symObjAddr: 0x4DC4, symBinAddr: 0xC6DFD0, symSize: 0x70 }
  - { offset: 0x22B789, size: 0x8, addend: 0x0, symName: __ZNSt3__128__exception_guard_exceptionsINS_6vectorIN4onnx9NodeProtoENS_9allocatorIS3_EEE16__destroy_vectorEED1B8ne190102Ev, symObjAddr: 0x4DC4, symBinAddr: 0xC6DFD0, symSize: 0x70 }
  - { offset: 0x22B8E6, size: 0x8, addend: 0x0, symName: __ZNSt3__16vectorIN4onnx9NodeProtoENS_9allocatorIS2_EEED1B8ne190102Ev, symObjAddr: 0x2284, symBinAddr: 0xC6DF78, symSize: 0x58 }
  - { offset: 0x2392F4, size: 0x8, addend: 0x0, symName: __ZN4onnx11GetOpSchemaINS_20Bernoulli_Onnx_ver15EEENS_8OpSchemaEv, symObjAddr: 0x0, symBinAddr: 0xC73EC8, symSize: 0x3D4 }
  - { offset: 0x239F4B, size: 0x8, addend: 0x0, symName: __ZN4onnx11GetOpSchemaINS_21Multinomial_Onnx_ver7EEENS_8OpSchemaEv, symObjAddr: 0x55C, symBinAddr: 0xC7429C, symSize: 0x390 }
  - { offset: 0x23A8FA, size: 0x8, addend: 0x0, symName: __ZN4onnx11GetOpSchemaINS_26RandomNormalLike_Onnx_ver1EEENS_8OpSchemaEv, symObjAddr: 0x8EC, symBinAddr: 0xC7462C, symSize: 0x49C }
  - { offset: 0x23BCE9, size: 0x8, addend: 0x0, symName: __ZN4onnx11GetOpSchemaINS_27RandomUniformLike_Onnx_ver1EEENS_8OpSchemaEv, symObjAddr: 0xDF8, symBinAddr: 0xC74AC8, symSize: 0x49C }
  - { offset: 0x23D0D8, size: 0x8, addend: 0x0, symName: __ZN4onnx11GetOpSchemaINS_22RandomNormal_Onnx_ver1EEENS_8OpSchemaEv, symObjAddr: 0x1294, symBinAddr: 0xC74F64, symSize: 0x368 }
  - { offset: 0x23DA8F, size: 0x8, addend: 0x0, symName: __ZN4onnx11GetOpSchemaINS_23RandomUniform_Onnx_ver1EEENS_8OpSchemaEv, symObjAddr: 0x15FC, symBinAddr: 0xC752CC, symSize: 0x368 }
  - { offset: 0x23E446, size: 0x8, addend: 0x0, symName: __ZN4onnx11GetOpSchemaINS_17EyeLike_Onnx_ver9EEENS_8OpSchemaEv, symObjAddr: 0x1964, symBinAddr: 0xC75634, symSize: 0x370 }
  - { offset: 0x23EE07, size: 0x8, addend: 0x0, symName: __ZN4onnx11GetOpSchemaINS_18Constant_Onnx_ver1EEENS_8OpSchemaEv, symObjAddr: 0x3714, symBinAddr: 0xC773E4, symSize: 0x29C }
  - { offset: 0x23F7D7, size: 0x8, addend: 0x0, symName: __ZN4onnx11GetOpSchemaINS_18Constant_Onnx_ver9EEENS_8OpSchemaEv, symObjAddr: 0x39B0, symBinAddr: 0xC77680, symSize: 0x394 }
  - { offset: 0x240B84, size: 0x8, addend: 0x0, symName: __ZN4onnx11GetOpSchemaINS_19Constant_Onnx_ver11EEENS_8OpSchemaEv, symObjAddr: 0x3D44, symBinAddr: 0xC77A14, symSize: 0x3B0 }
  - { offset: 0x241F31, size: 0x8, addend: 0x0, symName: __ZN4onnx11GetOpSchemaINS_26ConstantOfShape_Onnx_ver24EEENS_8OpSchemaEv, symObjAddr: 0x40F4, symBinAddr: 0xC77DC4, symSize: 0x334 }
  - { offset: 0x242904, size: 0x8, addend: 0x0, symName: __ZN4onnx11GetOpSchemaINS_26ConstantOfShape_Onnx_ver23EEENS_8OpSchemaEv, symObjAddr: 0x4428, symBinAddr: 0xC780F8, symSize: 0x32C }
  - { offset: 0x2432D7, size: 0x8, addend: 0x0, symName: __ZN4onnx11GetOpSchemaINS_26ConstantOfShape_Onnx_ver21EEENS_8OpSchemaEv, symObjAddr: 0x4754, symBinAddr: 0xC78424, symSize: 0x334 }
  - { offset: 0x243CAA, size: 0x8, addend: 0x0, symName: __ZN4onnx11GetOpSchemaINS_26ConstantOfShape_Onnx_ver20EEENS_8OpSchemaEv, symObjAddr: 0x4A88, symBinAddr: 0xC78758, symSize: 0x328 }
  - { offset: 0x244637, size: 0x8, addend: 0x0, symName: __ZN4onnx11GetOpSchemaINS_25ConstantOfShape_Onnx_ver9EEENS_8OpSchemaEv, symObjAddr: 0x4DB0, symBinAddr: 0xC78A80, symSize: 0x318 }
  - { offset: 0x244FC4, size: 0x8, addend: 0x0, symName: __ZN4onnx11GetOpSchemaINS_19Constant_Onnx_ver24EEENS_8OpSchemaEv, symObjAddr: 0x1CD4, symBinAddr: 0xC759A4, symSize: 0x460 }
  - { offset: 0x2463D9, size: 0x8, addend: 0x0, symName: __ZN4onnx11GetOpSchemaINS_19Constant_Onnx_ver23EEENS_8OpSchemaEv, symObjAddr: 0x2134, symBinAddr: 0xC75E04, symSize: 0x460 }
  - { offset: 0x2477EE, size: 0x8, addend: 0x0, symName: __ZN4onnx11GetOpSchemaINS_19Constant_Onnx_ver21EEENS_8OpSchemaEv, symObjAddr: 0x2594, symBinAddr: 0xC76264, symSize: 0x460 }
  - { offset: 0x248C03, size: 0x8, addend: 0x0, symName: __ZN4onnx11GetOpSchemaINS_19Constant_Onnx_ver19EEENS_8OpSchemaEv, symObjAddr: 0x29F4, symBinAddr: 0xC766C4, symSize: 0x460 }
  - { offset: 0x24A018, size: 0x8, addend: 0x0, symName: __ZN4onnx11GetOpSchemaINS_19Constant_Onnx_ver13EEENS_8OpSchemaEv, symObjAddr: 0x2E54, symBinAddr: 0xC76B24, symSize: 0x460 }
  - { offset: 0x24B42D, size: 0x8, addend: 0x0, symName: __ZN4onnx11GetOpSchemaINS_19Constant_Onnx_ver12EEENS_8OpSchemaEv, symObjAddr: 0x32B4, symBinAddr: 0xC76F84, symSize: 0x460 }
  - { offset: 0x25740D, size: 0x8, addend: 0x0, symName: __ZN4onnx10MakeStringIJA23_cA66_cEEENSt3__112basic_stringIcNS3_11char_traitsIcEENS3_9allocatorIcEEEEDpRKT_, symObjAddr: 0xEFF0, symBinAddr: 0xC7AA50, symSize: 0x1DC }
  - { offset: 0x257E45, size: 0x8, addend: 0x0, symName: __ZN4onnx10MakeStringIJA23_cA87_cEEENSt3__112basic_stringIcNS3_11char_traitsIcEENS3_9allocatorIcEEEEDpRKT_, symObjAddr: 0xF884, symBinAddr: 0xC7B108, symSize: 0x1DC }
  - { offset: 0x299F7E, size: 0x8, addend: 0x0, symName: '__ZNSt3__110__function6__funcIZN4onnx11GetOpSchemaINS2_20Bernoulli_Onnx_ver15EEENS2_8OpSchemaEvE3$_0NS_9allocatorIS6_EEFvRNS2_16InferenceContextEEED1Ev', symObjAddr: 0x8F4C, symBinAddr: 0xC78D98, symSize: 0x4 }
  - { offset: 0x299FA9, size: 0x8, addend: 0x0, symName: '__ZNSt3__110__function6__funcIZN4onnx11GetOpSchemaINS2_20Bernoulli_Onnx_ver15EEENS2_8OpSchemaEvE3$_0NS_9allocatorIS6_EEFvRNS2_16InferenceContextEEED0Ev', symObjAddr: 0x8F50, symBinAddr: 0xC78D9C, symSize: 0x4 }
  - { offset: 0x29A05E, size: 0x8, addend: 0x0, symName: '__ZNKSt3__110__function6__funcIZN4onnx11GetOpSchemaINS2_20Bernoulli_Onnx_ver15EEENS2_8OpSchemaEvE3$_0NS_9allocatorIS6_EEFvRNS2_16InferenceContextEEE7__cloneEv', symObjAddr: 0x8F54, symBinAddr: 0xC78DA0, symSize: 0x24 }
  - { offset: 0x29A1A1, size: 0x8, addend: 0x0, symName: '__ZNKSt3__110__function6__funcIZN4onnx11GetOpSchemaINS2_20Bernoulli_Onnx_ver15EEENS2_8OpSchemaEvE3$_0NS_9allocatorIS6_EEFvRNS2_16InferenceContextEEE7__cloneEPNS0_6__baseISB_EE', symObjAddr: 0x8F78, symBinAddr: 0xC78DC4, symSize: 0x10 }
  - { offset: 0x29A1D5, size: 0x8, addend: 0x0, symName: '__ZNKSt3__110__function6__funcIZN4onnx11GetOpSchemaINS2_20Bernoulli_Onnx_ver15EEENS2_8OpSchemaEvE3$_0NS_9allocatorIS6_EEFvRNS2_16InferenceContextEEE7__cloneEPNS0_6__baseISB_EE', symObjAddr: 0x8F78, symBinAddr: 0xC78DC4, symSize: 0x10 }
  - { offset: 0x29A1F1, size: 0x8, addend: 0x0, symName: '__ZNKSt3__110__function6__funcIZN4onnx11GetOpSchemaINS2_20Bernoulli_Onnx_ver15EEENS2_8OpSchemaEvE3$_0NS_9allocatorIS6_EEFvRNS2_16InferenceContextEEE7__cloneEPNS0_6__baseISB_EE', symObjAddr: 0x8F78, symBinAddr: 0xC78DC4, symSize: 0x10 }
  - { offset: 0x29A20D, size: 0x8, addend: 0x0, symName: '__ZNSt3__110__function6__funcIZN4onnx11GetOpSchemaINS2_20Bernoulli_Onnx_ver15EEENS2_8OpSchemaEvE3$_0NS_9allocatorIS6_EEFvRNS2_16InferenceContextEEE7destroyEv', symObjAddr: 0x8F88, symBinAddr: 0xC78DD4, symSize: 0x4 }
  - { offset: 0x29A25C, size: 0x8, addend: 0x0, symName: '__ZNSt3__110__function6__funcIZN4onnx11GetOpSchemaINS2_20Bernoulli_Onnx_ver15EEENS2_8OpSchemaEvE3$_0NS_9allocatorIS6_EEFvRNS2_16InferenceContextEEE18destroy_deallocateEv', symObjAddr: 0x8F8C, symBinAddr: 0xC78DD8, symSize: 0x4 }
  - { offset: 0x29A28F, size: 0x8, addend: 0x0, symName: '__ZNSt3__110__function6__funcIZN4onnx11GetOpSchemaINS2_20Bernoulli_Onnx_ver15EEENS2_8OpSchemaEvE3$_0NS_9allocatorIS6_EEFvRNS2_16InferenceContextEEE18destroy_deallocateEv', symObjAddr: 0x8F8C, symBinAddr: 0xC78DD8, symSize: 0x4 }
  - { offset: 0x29A2B1, size: 0x8, addend: 0x0, symName: '__ZNSt3__110__function6__funcIZN4onnx11GetOpSchemaINS2_20Bernoulli_Onnx_ver15EEENS2_8OpSchemaEvE3$_0NS_9allocatorIS6_EEFvRNS2_16InferenceContextEEE18destroy_deallocateEv', symObjAddr: 0x8F8C, symBinAddr: 0xC78DD8, symSize: 0x4 }
  - { offset: 0x29A2DC, size: 0x8, addend: 0x0, symName: '__ZNSt3__110__function6__funcIZN4onnx11GetOpSchemaINS2_20Bernoulli_Onnx_ver15EEENS2_8OpSchemaEvE3$_0NS_9allocatorIS6_EEFvRNS2_16InferenceContextEEE18destroy_deallocateEv', symObjAddr: 0x8F8C, symBinAddr: 0xC78DD8, symSize: 0x4 }
  - { offset: 0x29A302, size: 0x8, addend: 0x0, symName: '__ZNSt3__110__function6__funcIZN4onnx11GetOpSchemaINS2_20Bernoulli_Onnx_ver15EEENS2_8OpSchemaEvE3$_0NS_9allocatorIS6_EEFvRNS2_16InferenceContextEEE18destroy_deallocateEv', symObjAddr: 0x8F8C, symBinAddr: 0xC78DD8, symSize: 0x4 }
  - { offset: 0x29A3F9, size: 0x8, addend: 0x0, symName: '__ZNSt3__110__function6__funcIZN4onnx11GetOpSchemaINS2_20Bernoulli_Onnx_ver15EEENS2_8OpSchemaEvE3$_0NS_9allocatorIS6_EEFvRNS2_16InferenceContextEEEclESA_', symObjAddr: 0x8F90, symBinAddr: 0xC78DDC, symSize: 0x1F8 }
  - { offset: 0x29AB1D, size: 0x8, addend: 0x0, symName: '__ZNKSt3__110__function6__funcIZN4onnx11GetOpSchemaINS2_20Bernoulli_Onnx_ver15EEENS2_8OpSchemaEvE3$_0NS_9allocatorIS6_EEFvRNS2_16InferenceContextEEE6targetERKSt9type_info', symObjAddr: 0x9188, symBinAddr: 0xC78FD4, symSize: 0x64 }
  - { offset: 0x29ABD0, size: 0x8, addend: 0x0, symName: '__ZNKSt3__110__function6__funcIZN4onnx11GetOpSchemaINS2_20Bernoulli_Onnx_ver15EEENS2_8OpSchemaEvE3$_0NS_9allocatorIS6_EEFvRNS2_16InferenceContextEEE11target_typeEv', symObjAddr: 0x91EC, symBinAddr: 0xC79038, symSize: 0xC }
  - { offset: 0x29B939, size: 0x8, addend: 0x0, symName: '__ZNSt3__110__function6__funcIZN4onnx11GetOpSchemaINS2_20Bernoulli_Onnx_ver15EEENS2_8OpSchemaEvE3$_1NS_9allocatorIS6_EEFbRKNS2_24FunctionBodyBuildContextERKS5_RNS2_13FunctionProtoEEED1Ev', symObjAddr: 0xB1DC, symBinAddr: 0xC79044, symSize: 0x4 }
  - { offset: 0x29B964, size: 0x8, addend: 0x0, symName: '__ZNSt3__110__function6__funcIZN4onnx11GetOpSchemaINS2_20Bernoulli_Onnx_ver15EEENS2_8OpSchemaEvE3$_1NS_9allocatorIS6_EEFbRKNS2_24FunctionBodyBuildContextERKS5_RNS2_13FunctionProtoEEED0Ev', symObjAddr: 0xB1E0, symBinAddr: 0xC79048, symSize: 0x4 }
  - { offset: 0x29BA19, size: 0x8, addend: 0x0, symName: '__ZNKSt3__110__function6__funcIZN4onnx11GetOpSchemaINS2_20Bernoulli_Onnx_ver15EEENS2_8OpSchemaEvE3$_1NS_9allocatorIS6_EEFbRKNS2_24FunctionBodyBuildContextERKS5_RNS2_13FunctionProtoEEE7__cloneEv', symObjAddr: 0xB1E4, symBinAddr: 0xC7904C, symSize: 0x24 }
  - { offset: 0x29BB5C, size: 0x8, addend: 0x0, symName: '__ZNKSt3__110__function6__funcIZN4onnx11GetOpSchemaINS2_20Bernoulli_Onnx_ver15EEENS2_8OpSchemaEvE3$_1NS_9allocatorIS6_EEFbRKNS2_24FunctionBodyBuildContextERKS5_RNS2_13FunctionProtoEEE7__cloneEPNS0_6__baseISG_EE', symObjAddr: 0xB208, symBinAddr: 0xC79070, symSize: 0x10 }
  - { offset: 0x29BB90, size: 0x8, addend: 0x0, symName: '__ZNKSt3__110__function6__funcIZN4onnx11GetOpSchemaINS2_20Bernoulli_Onnx_ver15EEENS2_8OpSchemaEvE3$_1NS_9allocatorIS6_EEFbRKNS2_24FunctionBodyBuildContextERKS5_RNS2_13FunctionProtoEEE7__cloneEPNS0_6__baseISG_EE', symObjAddr: 0xB208, symBinAddr: 0xC79070, symSize: 0x10 }
  - { offset: 0x29BBAC, size: 0x8, addend: 0x0, symName: '__ZNKSt3__110__function6__funcIZN4onnx11GetOpSchemaINS2_20Bernoulli_Onnx_ver15EEENS2_8OpSchemaEvE3$_1NS_9allocatorIS6_EEFbRKNS2_24FunctionBodyBuildContextERKS5_RNS2_13FunctionProtoEEE7__cloneEPNS0_6__baseISG_EE', symObjAddr: 0xB208, symBinAddr: 0xC79070, symSize: 0x10 }
  - { offset: 0x29BBC8, size: 0x8, addend: 0x0, symName: '__ZNSt3__110__function6__funcIZN4onnx11GetOpSchemaINS2_20Bernoulli_Onnx_ver15EEENS2_8OpSchemaEvE3$_1NS_9allocatorIS6_EEFbRKNS2_24FunctionBodyBuildContextERKS5_RNS2_13FunctionProtoEEE7destroyEv', symObjAddr: 0xB218, symBinAddr: 0xC79080, symSize: 0x4 }
  - { offset: 0x29BC17, size: 0x8, addend: 0x0, symName: '__ZNSt3__110__function6__funcIZN4onnx11GetOpSchemaINS2_20Bernoulli_Onnx_ver15EEENS2_8OpSchemaEvE3$_1NS_9allocatorIS6_EEFbRKNS2_24FunctionBodyBuildContextERKS5_RNS2_13FunctionProtoEEE18destroy_deallocateEv', symObjAddr: 0xB21C, symBinAddr: 0xC79084, symSize: 0x4 }
  - { offset: 0x29BC4A, size: 0x8, addend: 0x0, symName: '__ZNSt3__110__function6__funcIZN4onnx11GetOpSchemaINS2_20Bernoulli_Onnx_ver15EEENS2_8OpSchemaEvE3$_1NS_9allocatorIS6_EEFbRKNS2_24FunctionBodyBuildContextERKS5_RNS2_13FunctionProtoEEE18destroy_deallocateEv', symObjAddr: 0xB21C, symBinAddr: 0xC79084, symSize: 0x4 }
  - { offset: 0x29BC6C, size: 0x8, addend: 0x0, symName: '__ZNSt3__110__function6__funcIZN4onnx11GetOpSchemaINS2_20Bernoulli_Onnx_ver15EEENS2_8OpSchemaEvE3$_1NS_9allocatorIS6_EEFbRKNS2_24FunctionBodyBuildContextERKS5_RNS2_13FunctionProtoEEE18destroy_deallocateEv', symObjAddr: 0xB21C, symBinAddr: 0xC79084, symSize: 0x4 }
  - { offset: 0x29BC97, size: 0x8, addend: 0x0, symName: '__ZNSt3__110__function6__funcIZN4onnx11GetOpSchemaINS2_20Bernoulli_Onnx_ver15EEENS2_8OpSchemaEvE3$_1NS_9allocatorIS6_EEFbRKNS2_24FunctionBodyBuildContextERKS5_RNS2_13FunctionProtoEEE18destroy_deallocateEv', symObjAddr: 0xB21C, symBinAddr: 0xC79084, symSize: 0x4 }
  - { offset: 0x29BCBD, size: 0x8, addend: 0x0, symName: '__ZNSt3__110__function6__funcIZN4onnx11GetOpSchemaINS2_20Bernoulli_Onnx_ver15EEENS2_8OpSchemaEvE3$_1NS_9allocatorIS6_EEFbRKNS2_24FunctionBodyBuildContextERKS5_RNS2_13FunctionProtoEEE18destroy_deallocateEv', symObjAddr: 0xB21C, symBinAddr: 0xC79084, symSize: 0x4 }
  - { offset: 0x29BE88, size: 0x8, addend: 0x0, symName: '__ZNSt3__110__function6__funcIZN4onnx11GetOpSchemaINS2_20Bernoulli_Onnx_ver15EEENS2_8OpSchemaEvE3$_1NS_9allocatorIS6_EEFbRKNS2_24FunctionBodyBuildContextERKS5_RNS2_13FunctionProtoEEEclESB_SD_SF_', symObjAddr: 0xB220, symBinAddr: 0xC79088, symSize: 0x1F0 }
  - { offset: 0x29CD6B, size: 0x8, addend: 0x0, symName: '__ZNKSt3__110__function6__funcIZN4onnx11GetOpSchemaINS2_20Bernoulli_Onnx_ver15EEENS2_8OpSchemaEvE3$_1NS_9allocatorIS6_EEFbRKNS2_24FunctionBodyBuildContextERKS5_RNS2_13FunctionProtoEEE6targetERKSt9type_info', symObjAddr: 0xB410, symBinAddr: 0xC79278, symSize: 0x64 }
  - { offset: 0x29CE1E, size: 0x8, addend: 0x0, symName: '__ZNKSt3__110__function6__funcIZN4onnx11GetOpSchemaINS2_20Bernoulli_Onnx_ver15EEENS2_8OpSchemaEvE3$_1NS_9allocatorIS6_EEFbRKNS2_24FunctionBodyBuildContextERKS5_RNS2_13FunctionProtoEEE11target_typeEv', symObjAddr: 0xB474, symBinAddr: 0xC792DC, symSize: 0xC }
  - { offset: 0x29D8B3, size: 0x8, addend: 0x0, symName: '__ZNSt3__110__function6__funcIZN4onnx11GetOpSchemaINS2_21Multinomial_Onnx_ver7EEENS2_8OpSchemaEvE3$_0NS_9allocatorIS6_EEFvRNS2_16InferenceContextEEED1Ev', symObjAddr: 0xBA1C, symBinAddr: 0xC792E8, symSize: 0x4 }
  - { offset: 0x29D8DE, size: 0x8, addend: 0x0, symName: '__ZNSt3__110__function6__funcIZN4onnx11GetOpSchemaINS2_21Multinomial_Onnx_ver7EEENS2_8OpSchemaEvE3$_0NS_9allocatorIS6_EEFvRNS2_16InferenceContextEEED0Ev', symObjAddr: 0xBA20, symBinAddr: 0xC792EC, symSize: 0x4 }
  - { offset: 0x29D993, size: 0x8, addend: 0x0, symName: '__ZNKSt3__110__function6__funcIZN4onnx11GetOpSchemaINS2_21Multinomial_Onnx_ver7EEENS2_8OpSchemaEvE3$_0NS_9allocatorIS6_EEFvRNS2_16InferenceContextEEE7__cloneEv', symObjAddr: 0xBA24, symBinAddr: 0xC792F0, symSize: 0x24 }
  - { offset: 0x29DAD6, size: 0x8, addend: 0x0, symName: '__ZNKSt3__110__function6__funcIZN4onnx11GetOpSchemaINS2_21Multinomial_Onnx_ver7EEENS2_8OpSchemaEvE3$_0NS_9allocatorIS6_EEFvRNS2_16InferenceContextEEE7__cloneEPNS0_6__baseISB_EE', symObjAddr: 0xBA48, symBinAddr: 0xC79314, symSize: 0x10 }
  - { offset: 0x29DB0A, size: 0x8, addend: 0x0, symName: '__ZNKSt3__110__function6__funcIZN4onnx11GetOpSchemaINS2_21Multinomial_Onnx_ver7EEENS2_8OpSchemaEvE3$_0NS_9allocatorIS6_EEFvRNS2_16InferenceContextEEE7__cloneEPNS0_6__baseISB_EE', symObjAddr: 0xBA48, symBinAddr: 0xC79314, symSize: 0x10 }
  - { offset: 0x29DB26, size: 0x8, addend: 0x0, symName: '__ZNKSt3__110__function6__funcIZN4onnx11GetOpSchemaINS2_21Multinomial_Onnx_ver7EEENS2_8OpSchemaEvE3$_0NS_9allocatorIS6_EEFvRNS2_16InferenceContextEEE7__cloneEPNS0_6__baseISB_EE', symObjAddr: 0xBA48, symBinAddr: 0xC79314, symSize: 0x10 }
  - { offset: 0x29DB42, size: 0x8, addend: 0x0, symName: '__ZNSt3__110__function6__funcIZN4onnx11GetOpSchemaINS2_21Multinomial_Onnx_ver7EEENS2_8OpSchemaEvE3$_0NS_9allocatorIS6_EEFvRNS2_16InferenceContextEEE7destroyEv', symObjAddr: 0xBA58, symBinAddr: 0xC79324, symSize: 0x4 }
  - { offset: 0x29DB91, size: 0x8, addend: 0x0, symName: '__ZNSt3__110__function6__funcIZN4onnx11GetOpSchemaINS2_21Multinomial_Onnx_ver7EEENS2_8OpSchemaEvE3$_0NS_9allocatorIS6_EEFvRNS2_16InferenceContextEEE18destroy_deallocateEv', symObjAddr: 0xBA5C, symBinAddr: 0xC79328, symSize: 0x4 }
  - { offset: 0x29DBC4, size: 0x8, addend: 0x0, symName: '__ZNSt3__110__function6__funcIZN4onnx11GetOpSchemaINS2_21Multinomial_Onnx_ver7EEENS2_8OpSchemaEvE3$_0NS_9allocatorIS6_EEFvRNS2_16InferenceContextEEE18destroy_deallocateEv', symObjAddr: 0xBA5C, symBinAddr: 0xC79328, symSize: 0x4 }
  - { offset: 0x29DBE6, size: 0x8, addend: 0x0, symName: '__ZNSt3__110__function6__funcIZN4onnx11GetOpSchemaINS2_21Multinomial_Onnx_ver7EEENS2_8OpSchemaEvE3$_0NS_9allocatorIS6_EEFvRNS2_16InferenceContextEEE18destroy_deallocateEv', symObjAddr: 0xBA5C, symBinAddr: 0xC79328, symSize: 0x4 }
  - { offset: 0x29DC11, size: 0x8, addend: 0x0, symName: '__ZNSt3__110__function6__funcIZN4onnx11GetOpSchemaINS2_21Multinomial_Onnx_ver7EEENS2_8OpSchemaEvE3$_0NS_9allocatorIS6_EEFvRNS2_16InferenceContextEEE18destroy_deallocateEv', symObjAddr: 0xBA5C, symBinAddr: 0xC79328, symSize: 0x4 }
  - { offset: 0x29DC37, size: 0x8, addend: 0x0, symName: '__ZNSt3__110__function6__funcIZN4onnx11GetOpSchemaINS2_21Multinomial_Onnx_ver7EEENS2_8OpSchemaEvE3$_0NS_9allocatorIS6_EEFvRNS2_16InferenceContextEEE18destroy_deallocateEv', symObjAddr: 0xBA5C, symBinAddr: 0xC79328, symSize: 0x4 }
  - { offset: 0x29DFA8, size: 0x8, addend: 0x0, symName: '__ZNSt3__110__function6__funcIZN4onnx11GetOpSchemaINS2_21Multinomial_Onnx_ver7EEENS2_8OpSchemaEvE3$_0NS_9allocatorIS6_EEFvRNS2_16InferenceContextEEEclESA_', symObjAddr: 0xBA60, symBinAddr: 0xC7932C, symSize: 0x548 }
  - { offset: 0x29F08D, size: 0x8, addend: 0x0, symName: '__ZNKSt3__110__function6__funcIZN4onnx11GetOpSchemaINS2_21Multinomial_Onnx_ver7EEENS2_8OpSchemaEvE3$_0NS_9allocatorIS6_EEFvRNS2_16InferenceContextEEE6targetERKSt9type_info', symObjAddr: 0xBFA8, symBinAddr: 0xC79874, symSize: 0x64 }
  - { offset: 0x29F140, size: 0x8, addend: 0x0, symName: '__ZNKSt3__110__function6__funcIZN4onnx11GetOpSchemaINS2_21Multinomial_Onnx_ver7EEENS2_8OpSchemaEvE3$_0NS_9allocatorIS6_EEFvRNS2_16InferenceContextEEE11target_typeEv', symObjAddr: 0xC00C, symBinAddr: 0xC798D8, symSize: 0xC }
  - { offset: 0x29F247, size: 0x8, addend: 0x0, symName: '__ZNSt3__110__function6__funcIZN4onnx11GetOpSchemaINS2_26RandomNormalLike_Onnx_ver1EEENS2_8OpSchemaEvE3$_0NS_9allocatorIS6_EEFvRNS2_16InferenceContextEEED1Ev', symObjAddr: 0xD490, symBinAddr: 0xC798E4, symSize: 0x4 }
  - { offset: 0x29F272, size: 0x8, addend: 0x0, symName: '__ZNSt3__110__function6__funcIZN4onnx11GetOpSchemaINS2_26RandomNormalLike_Onnx_ver1EEENS2_8OpSchemaEvE3$_0NS_9allocatorIS6_EEFvRNS2_16InferenceContextEEED0Ev', symObjAddr: 0xD494, symBinAddr: 0xC798E8, symSize: 0x4 }
  - { offset: 0x29F327, size: 0x8, addend: 0x0, symName: '__ZNKSt3__110__function6__funcIZN4onnx11GetOpSchemaINS2_26RandomNormalLike_Onnx_ver1EEENS2_8OpSchemaEvE3$_0NS_9allocatorIS6_EEFvRNS2_16InferenceContextEEE7__cloneEv', symObjAddr: 0xD498, symBinAddr: 0xC798EC, symSize: 0x24 }
  - { offset: 0x29F46A, size: 0x8, addend: 0x0, symName: '__ZNKSt3__110__function6__funcIZN4onnx11GetOpSchemaINS2_26RandomNormalLike_Onnx_ver1EEENS2_8OpSchemaEvE3$_0NS_9allocatorIS6_EEFvRNS2_16InferenceContextEEE7__cloneEPNS0_6__baseISB_EE', symObjAddr: 0xD4BC, symBinAddr: 0xC79910, symSize: 0x10 }
  - { offset: 0x29F49E, size: 0x8, addend: 0x0, symName: '__ZNKSt3__110__function6__funcIZN4onnx11GetOpSchemaINS2_26RandomNormalLike_Onnx_ver1EEENS2_8OpSchemaEvE3$_0NS_9allocatorIS6_EEFvRNS2_16InferenceContextEEE7__cloneEPNS0_6__baseISB_EE', symObjAddr: 0xD4BC, symBinAddr: 0xC79910, symSize: 0x10 }
  - { offset: 0x29F4BA, size: 0x8, addend: 0x0, symName: '__ZNKSt3__110__function6__funcIZN4onnx11GetOpSchemaINS2_26RandomNormalLike_Onnx_ver1EEENS2_8OpSchemaEvE3$_0NS_9allocatorIS6_EEFvRNS2_16InferenceContextEEE7__cloneEPNS0_6__baseISB_EE', symObjAddr: 0xD4BC, symBinAddr: 0xC79910, symSize: 0x10 }
  - { offset: 0x29F4D6, size: 0x8, addend: 0x0, symName: '__ZNSt3__110__function6__funcIZN4onnx11GetOpSchemaINS2_26RandomNormalLike_Onnx_ver1EEENS2_8OpSchemaEvE3$_0NS_9allocatorIS6_EEFvRNS2_16InferenceContextEEE7destroyEv', symObjAddr: 0xD4CC, symBinAddr: 0xC79920, symSize: 0x4 }
  - { offset: 0x29F525, size: 0x8, addend: 0x0, symName: '__ZNSt3__110__function6__funcIZN4onnx11GetOpSchemaINS2_26RandomNormalLike_Onnx_ver1EEENS2_8OpSchemaEvE3$_0NS_9allocatorIS6_EEFvRNS2_16InferenceContextEEE18destroy_deallocateEv', symObjAddr: 0xD4D0, symBinAddr: 0xC79924, symSize: 0x4 }
  - { offset: 0x29F558, size: 0x8, addend: 0x0, symName: '__ZNSt3__110__function6__funcIZN4onnx11GetOpSchemaINS2_26RandomNormalLike_Onnx_ver1EEENS2_8OpSchemaEvE3$_0NS_9allocatorIS6_EEFvRNS2_16InferenceContextEEE18destroy_deallocateEv', symObjAddr: 0xD4D0, symBinAddr: 0xC79924, symSize: 0x4 }
  - { offset: 0x29F57A, size: 0x8, addend: 0x0, symName: '__ZNSt3__110__function6__funcIZN4onnx11GetOpSchemaINS2_26RandomNormalLike_Onnx_ver1EEENS2_8OpSchemaEvE3$_0NS_9allocatorIS6_EEFvRNS2_16InferenceContextEEE18destroy_deallocateEv', symObjAddr: 0xD4D0, symBinAddr: 0xC79924, symSize: 0x4 }
  - { offset: 0x29F5A5, size: 0x8, addend: 0x0, symName: '__ZNSt3__110__function6__funcIZN4onnx11GetOpSchemaINS2_26RandomNormalLike_Onnx_ver1EEENS2_8OpSchemaEvE3$_0NS_9allocatorIS6_EEFvRNS2_16InferenceContextEEE18destroy_deallocateEv', symObjAddr: 0xD4D0, symBinAddr: 0xC79924, symSize: 0x4 }
  - { offset: 0x29F5CB, size: 0x8, addend: 0x0, symName: '__ZNSt3__110__function6__funcIZN4onnx11GetOpSchemaINS2_26RandomNormalLike_Onnx_ver1EEENS2_8OpSchemaEvE3$_0NS_9allocatorIS6_EEFvRNS2_16InferenceContextEEE18destroy_deallocateEv', symObjAddr: 0xD4D0, symBinAddr: 0xC79924, symSize: 0x4 }
  - { offset: 0x29F674, size: 0x8, addend: 0x0, symName: '__ZNSt3__110__function6__funcIZN4onnx11GetOpSchemaINS2_26RandomNormalLike_Onnx_ver1EEENS2_8OpSchemaEvE3$_0NS_9allocatorIS6_EEFvRNS2_16InferenceContextEEEclESA_', symObjAddr: 0xD4D4, symBinAddr: 0xC79928, symSize: 0x1F8 }
  - { offset: 0x29FD98, size: 0x8, addend: 0x0, symName: '__ZNKSt3__110__function6__funcIZN4onnx11GetOpSchemaINS2_26RandomNormalLike_Onnx_ver1EEENS2_8OpSchemaEvE3$_0NS_9allocatorIS6_EEFvRNS2_16InferenceContextEEE6targetERKSt9type_info', symObjAddr: 0xD6CC, symBinAddr: 0xC79B20, symSize: 0x64 }
  - { offset: 0x29FE4B, size: 0x8, addend: 0x0, symName: '__ZNKSt3__110__function6__funcIZN4onnx11GetOpSchemaINS2_26RandomNormalLike_Onnx_ver1EEENS2_8OpSchemaEvE3$_0NS_9allocatorIS6_EEFvRNS2_16InferenceContextEEE11target_typeEv', symObjAddr: 0xD730, symBinAddr: 0xC79B84, symSize: 0xC }
  - { offset: 0x29FE6E, size: 0x8, addend: 0x0, symName: '__ZNSt3__110__function6__funcIZN4onnx11GetOpSchemaINS2_27RandomUniformLike_Onnx_ver1EEENS2_8OpSchemaEvE3$_0NS_9allocatorIS6_EEFvRNS2_16InferenceContextEEED1Ev', symObjAddr: 0xD73C, symBinAddr: 0xC79B90, symSize: 0x4 }
  - { offset: 0x29FE99, size: 0x8, addend: 0x0, symName: '__ZNSt3__110__function6__funcIZN4onnx11GetOpSchemaINS2_27RandomUniformLike_Onnx_ver1EEENS2_8OpSchemaEvE3$_0NS_9allocatorIS6_EEFvRNS2_16InferenceContextEEED0Ev', symObjAddr: 0xD740, symBinAddr: 0xC79B94, symSize: 0x4 }
  - { offset: 0x29FF4E, size: 0x8, addend: 0x0, symName: '__ZNKSt3__110__function6__funcIZN4onnx11GetOpSchemaINS2_27RandomUniformLike_Onnx_ver1EEENS2_8OpSchemaEvE3$_0NS_9allocatorIS6_EEFvRNS2_16InferenceContextEEE7__cloneEv', symObjAddr: 0xD744, symBinAddr: 0xC79B98, symSize: 0x24 }
  - { offset: 0x2A0091, size: 0x8, addend: 0x0, symName: '__ZNKSt3__110__function6__funcIZN4onnx11GetOpSchemaINS2_27RandomUniformLike_Onnx_ver1EEENS2_8OpSchemaEvE3$_0NS_9allocatorIS6_EEFvRNS2_16InferenceContextEEE7__cloneEPNS0_6__baseISB_EE', symObjAddr: 0xD768, symBinAddr: 0xC79BBC, symSize: 0x10 }
  - { offset: 0x2A00C5, size: 0x8, addend: 0x0, symName: '__ZNKSt3__110__function6__funcIZN4onnx11GetOpSchemaINS2_27RandomUniformLike_Onnx_ver1EEENS2_8OpSchemaEvE3$_0NS_9allocatorIS6_EEFvRNS2_16InferenceContextEEE7__cloneEPNS0_6__baseISB_EE', symObjAddr: 0xD768, symBinAddr: 0xC79BBC, symSize: 0x10 }
  - { offset: 0x2A00E1, size: 0x8, addend: 0x0, symName: '__ZNKSt3__110__function6__funcIZN4onnx11GetOpSchemaINS2_27RandomUniformLike_Onnx_ver1EEENS2_8OpSchemaEvE3$_0NS_9allocatorIS6_EEFvRNS2_16InferenceContextEEE7__cloneEPNS0_6__baseISB_EE', symObjAddr: 0xD768, symBinAddr: 0xC79BBC, symSize: 0x10 }
  - { offset: 0x2A00FD, size: 0x8, addend: 0x0, symName: '__ZNSt3__110__function6__funcIZN4onnx11GetOpSchemaINS2_27RandomUniformLike_Onnx_ver1EEENS2_8OpSchemaEvE3$_0NS_9allocatorIS6_EEFvRNS2_16InferenceContextEEE7destroyEv', symObjAddr: 0xD778, symBinAddr: 0xC79BCC, symSize: 0x4 }
  - { offset: 0x2A014C, size: 0x8, addend: 0x0, symName: '__ZNSt3__110__function6__funcIZN4onnx11GetOpSchemaINS2_27RandomUniformLike_Onnx_ver1EEENS2_8OpSchemaEvE3$_0NS_9allocatorIS6_EEFvRNS2_16InferenceContextEEE18destroy_deallocateEv', symObjAddr: 0xD77C, symBinAddr: 0xC79BD0, symSize: 0x4 }
  - { offset: 0x2A017F, size: 0x8, addend: 0x0, symName: '__ZNSt3__110__function6__funcIZN4onnx11GetOpSchemaINS2_27RandomUniformLike_Onnx_ver1EEENS2_8OpSchemaEvE3$_0NS_9allocatorIS6_EEFvRNS2_16InferenceContextEEE18destroy_deallocateEv', symObjAddr: 0xD77C, symBinAddr: 0xC79BD0, symSize: 0x4 }
  - { offset: 0x2A01A1, size: 0x8, addend: 0x0, symName: '__ZNSt3__110__function6__funcIZN4onnx11GetOpSchemaINS2_27RandomUniformLike_Onnx_ver1EEENS2_8OpSchemaEvE3$_0NS_9allocatorIS6_EEFvRNS2_16InferenceContextEEE18destroy_deallocateEv', symObjAddr: 0xD77C, symBinAddr: 0xC79BD0, symSize: 0x4 }
  - { offset: 0x2A01CC, size: 0x8, addend: 0x0, symName: '__ZNSt3__110__function6__funcIZN4onnx11GetOpSchemaINS2_27RandomUniformLike_Onnx_ver1EEENS2_8OpSchemaEvE3$_0NS_9allocatorIS6_EEFvRNS2_16InferenceContextEEE18destroy_deallocateEv', symObjAddr: 0xD77C, symBinAddr: 0xC79BD0, symSize: 0x4 }
  - { offset: 0x2A01F2, size: 0x8, addend: 0x0, symName: '__ZNSt3__110__function6__funcIZN4onnx11GetOpSchemaINS2_27RandomUniformLike_Onnx_ver1EEENS2_8OpSchemaEvE3$_0NS_9allocatorIS6_EEFvRNS2_16InferenceContextEEE18destroy_deallocateEv', symObjAddr: 0xD77C, symBinAddr: 0xC79BD0, symSize: 0x4 }
  - { offset: 0x2A029B, size: 0x8, addend: 0x0, symName: '__ZNSt3__110__function6__funcIZN4onnx11GetOpSchemaINS2_27RandomUniformLike_Onnx_ver1EEENS2_8OpSchemaEvE3$_0NS_9allocatorIS6_EEFvRNS2_16InferenceContextEEEclESA_', symObjAddr: 0xD780, symBinAddr: 0xC79BD4, symSize: 0x1F8 }
  - { offset: 0x2A09BF, size: 0x8, addend: 0x0, symName: '__ZNKSt3__110__function6__funcIZN4onnx11GetOpSchemaINS2_27RandomUniformLike_Onnx_ver1EEENS2_8OpSchemaEvE3$_0NS_9allocatorIS6_EEFvRNS2_16InferenceContextEEE6targetERKSt9type_info', symObjAddr: 0xD978, symBinAddr: 0xC79DCC, symSize: 0x64 }
  - { offset: 0x2A0A72, size: 0x8, addend: 0x0, symName: '__ZNKSt3__110__function6__funcIZN4onnx11GetOpSchemaINS2_27RandomUniformLike_Onnx_ver1EEENS2_8OpSchemaEvE3$_0NS_9allocatorIS6_EEFvRNS2_16InferenceContextEEE11target_typeEv', symObjAddr: 0xD9DC, symBinAddr: 0xC79E30, symSize: 0xC }
  - { offset: 0x2A0A95, size: 0x8, addend: 0x0, symName: '__ZNSt3__110__function6__funcIZN4onnx11GetOpSchemaINS2_22RandomNormal_Onnx_ver1EEENS2_8OpSchemaEvE3$_0NS_9allocatorIS6_EEFvRNS2_16InferenceContextEEED1Ev', symObjAddr: 0xD9E8, symBinAddr: 0xC79E3C, symSize: 0x4 }
  - { offset: 0x2A0AC0, size: 0x8, addend: 0x0, symName: '__ZNSt3__110__function6__funcIZN4onnx11GetOpSchemaINS2_22RandomNormal_Onnx_ver1EEENS2_8OpSchemaEvE3$_0NS_9allocatorIS6_EEFvRNS2_16InferenceContextEEED0Ev', symObjAddr: 0xD9EC, symBinAddr: 0xC79E40, symSize: 0x4 }
  - { offset: 0x2A0B75, size: 0x8, addend: 0x0, symName: '__ZNKSt3__110__function6__funcIZN4onnx11GetOpSchemaINS2_22RandomNormal_Onnx_ver1EEENS2_8OpSchemaEvE3$_0NS_9allocatorIS6_EEFvRNS2_16InferenceContextEEE7__cloneEv', symObjAddr: 0xD9F0, symBinAddr: 0xC79E44, symSize: 0x24 }
  - { offset: 0x2A0CB8, size: 0x8, addend: 0x0, symName: '__ZNKSt3__110__function6__funcIZN4onnx11GetOpSchemaINS2_22RandomNormal_Onnx_ver1EEENS2_8OpSchemaEvE3$_0NS_9allocatorIS6_EEFvRNS2_16InferenceContextEEE7__cloneEPNS0_6__baseISB_EE', symObjAddr: 0xDA14, symBinAddr: 0xC79E68, symSize: 0x10 }
  - { offset: 0x2A0CEC, size: 0x8, addend: 0x0, symName: '__ZNKSt3__110__function6__funcIZN4onnx11GetOpSchemaINS2_22RandomNormal_Onnx_ver1EEENS2_8OpSchemaEvE3$_0NS_9allocatorIS6_EEFvRNS2_16InferenceContextEEE7__cloneEPNS0_6__baseISB_EE', symObjAddr: 0xDA14, symBinAddr: 0xC79E68, symSize: 0x10 }
  - { offset: 0x2A0D08, size: 0x8, addend: 0x0, symName: '__ZNKSt3__110__function6__funcIZN4onnx11GetOpSchemaINS2_22RandomNormal_Onnx_ver1EEENS2_8OpSchemaEvE3$_0NS_9allocatorIS6_EEFvRNS2_16InferenceContextEEE7__cloneEPNS0_6__baseISB_EE', symObjAddr: 0xDA14, symBinAddr: 0xC79E68, symSize: 0x10 }
  - { offset: 0x2A0D24, size: 0x8, addend: 0x0, symName: '__ZNSt3__110__function6__funcIZN4onnx11GetOpSchemaINS2_22RandomNormal_Onnx_ver1EEENS2_8OpSchemaEvE3$_0NS_9allocatorIS6_EEFvRNS2_16InferenceContextEEE7destroyEv', symObjAddr: 0xDA24, symBinAddr: 0xC79E78, symSize: 0x4 }
  - { offset: 0x2A0D73, size: 0x8, addend: 0x0, symName: '__ZNSt3__110__function6__funcIZN4onnx11GetOpSchemaINS2_22RandomNormal_Onnx_ver1EEENS2_8OpSchemaEvE3$_0NS_9allocatorIS6_EEFvRNS2_16InferenceContextEEE18destroy_deallocateEv', symObjAddr: 0xDA28, symBinAddr: 0xC79E7C, symSize: 0x4 }
  - { offset: 0x2A0DA6, size: 0x8, addend: 0x0, symName: '__ZNSt3__110__function6__funcIZN4onnx11GetOpSchemaINS2_22RandomNormal_Onnx_ver1EEENS2_8OpSchemaEvE3$_0NS_9allocatorIS6_EEFvRNS2_16InferenceContextEEE18destroy_deallocateEv', symObjAddr: 0xDA28, symBinAddr: 0xC79E7C, symSize: 0x4 }
  - { offset: 0x2A0DC8, size: 0x8, addend: 0x0, symName: '__ZNSt3__110__function6__funcIZN4onnx11GetOpSchemaINS2_22RandomNormal_Onnx_ver1EEENS2_8OpSchemaEvE3$_0NS_9allocatorIS6_EEFvRNS2_16InferenceContextEEE18destroy_deallocateEv', symObjAddr: 0xDA28, symBinAddr: 0xC79E7C, symSize: 0x4 }
  - { offset: 0x2A0DF3, size: 0x8, addend: 0x0, symName: '__ZNSt3__110__function6__funcIZN4onnx11GetOpSchemaINS2_22RandomNormal_Onnx_ver1EEENS2_8OpSchemaEvE3$_0NS_9allocatorIS6_EEFvRNS2_16InferenceContextEEE18destroy_deallocateEv', symObjAddr: 0xDA28, symBinAddr: 0xC79E7C, symSize: 0x4 }
  - { offset: 0x2A0E19, size: 0x8, addend: 0x0, symName: '__ZNSt3__110__function6__funcIZN4onnx11GetOpSchemaINS2_22RandomNormal_Onnx_ver1EEENS2_8OpSchemaEvE3$_0NS_9allocatorIS6_EEFvRNS2_16InferenceContextEEE18destroy_deallocateEv', symObjAddr: 0xDA28, symBinAddr: 0xC79E7C, symSize: 0x4 }
  - { offset: 0x2A0EC3, size: 0x8, addend: 0x0, symName: '__ZNSt3__110__function6__funcIZN4onnx11GetOpSchemaINS2_22RandomNormal_Onnx_ver1EEENS2_8OpSchemaEvE3$_0NS_9allocatorIS6_EEFvRNS2_16InferenceContextEEEclESA_', symObjAddr: 0xDA2C, symBinAddr: 0xC79E80, symSize: 0xF4 }
  - { offset: 0x2A1466, size: 0x8, addend: 0x0, symName: '__ZNKSt3__110__function6__funcIZN4onnx11GetOpSchemaINS2_22RandomNormal_Onnx_ver1EEENS2_8OpSchemaEvE3$_0NS_9allocatorIS6_EEFvRNS2_16InferenceContextEEE6targetERKSt9type_info', symObjAddr: 0xDB20, symBinAddr: 0xC79F74, symSize: 0x64 }
  - { offset: 0x2A1519, size: 0x8, addend: 0x0, symName: '__ZNKSt3__110__function6__funcIZN4onnx11GetOpSchemaINS2_22RandomNormal_Onnx_ver1EEENS2_8OpSchemaEvE3$_0NS_9allocatorIS6_EEFvRNS2_16InferenceContextEEE11target_typeEv', symObjAddr: 0xDB84, symBinAddr: 0xC79FD8, symSize: 0xC }
  - { offset: 0x2A15FB, size: 0x8, addend: 0x0, symName: '__ZNSt3__110__function6__funcIZN4onnx11GetOpSchemaINS2_23RandomUniform_Onnx_ver1EEENS2_8OpSchemaEvE3$_0NS_9allocatorIS6_EEFvRNS2_16InferenceContextEEED1Ev', symObjAddr: 0xE3A8, symBinAddr: 0xC79FE4, symSize: 0x4 }
  - { offset: 0x2A1626, size: 0x8, addend: 0x0, symName: '__ZNSt3__110__function6__funcIZN4onnx11GetOpSchemaINS2_23RandomUniform_Onnx_ver1EEENS2_8OpSchemaEvE3$_0NS_9allocatorIS6_EEFvRNS2_16InferenceContextEEED0Ev', symObjAddr: 0xE3AC, symBinAddr: 0xC79FE8, symSize: 0x4 }
  - { offset: 0x2A16DB, size: 0x8, addend: 0x0, symName: '__ZNKSt3__110__function6__funcIZN4onnx11GetOpSchemaINS2_23RandomUniform_Onnx_ver1EEENS2_8OpSchemaEvE3$_0NS_9allocatorIS6_EEFvRNS2_16InferenceContextEEE7__cloneEv', symObjAddr: 0xE3B0, symBinAddr: 0xC79FEC, symSize: 0x24 }
  - { offset: 0x2A181E, size: 0x8, addend: 0x0, symName: '__ZNKSt3__110__function6__funcIZN4onnx11GetOpSchemaINS2_23RandomUniform_Onnx_ver1EEENS2_8OpSchemaEvE3$_0NS_9allocatorIS6_EEFvRNS2_16InferenceContextEEE7__cloneEPNS0_6__baseISB_EE', symObjAddr: 0xE3D4, symBinAddr: 0xC7A010, symSize: 0x10 }
  - { offset: 0x2A1852, size: 0x8, addend: 0x0, symName: '__ZNKSt3__110__function6__funcIZN4onnx11GetOpSchemaINS2_23RandomUniform_Onnx_ver1EEENS2_8OpSchemaEvE3$_0NS_9allocatorIS6_EEFvRNS2_16InferenceContextEEE7__cloneEPNS0_6__baseISB_EE', symObjAddr: 0xE3D4, symBinAddr: 0xC7A010, symSize: 0x10 }
  - { offset: 0x2A186E, size: 0x8, addend: 0x0, symName: '__ZNKSt3__110__function6__funcIZN4onnx11GetOpSchemaINS2_23RandomUniform_Onnx_ver1EEENS2_8OpSchemaEvE3$_0NS_9allocatorIS6_EEFvRNS2_16InferenceContextEEE7__cloneEPNS0_6__baseISB_EE', symObjAddr: 0xE3D4, symBinAddr: 0xC7A010, symSize: 0x10 }
  - { offset: 0x2A188A, size: 0x8, addend: 0x0, symName: '__ZNSt3__110__function6__funcIZN4onnx11GetOpSchemaINS2_23RandomUniform_Onnx_ver1EEENS2_8OpSchemaEvE3$_0NS_9allocatorIS6_EEFvRNS2_16InferenceContextEEE7destroyEv', symObjAddr: 0xE3E4, symBinAddr: 0xC7A020, symSize: 0x4 }
  - { offset: 0x2A18D9, size: 0x8, addend: 0x0, symName: '__ZNSt3__110__function6__funcIZN4onnx11GetOpSchemaINS2_23RandomUniform_Onnx_ver1EEENS2_8OpSchemaEvE3$_0NS_9allocatorIS6_EEFvRNS2_16InferenceContextEEE18destroy_deallocateEv', symObjAddr: 0xE3E8, symBinAddr: 0xC7A024, symSize: 0x4 }
  - { offset: 0x2A190C, size: 0x8, addend: 0x0, symName: '__ZNSt3__110__function6__funcIZN4onnx11GetOpSchemaINS2_23RandomUniform_Onnx_ver1EEENS2_8OpSchemaEvE3$_0NS_9allocatorIS6_EEFvRNS2_16InferenceContextEEE18destroy_deallocateEv', symObjAddr: 0xE3E8, symBinAddr: 0xC7A024, symSize: 0x4 }
  - { offset: 0x2A192E, size: 0x8, addend: 0x0, symName: '__ZNSt3__110__function6__funcIZN4onnx11GetOpSchemaINS2_23RandomUniform_Onnx_ver1EEENS2_8OpSchemaEvE3$_0NS_9allocatorIS6_EEFvRNS2_16InferenceContextEEE18destroy_deallocateEv', symObjAddr: 0xE3E8, symBinAddr: 0xC7A024, symSize: 0x4 }
  - { offset: 0x2A1959, size: 0x8, addend: 0x0, symName: '__ZNSt3__110__function6__funcIZN4onnx11GetOpSchemaINS2_23RandomUniform_Onnx_ver1EEENS2_8OpSchemaEvE3$_0NS_9allocatorIS6_EEFvRNS2_16InferenceContextEEE18destroy_deallocateEv', symObjAddr: 0xE3E8, symBinAddr: 0xC7A024, symSize: 0x4 }
  - { offset: 0x2A197F, size: 0x8, addend: 0x0, symName: '__ZNSt3__110__function6__funcIZN4onnx11GetOpSchemaINS2_23RandomUniform_Onnx_ver1EEENS2_8OpSchemaEvE3$_0NS_9allocatorIS6_EEFvRNS2_16InferenceContextEEE18destroy_deallocateEv', symObjAddr: 0xE3E8, symBinAddr: 0xC7A024, symSize: 0x4 }
  - { offset: 0x2A1A29, size: 0x8, addend: 0x0, symName: '__ZNSt3__110__function6__funcIZN4onnx11GetOpSchemaINS2_23RandomUniform_Onnx_ver1EEENS2_8OpSchemaEvE3$_0NS_9allocatorIS6_EEFvRNS2_16InferenceContextEEEclESA_', symObjAddr: 0xE3EC, symBinAddr: 0xC7A028, symSize: 0xF4 }
  - { offset: 0x2A1FCC, size: 0x8, addend: 0x0, symName: '__ZNKSt3__110__function6__funcIZN4onnx11GetOpSchemaINS2_23RandomUniform_Onnx_ver1EEENS2_8OpSchemaEvE3$_0NS_9allocatorIS6_EEFvRNS2_16InferenceContextEEE6targetERKSt9type_info', symObjAddr: 0xE4E0, symBinAddr: 0xC7A11C, symSize: 0x64 }
  - { offset: 0x2A207F, size: 0x8, addend: 0x0, symName: '__ZNKSt3__110__function6__funcIZN4onnx11GetOpSchemaINS2_23RandomUniform_Onnx_ver1EEENS2_8OpSchemaEvE3$_0NS_9allocatorIS6_EEFvRNS2_16InferenceContextEEE11target_typeEv', symObjAddr: 0xE544, symBinAddr: 0xC7A180, symSize: 0xC }
  - { offset: 0x2A20A2, size: 0x8, addend: 0x0, symName: '__ZNSt3__110__function6__funcIZN4onnx11GetOpSchemaINS2_17EyeLike_Onnx_ver9EEENS2_8OpSchemaEvE3$_0NS_9allocatorIS6_EEFvRNS2_16InferenceContextEEED1Ev', symObjAddr: 0xE550, symBinAddr: 0xC7A18C, symSize: 0x4 }
  - { offset: 0x2A20CD, size: 0x8, addend: 0x0, symName: '__ZNSt3__110__function6__funcIZN4onnx11GetOpSchemaINS2_17EyeLike_Onnx_ver9EEENS2_8OpSchemaEvE3$_0NS_9allocatorIS6_EEFvRNS2_16InferenceContextEEED0Ev', symObjAddr: 0xE554, symBinAddr: 0xC7A190, symSize: 0x4 }
  - { offset: 0x2A2182, size: 0x8, addend: 0x0, symName: '__ZNKSt3__110__function6__funcIZN4onnx11GetOpSchemaINS2_17EyeLike_Onnx_ver9EEENS2_8OpSchemaEvE3$_0NS_9allocatorIS6_EEFvRNS2_16InferenceContextEEE7__cloneEv', symObjAddr: 0xE558, symBinAddr: 0xC7A194, symSize: 0x24 }
  - { offset: 0x2A22C5, size: 0x8, addend: 0x0, symName: '__ZNKSt3__110__function6__funcIZN4onnx11GetOpSchemaINS2_17EyeLike_Onnx_ver9EEENS2_8OpSchemaEvE3$_0NS_9allocatorIS6_EEFvRNS2_16InferenceContextEEE7__cloneEPNS0_6__baseISB_EE', symObjAddr: 0xE57C, symBinAddr: 0xC7A1B8, symSize: 0x10 }
  - { offset: 0x2A22F9, size: 0x8, addend: 0x0, symName: '__ZNKSt3__110__function6__funcIZN4onnx11GetOpSchemaINS2_17EyeLike_Onnx_ver9EEENS2_8OpSchemaEvE3$_0NS_9allocatorIS6_EEFvRNS2_16InferenceContextEEE7__cloneEPNS0_6__baseISB_EE', symObjAddr: 0xE57C, symBinAddr: 0xC7A1B8, symSize: 0x10 }
  - { offset: 0x2A2315, size: 0x8, addend: 0x0, symName: '__ZNKSt3__110__function6__funcIZN4onnx11GetOpSchemaINS2_17EyeLike_Onnx_ver9EEENS2_8OpSchemaEvE3$_0NS_9allocatorIS6_EEFvRNS2_16InferenceContextEEE7__cloneEPNS0_6__baseISB_EE', symObjAddr: 0xE57C, symBinAddr: 0xC7A1B8, symSize: 0x10 }
  - { offset: 0x2A2331, size: 0x8, addend: 0x0, symName: '__ZNSt3__110__function6__funcIZN4onnx11GetOpSchemaINS2_17EyeLike_Onnx_ver9EEENS2_8OpSchemaEvE3$_0NS_9allocatorIS6_EEFvRNS2_16InferenceContextEEE7destroyEv', symObjAddr: 0xE58C, symBinAddr: 0xC7A1C8, symSize: 0x4 }
  - { offset: 0x2A2380, size: 0x8, addend: 0x0, symName: '__ZNSt3__110__function6__funcIZN4onnx11GetOpSchemaINS2_17EyeLike_Onnx_ver9EEENS2_8OpSchemaEvE3$_0NS_9allocatorIS6_EEFvRNS2_16InferenceContextEEE18destroy_deallocateEv', symObjAddr: 0xE590, symBinAddr: 0xC7A1CC, symSize: 0x4 }
  - { offset: 0x2A23B3, size: 0x8, addend: 0x0, symName: '__ZNSt3__110__function6__funcIZN4onnx11GetOpSchemaINS2_17EyeLike_Onnx_ver9EEENS2_8OpSchemaEvE3$_0NS_9allocatorIS6_EEFvRNS2_16InferenceContextEEE18destroy_deallocateEv', symObjAddr: 0xE590, symBinAddr: 0xC7A1CC, symSize: 0x4 }
  - { offset: 0x2A23D5, size: 0x8, addend: 0x0, symName: '__ZNSt3__110__function6__funcIZN4onnx11GetOpSchemaINS2_17EyeLike_Onnx_ver9EEENS2_8OpSchemaEvE3$_0NS_9allocatorIS6_EEFvRNS2_16InferenceContextEEE18destroy_deallocateEv', symObjAddr: 0xE590, symBinAddr: 0xC7A1CC, symSize: 0x4 }
  - { offset: 0x2A2400, size: 0x8, addend: 0x0, symName: '__ZNSt3__110__function6__funcIZN4onnx11GetOpSchemaINS2_17EyeLike_Onnx_ver9EEENS2_8OpSchemaEvE3$_0NS_9allocatorIS6_EEFvRNS2_16InferenceContextEEE18destroy_deallocateEv', symObjAddr: 0xE590, symBinAddr: 0xC7A1CC, symSize: 0x4 }
  - { offset: 0x2A2426, size: 0x8, addend: 0x0, symName: '__ZNSt3__110__function6__funcIZN4onnx11GetOpSchemaINS2_17EyeLike_Onnx_ver9EEENS2_8OpSchemaEvE3$_0NS_9allocatorIS6_EEFvRNS2_16InferenceContextEEE18destroy_deallocateEv', symObjAddr: 0xE590, symBinAddr: 0xC7A1CC, symSize: 0x4 }
  - { offset: 0x2A24DE, size: 0x8, addend: 0x0, symName: '__ZNSt3__110__function6__funcIZN4onnx11GetOpSchemaINS2_17EyeLike_Onnx_ver9EEENS2_8OpSchemaEvE3$_0NS_9allocatorIS6_EEFvRNS2_16InferenceContextEEEclESA_', symObjAddr: 0xE594, symBinAddr: 0xC7A1D0, symSize: 0x2B8 }
  - { offset: 0x2A2E7E, size: 0x8, addend: 0x0, symName: '__ZNKSt3__110__function6__funcIZN4onnx11GetOpSchemaINS2_17EyeLike_Onnx_ver9EEENS2_8OpSchemaEvE3$_0NS_9allocatorIS6_EEFvRNS2_16InferenceContextEEE6targetERKSt9type_info', symObjAddr: 0xE84C, symBinAddr: 0xC7A488, symSize: 0x64 }
  - { offset: 0x2A2F31, size: 0x8, addend: 0x0, symName: '__ZNKSt3__110__function6__funcIZN4onnx11GetOpSchemaINS2_17EyeLike_Onnx_ver9EEENS2_8OpSchemaEvE3$_0NS_9allocatorIS6_EEFvRNS2_16InferenceContextEEE11target_typeEv', symObjAddr: 0xE8B0, symBinAddr: 0xC7A4EC, symSize: 0xC }
  - { offset: 0x2A2F54, size: 0x8, addend: 0x0, symName: '__ZNSt3__110__function6__funcIZN4onnx11GetOpSchemaINS2_18Constant_Onnx_ver1EEENS2_8OpSchemaEvE3$_0NS_9allocatorIS6_EEFvRNS2_16InferenceContextEEED1Ev', symObjAddr: 0xEA98, symBinAddr: 0xC7A4F8, symSize: 0x4 }
  - { offset: 0x2A2F7F, size: 0x8, addend: 0x0, symName: '__ZNSt3__110__function6__funcIZN4onnx11GetOpSchemaINS2_18Constant_Onnx_ver1EEENS2_8OpSchemaEvE3$_0NS_9allocatorIS6_EEFvRNS2_16InferenceContextEEED0Ev', symObjAddr: 0xEA9C, symBinAddr: 0xC7A4FC, symSize: 0x4 }
  - { offset: 0x2A3034, size: 0x8, addend: 0x0, symName: '__ZNKSt3__110__function6__funcIZN4onnx11GetOpSchemaINS2_18Constant_Onnx_ver1EEENS2_8OpSchemaEvE3$_0NS_9allocatorIS6_EEFvRNS2_16InferenceContextEEE7__cloneEv', symObjAddr: 0xEAA0, symBinAddr: 0xC7A500, symSize: 0x24 }
  - { offset: 0x2A3177, size: 0x8, addend: 0x0, symName: '__ZNKSt3__110__function6__funcIZN4onnx11GetOpSchemaINS2_18Constant_Onnx_ver1EEENS2_8OpSchemaEvE3$_0NS_9allocatorIS6_EEFvRNS2_16InferenceContextEEE7__cloneEPNS0_6__baseISB_EE', symObjAddr: 0xEAC4, symBinAddr: 0xC7A524, symSize: 0x10 }
  - { offset: 0x2A31AB, size: 0x8, addend: 0x0, symName: '__ZNKSt3__110__function6__funcIZN4onnx11GetOpSchemaINS2_18Constant_Onnx_ver1EEENS2_8OpSchemaEvE3$_0NS_9allocatorIS6_EEFvRNS2_16InferenceContextEEE7__cloneEPNS0_6__baseISB_EE', symObjAddr: 0xEAC4, symBinAddr: 0xC7A524, symSize: 0x10 }
  - { offset: 0x2A31C7, size: 0x8, addend: 0x0, symName: '__ZNKSt3__110__function6__funcIZN4onnx11GetOpSchemaINS2_18Constant_Onnx_ver1EEENS2_8OpSchemaEvE3$_0NS_9allocatorIS6_EEFvRNS2_16InferenceContextEEE7__cloneEPNS0_6__baseISB_EE', symObjAddr: 0xEAC4, symBinAddr: 0xC7A524, symSize: 0x10 }
  - { offset: 0x2A31E3, size: 0x8, addend: 0x0, symName: '__ZNSt3__110__function6__funcIZN4onnx11GetOpSchemaINS2_18Constant_Onnx_ver1EEENS2_8OpSchemaEvE3$_0NS_9allocatorIS6_EEFvRNS2_16InferenceContextEEE7destroyEv', symObjAddr: 0xEAD4, symBinAddr: 0xC7A534, symSize: 0x4 }
  - { offset: 0x2A3232, size: 0x8, addend: 0x0, symName: '__ZNSt3__110__function6__funcIZN4onnx11GetOpSchemaINS2_18Constant_Onnx_ver1EEENS2_8OpSchemaEvE3$_0NS_9allocatorIS6_EEFvRNS2_16InferenceContextEEE18destroy_deallocateEv', symObjAddr: 0xEAD8, symBinAddr: 0xC7A538, symSize: 0x4 }
  - { offset: 0x2A3265, size: 0x8, addend: 0x0, symName: '__ZNSt3__110__function6__funcIZN4onnx11GetOpSchemaINS2_18Constant_Onnx_ver1EEENS2_8OpSchemaEvE3$_0NS_9allocatorIS6_EEFvRNS2_16InferenceContextEEE18destroy_deallocateEv', symObjAddr: 0xEAD8, symBinAddr: 0xC7A538, symSize: 0x4 }
  - { offset: 0x2A3287, size: 0x8, addend: 0x0, symName: '__ZNSt3__110__function6__funcIZN4onnx11GetOpSchemaINS2_18Constant_Onnx_ver1EEENS2_8OpSchemaEvE3$_0NS_9allocatorIS6_EEFvRNS2_16InferenceContextEEE18destroy_deallocateEv', symObjAddr: 0xEAD8, symBinAddr: 0xC7A538, symSize: 0x4 }
  - { offset: 0x2A32B2, size: 0x8, addend: 0x0, symName: '__ZNSt3__110__function6__funcIZN4onnx11GetOpSchemaINS2_18Constant_Onnx_ver1EEENS2_8OpSchemaEvE3$_0NS_9allocatorIS6_EEFvRNS2_16InferenceContextEEE18destroy_deallocateEv', symObjAddr: 0xEAD8, symBinAddr: 0xC7A538, symSize: 0x4 }
  - { offset: 0x2A32D8, size: 0x8, addend: 0x0, symName: '__ZNSt3__110__function6__funcIZN4onnx11GetOpSchemaINS2_18Constant_Onnx_ver1EEENS2_8OpSchemaEvE3$_0NS_9allocatorIS6_EEFvRNS2_16InferenceContextEEE18destroy_deallocateEv', symObjAddr: 0xEAD8, symBinAddr: 0xC7A538, symSize: 0x4 }
  - { offset: 0x2A3406, size: 0x8, addend: 0x0, symName: '__ZNSt3__110__function6__funcIZN4onnx11GetOpSchemaINS2_18Constant_Onnx_ver1EEENS2_8OpSchemaEvE3$_0NS_9allocatorIS6_EEFvRNS2_16InferenceContextEEEclESA_', symObjAddr: 0xEADC, symBinAddr: 0xC7A53C, symSize: 0x1AC }
  - { offset: 0x2A3A97, size: 0x8, addend: 0x0, symName: '__ZNKSt3__110__function6__funcIZN4onnx11GetOpSchemaINS2_18Constant_Onnx_ver1EEENS2_8OpSchemaEvE3$_0NS_9allocatorIS6_EEFvRNS2_16InferenceContextEEE6targetERKSt9type_info', symObjAddr: 0xEC88, symBinAddr: 0xC7A6E8, symSize: 0x64 }
  - { offset: 0x2A3B4A, size: 0x8, addend: 0x0, symName: '__ZNKSt3__110__function6__funcIZN4onnx11GetOpSchemaINS2_18Constant_Onnx_ver1EEENS2_8OpSchemaEvE3$_0NS_9allocatorIS6_EEFvRNS2_16InferenceContextEEE11target_typeEv', symObjAddr: 0xECEC, symBinAddr: 0xC7A74C, symSize: 0xC }
  - { offset: 0x2A3B6D, size: 0x8, addend: 0x0, symName: '__ZNSt3__110__function6__funcIZN4onnx11GetOpSchemaINS2_18Constant_Onnx_ver9EEENS2_8OpSchemaEvE3$_0NS_9allocatorIS6_EEFvRNS2_16InferenceContextEEED1Ev', symObjAddr: 0xECF8, symBinAddr: 0xC7A758, symSize: 0x4 }
  - { offset: 0x2A3B98, size: 0x8, addend: 0x0, symName: '__ZNSt3__110__function6__funcIZN4onnx11GetOpSchemaINS2_18Constant_Onnx_ver9EEENS2_8OpSchemaEvE3$_0NS_9allocatorIS6_EEFvRNS2_16InferenceContextEEED0Ev', symObjAddr: 0xECFC, symBinAddr: 0xC7A75C, symSize: 0x4 }
  - { offset: 0x2A3C4D, size: 0x8, addend: 0x0, symName: '__ZNKSt3__110__function6__funcIZN4onnx11GetOpSchemaINS2_18Constant_Onnx_ver9EEENS2_8OpSchemaEvE3$_0NS_9allocatorIS6_EEFvRNS2_16InferenceContextEEE7__cloneEv', symObjAddr: 0xED00, symBinAddr: 0xC7A760, symSize: 0x24 }
  - { offset: 0x2A3D90, size: 0x8, addend: 0x0, symName: '__ZNKSt3__110__function6__funcIZN4onnx11GetOpSchemaINS2_18Constant_Onnx_ver9EEENS2_8OpSchemaEvE3$_0NS_9allocatorIS6_EEFvRNS2_16InferenceContextEEE7__cloneEPNS0_6__baseISB_EE', symObjAddr: 0xED24, symBinAddr: 0xC7A784, symSize: 0x10 }
  - { offset: 0x2A3DC4, size: 0x8, addend: 0x0, symName: '__ZNKSt3__110__function6__funcIZN4onnx11GetOpSchemaINS2_18Constant_Onnx_ver9EEENS2_8OpSchemaEvE3$_0NS_9allocatorIS6_EEFvRNS2_16InferenceContextEEE7__cloneEPNS0_6__baseISB_EE', symObjAddr: 0xED24, symBinAddr: 0xC7A784, symSize: 0x10 }
  - { offset: 0x2A3DE0, size: 0x8, addend: 0x0, symName: '__ZNKSt3__110__function6__funcIZN4onnx11GetOpSchemaINS2_18Constant_Onnx_ver9EEENS2_8OpSchemaEvE3$_0NS_9allocatorIS6_EEFvRNS2_16InferenceContextEEE7__cloneEPNS0_6__baseISB_EE', symObjAddr: 0xED24, symBinAddr: 0xC7A784, symSize: 0x10 }
  - { offset: 0x2A3DFC, size: 0x8, addend: 0x0, symName: '__ZNSt3__110__function6__funcIZN4onnx11GetOpSchemaINS2_18Constant_Onnx_ver9EEENS2_8OpSchemaEvE3$_0NS_9allocatorIS6_EEFvRNS2_16InferenceContextEEE7destroyEv', symObjAddr: 0xED34, symBinAddr: 0xC7A794, symSize: 0x4 }
  - { offset: 0x2A3E4B, size: 0x8, addend: 0x0, symName: '__ZNSt3__110__function6__funcIZN4onnx11GetOpSchemaINS2_18Constant_Onnx_ver9EEENS2_8OpSchemaEvE3$_0NS_9allocatorIS6_EEFvRNS2_16InferenceContextEEE18destroy_deallocateEv', symObjAddr: 0xED38, symBinAddr: 0xC7A798, symSize: 0x4 }
  - { offset: 0x2A3E7E, size: 0x8, addend: 0x0, symName: '__ZNSt3__110__function6__funcIZN4onnx11GetOpSchemaINS2_18Constant_Onnx_ver9EEENS2_8OpSchemaEvE3$_0NS_9allocatorIS6_EEFvRNS2_16InferenceContextEEE18destroy_deallocateEv', symObjAddr: 0xED38, symBinAddr: 0xC7A798, symSize: 0x4 }
  - { offset: 0x2A3EA0, size: 0x8, addend: 0x0, symName: '__ZNSt3__110__function6__funcIZN4onnx11GetOpSchemaINS2_18Constant_Onnx_ver9EEENS2_8OpSchemaEvE3$_0NS_9allocatorIS6_EEFvRNS2_16InferenceContextEEE18destroy_deallocateEv', symObjAddr: 0xED38, symBinAddr: 0xC7A798, symSize: 0x4 }
  - { offset: 0x2A3ECB, size: 0x8, addend: 0x0, symName: '__ZNSt3__110__function6__funcIZN4onnx11GetOpSchemaINS2_18Constant_Onnx_ver9EEENS2_8OpSchemaEvE3$_0NS_9allocatorIS6_EEFvRNS2_16InferenceContextEEE18destroy_deallocateEv', symObjAddr: 0xED38, symBinAddr: 0xC7A798, symSize: 0x4 }
  - { offset: 0x2A3EF1, size: 0x8, addend: 0x0, symName: '__ZNSt3__110__function6__funcIZN4onnx11GetOpSchemaINS2_18Constant_Onnx_ver9EEENS2_8OpSchemaEvE3$_0NS_9allocatorIS6_EEFvRNS2_16InferenceContextEEE18destroy_deallocateEv', symObjAddr: 0xED38, symBinAddr: 0xC7A798, symSize: 0x4 }
  - { offset: 0x2A3FB3, size: 0x8, addend: 0x0, symName: '__ZNSt3__110__function6__funcIZN4onnx11GetOpSchemaINS2_18Constant_Onnx_ver9EEENS2_8OpSchemaEvE3$_0NS_9allocatorIS6_EEFvRNS2_16InferenceContextEEEclESA_', symObjAddr: 0xED3C, symBinAddr: 0xC7A79C, symSize: 0x244 }
  - { offset: 0x2A485B, size: 0x8, addend: 0x0, symName: '__ZNKSt3__110__function6__funcIZN4onnx11GetOpSchemaINS2_18Constant_Onnx_ver9EEENS2_8OpSchemaEvE3$_0NS_9allocatorIS6_EEFvRNS2_16InferenceContextEEE6targetERKSt9type_info', symObjAddr: 0xEF80, symBinAddr: 0xC7A9E0, symSize: 0x64 }
  - { offset: 0x2A490E, size: 0x8, addend: 0x0, symName: '__ZNKSt3__110__function6__funcIZN4onnx11GetOpSchemaINS2_18Constant_Onnx_ver9EEENS2_8OpSchemaEvE3$_0NS_9allocatorIS6_EEFvRNS2_16InferenceContextEEE11target_typeEv', symObjAddr: 0xEFE4, symBinAddr: 0xC7AA44, symSize: 0xC }
  - { offset: 0x2A494A, size: 0x8, addend: 0x0, symName: '__ZNSt3__110__function6__funcIZN4onnx11GetOpSchemaINS2_19Constant_Onnx_ver11EEENS2_8OpSchemaEvE3$_0NS_9allocatorIS6_EEFvRNS2_16InferenceContextEEED1Ev', symObjAddr: 0xF1CC, symBinAddr: 0xC7AC2C, symSize: 0x4 }
  - { offset: 0x2A4975, size: 0x8, addend: 0x0, symName: '__ZNSt3__110__function6__funcIZN4onnx11GetOpSchemaINS2_19Constant_Onnx_ver11EEENS2_8OpSchemaEvE3$_0NS_9allocatorIS6_EEFvRNS2_16InferenceContextEEED0Ev', symObjAddr: 0xF1D0, symBinAddr: 0xC7AC30, symSize: 0x4 }
  - { offset: 0x2A4A2A, size: 0x8, addend: 0x0, symName: '__ZNKSt3__110__function6__funcIZN4onnx11GetOpSchemaINS2_19Constant_Onnx_ver11EEENS2_8OpSchemaEvE3$_0NS_9allocatorIS6_EEFvRNS2_16InferenceContextEEE7__cloneEv', symObjAddr: 0xF1D4, symBinAddr: 0xC7AC34, symSize: 0x24 }
  - { offset: 0x2A4B6D, size: 0x8, addend: 0x0, symName: '__ZNKSt3__110__function6__funcIZN4onnx11GetOpSchemaINS2_19Constant_Onnx_ver11EEENS2_8OpSchemaEvE3$_0NS_9allocatorIS6_EEFvRNS2_16InferenceContextEEE7__cloneEPNS0_6__baseISB_EE', symObjAddr: 0xF1F8, symBinAddr: 0xC7AC58, symSize: 0x10 }
  - { offset: 0x2A4BA1, size: 0x8, addend: 0x0, symName: '__ZNKSt3__110__function6__funcIZN4onnx11GetOpSchemaINS2_19Constant_Onnx_ver11EEENS2_8OpSchemaEvE3$_0NS_9allocatorIS6_EEFvRNS2_16InferenceContextEEE7__cloneEPNS0_6__baseISB_EE', symObjAddr: 0xF1F8, symBinAddr: 0xC7AC58, symSize: 0x10 }
  - { offset: 0x2A4BBD, size: 0x8, addend: 0x0, symName: '__ZNKSt3__110__function6__funcIZN4onnx11GetOpSchemaINS2_19Constant_Onnx_ver11EEENS2_8OpSchemaEvE3$_0NS_9allocatorIS6_EEFvRNS2_16InferenceContextEEE7__cloneEPNS0_6__baseISB_EE', symObjAddr: 0xF1F8, symBinAddr: 0xC7AC58, symSize: 0x10 }
  - { offset: 0x2A4BD9, size: 0x8, addend: 0x0, symName: '__ZNSt3__110__function6__funcIZN4onnx11GetOpSchemaINS2_19Constant_Onnx_ver11EEENS2_8OpSchemaEvE3$_0NS_9allocatorIS6_EEFvRNS2_16InferenceContextEEE7destroyEv', symObjAddr: 0xF208, symBinAddr: 0xC7AC68, symSize: 0x4 }
  - { offset: 0x2A4C28, size: 0x8, addend: 0x0, symName: '__ZNSt3__110__function6__funcIZN4onnx11GetOpSchemaINS2_19Constant_Onnx_ver11EEENS2_8OpSchemaEvE3$_0NS_9allocatorIS6_EEFvRNS2_16InferenceContextEEE18destroy_deallocateEv', symObjAddr: 0xF20C, symBinAddr: 0xC7AC6C, symSize: 0x4 }
  - { offset: 0x2A4C5B, size: 0x8, addend: 0x0, symName: '__ZNSt3__110__function6__funcIZN4onnx11GetOpSchemaINS2_19Constant_Onnx_ver11EEENS2_8OpSchemaEvE3$_0NS_9allocatorIS6_EEFvRNS2_16InferenceContextEEE18destroy_deallocateEv', symObjAddr: 0xF20C, symBinAddr: 0xC7AC6C, symSize: 0x4 }
  - { offset: 0x2A4C7D, size: 0x8, addend: 0x0, symName: '__ZNSt3__110__function6__funcIZN4onnx11GetOpSchemaINS2_19Constant_Onnx_ver11EEENS2_8OpSchemaEvE3$_0NS_9allocatorIS6_EEFvRNS2_16InferenceContextEEE18destroy_deallocateEv', symObjAddr: 0xF20C, symBinAddr: 0xC7AC6C, symSize: 0x4 }
  - { offset: 0x2A4CA8, size: 0x8, addend: 0x0, symName: '__ZNSt3__110__function6__funcIZN4onnx11GetOpSchemaINS2_19Constant_Onnx_ver11EEENS2_8OpSchemaEvE3$_0NS_9allocatorIS6_EEFvRNS2_16InferenceContextEEE18destroy_deallocateEv', symObjAddr: 0xF20C, symBinAddr: 0xC7AC6C, symSize: 0x4 }
  - { offset: 0x2A4CCE, size: 0x8, addend: 0x0, symName: '__ZNSt3__110__function6__funcIZN4onnx11GetOpSchemaINS2_19Constant_Onnx_ver11EEENS2_8OpSchemaEvE3$_0NS_9allocatorIS6_EEFvRNS2_16InferenceContextEEE18destroy_deallocateEv', symObjAddr: 0xF20C, symBinAddr: 0xC7AC6C, symSize: 0x4 }
  - { offset: 0x2A4F59, size: 0x8, addend: 0x0, symName: '__ZNSt3__110__function6__funcIZN4onnx11GetOpSchemaINS2_19Constant_Onnx_ver11EEENS2_8OpSchemaEvE3$_0NS_9allocatorIS6_EEFvRNS2_16InferenceContextEEEclESA_', symObjAddr: 0xF210, symBinAddr: 0xC7AC70, symSize: 0x428 }
  - { offset: 0x2A5DE6, size: 0x8, addend: 0x0, symName: '__ZNKSt3__110__function6__funcIZN4onnx11GetOpSchemaINS2_19Constant_Onnx_ver11EEENS2_8OpSchemaEvE3$_0NS_9allocatorIS6_EEFvRNS2_16InferenceContextEEE6targetERKSt9type_info', symObjAddr: 0xF638, symBinAddr: 0xC7B098, symSize: 0x64 }
  - { offset: 0x2A5E99, size: 0x8, addend: 0x0, symName: '__ZNKSt3__110__function6__funcIZN4onnx11GetOpSchemaINS2_19Constant_Onnx_ver11EEENS2_8OpSchemaEvE3$_0NS_9allocatorIS6_EEFvRNS2_16InferenceContextEEE11target_typeEv', symObjAddr: 0xF69C, symBinAddr: 0xC7B0FC, symSize: 0xC }
  - { offset: 0x2A5EEE, size: 0x8, addend: 0x0, symName: '__ZNSt3__110__function6__funcIZN4onnx11GetOpSchemaINS2_26ConstantOfShape_Onnx_ver24EEENS2_8OpSchemaEvE3$_0NS_9allocatorIS6_EEFvRNS2_16InferenceContextEEED1Ev', symObjAddr: 0xFA60, symBinAddr: 0xC7B2E4, symSize: 0x4 }
  - { offset: 0x2A5F19, size: 0x8, addend: 0x0, symName: '__ZNSt3__110__function6__funcIZN4onnx11GetOpSchemaINS2_26ConstantOfShape_Onnx_ver24EEENS2_8OpSchemaEvE3$_0NS_9allocatorIS6_EEFvRNS2_16InferenceContextEEED0Ev', symObjAddr: 0xFA64, symBinAddr: 0xC7B2E8, symSize: 0x4 }
  - { offset: 0x2A5FCE, size: 0x8, addend: 0x0, symName: '__ZNKSt3__110__function6__funcIZN4onnx11GetOpSchemaINS2_26ConstantOfShape_Onnx_ver24EEENS2_8OpSchemaEvE3$_0NS_9allocatorIS6_EEFvRNS2_16InferenceContextEEE7__cloneEv', symObjAddr: 0xFA68, symBinAddr: 0xC7B2EC, symSize: 0x24 }
  - { offset: 0x2A6111, size: 0x8, addend: 0x0, symName: '__ZNKSt3__110__function6__funcIZN4onnx11GetOpSchemaINS2_26ConstantOfShape_Onnx_ver24EEENS2_8OpSchemaEvE3$_0NS_9allocatorIS6_EEFvRNS2_16InferenceContextEEE7__cloneEPNS0_6__baseISB_EE', symObjAddr: 0xFA8C, symBinAddr: 0xC7B310, symSize: 0x10 }
  - { offset: 0x2A6145, size: 0x8, addend: 0x0, symName: '__ZNKSt3__110__function6__funcIZN4onnx11GetOpSchemaINS2_26ConstantOfShape_Onnx_ver24EEENS2_8OpSchemaEvE3$_0NS_9allocatorIS6_EEFvRNS2_16InferenceContextEEE7__cloneEPNS0_6__baseISB_EE', symObjAddr: 0xFA8C, symBinAddr: 0xC7B310, symSize: 0x10 }
  - { offset: 0x2A6161, size: 0x8, addend: 0x0, symName: '__ZNKSt3__110__function6__funcIZN4onnx11GetOpSchemaINS2_26ConstantOfShape_Onnx_ver24EEENS2_8OpSchemaEvE3$_0NS_9allocatorIS6_EEFvRNS2_16InferenceContextEEE7__cloneEPNS0_6__baseISB_EE', symObjAddr: 0xFA8C, symBinAddr: 0xC7B310, symSize: 0x10 }
  - { offset: 0x2A617D, size: 0x8, addend: 0x0, symName: '__ZNSt3__110__function6__funcIZN4onnx11GetOpSchemaINS2_26ConstantOfShape_Onnx_ver24EEENS2_8OpSchemaEvE3$_0NS_9allocatorIS6_EEFvRNS2_16InferenceContextEEE7destroyEv', symObjAddr: 0xFA9C, symBinAddr: 0xC7B320, symSize: 0x4 }
  - { offset: 0x2A61CC, size: 0x8, addend: 0x0, symName: '__ZNSt3__110__function6__funcIZN4onnx11GetOpSchemaINS2_26ConstantOfShape_Onnx_ver24EEENS2_8OpSchemaEvE3$_0NS_9allocatorIS6_EEFvRNS2_16InferenceContextEEE18destroy_deallocateEv', symObjAddr: 0xFAA0, symBinAddr: 0xC7B324, symSize: 0x4 }
  - { offset: 0x2A61FF, size: 0x8, addend: 0x0, symName: '__ZNSt3__110__function6__funcIZN4onnx11GetOpSchemaINS2_26ConstantOfShape_Onnx_ver24EEENS2_8OpSchemaEvE3$_0NS_9allocatorIS6_EEFvRNS2_16InferenceContextEEE18destroy_deallocateEv', symObjAddr: 0xFAA0, symBinAddr: 0xC7B324, symSize: 0x4 }
  - { offset: 0x2A6221, size: 0x8, addend: 0x0, symName: '__ZNSt3__110__function6__funcIZN4onnx11GetOpSchemaINS2_26ConstantOfShape_Onnx_ver24EEENS2_8OpSchemaEvE3$_0NS_9allocatorIS6_EEFvRNS2_16InferenceContextEEE18destroy_deallocateEv', symObjAddr: 0xFAA0, symBinAddr: 0xC7B324, symSize: 0x4 }
  - { offset: 0x2A624C, size: 0x8, addend: 0x0, symName: '__ZNSt3__110__function6__funcIZN4onnx11GetOpSchemaINS2_26ConstantOfShape_Onnx_ver24EEENS2_8OpSchemaEvE3$_0NS_9allocatorIS6_EEFvRNS2_16InferenceContextEEE18destroy_deallocateEv', symObjAddr: 0xFAA0, symBinAddr: 0xC7B324, symSize: 0x4 }
  - { offset: 0x2A6272, size: 0x8, addend: 0x0, symName: '__ZNSt3__110__function6__funcIZN4onnx11GetOpSchemaINS2_26ConstantOfShape_Onnx_ver24EEENS2_8OpSchemaEvE3$_0NS_9allocatorIS6_EEFvRNS2_16InferenceContextEEE18destroy_deallocateEv', symObjAddr: 0xFAA0, symBinAddr: 0xC7B324, symSize: 0x4 }
  - { offset: 0x2A6334, size: 0x8, addend: 0x0, symName: '__ZNSt3__110__function6__funcIZN4onnx11GetOpSchemaINS2_26ConstantOfShape_Onnx_ver24EEENS2_8OpSchemaEvE3$_0NS_9allocatorIS6_EEFvRNS2_16InferenceContextEEEclESA_', symObjAddr: 0xFAA4, symBinAddr: 0xC7B328, symSize: 0x220 }
  - { offset: 0x2A6B7B, size: 0x8, addend: 0x0, symName: '__ZNKSt3__110__function6__funcIZN4onnx11GetOpSchemaINS2_26ConstantOfShape_Onnx_ver24EEENS2_8OpSchemaEvE3$_0NS_9allocatorIS6_EEFvRNS2_16InferenceContextEEE6targetERKSt9type_info', symObjAddr: 0xFCC4, symBinAddr: 0xC7B548, symSize: 0x64 }
  - { offset: 0x2A6C2E, size: 0x8, addend: 0x0, symName: '__ZNKSt3__110__function6__funcIZN4onnx11GetOpSchemaINS2_26ConstantOfShape_Onnx_ver24EEENS2_8OpSchemaEvE3$_0NS_9allocatorIS6_EEFvRNS2_16InferenceContextEEE11target_typeEv', symObjAddr: 0xFD28, symBinAddr: 0xC7B5AC, symSize: 0xC }
  - { offset: 0x2A6C9C, size: 0x8, addend: 0x0, symName: '__ZNSt3__110__function6__funcIZN4onnx11GetOpSchemaINS2_26ConstantOfShape_Onnx_ver23EEENS2_8OpSchemaEvE3$_0NS_9allocatorIS6_EEFvRNS2_16InferenceContextEEED1Ev', symObjAddr: 0x10C04, symBinAddr: 0xC7B5B8, symSize: 0x4 }
  - { offset: 0x2A6CC7, size: 0x8, addend: 0x0, symName: '__ZNSt3__110__function6__funcIZN4onnx11GetOpSchemaINS2_26ConstantOfShape_Onnx_ver23EEENS2_8OpSchemaEvE3$_0NS_9allocatorIS6_EEFvRNS2_16InferenceContextEEED0Ev', symObjAddr: 0x10C08, symBinAddr: 0xC7B5BC, symSize: 0x4 }
  - { offset: 0x2A6D7C, size: 0x8, addend: 0x0, symName: '__ZNKSt3__110__function6__funcIZN4onnx11GetOpSchemaINS2_26ConstantOfShape_Onnx_ver23EEENS2_8OpSchemaEvE3$_0NS_9allocatorIS6_EEFvRNS2_16InferenceContextEEE7__cloneEv', symObjAddr: 0x10C0C, symBinAddr: 0xC7B5C0, symSize: 0x24 }
  - { offset: 0x2A6EBF, size: 0x8, addend: 0x0, symName: '__ZNKSt3__110__function6__funcIZN4onnx11GetOpSchemaINS2_26ConstantOfShape_Onnx_ver23EEENS2_8OpSchemaEvE3$_0NS_9allocatorIS6_EEFvRNS2_16InferenceContextEEE7__cloneEPNS0_6__baseISB_EE', symObjAddr: 0x10C30, symBinAddr: 0xC7B5E4, symSize: 0x10 }
  - { offset: 0x2A6EF3, size: 0x8, addend: 0x0, symName: '__ZNKSt3__110__function6__funcIZN4onnx11GetOpSchemaINS2_26ConstantOfShape_Onnx_ver23EEENS2_8OpSchemaEvE3$_0NS_9allocatorIS6_EEFvRNS2_16InferenceContextEEE7__cloneEPNS0_6__baseISB_EE', symObjAddr: 0x10C30, symBinAddr: 0xC7B5E4, symSize: 0x10 }
  - { offset: 0x2A6F0F, size: 0x8, addend: 0x0, symName: '__ZNKSt3__110__function6__funcIZN4onnx11GetOpSchemaINS2_26ConstantOfShape_Onnx_ver23EEENS2_8OpSchemaEvE3$_0NS_9allocatorIS6_EEFvRNS2_16InferenceContextEEE7__cloneEPNS0_6__baseISB_EE', symObjAddr: 0x10C30, symBinAddr: 0xC7B5E4, symSize: 0x10 }
  - { offset: 0x2A6F2B, size: 0x8, addend: 0x0, symName: '__ZNSt3__110__function6__funcIZN4onnx11GetOpSchemaINS2_26ConstantOfShape_Onnx_ver23EEENS2_8OpSchemaEvE3$_0NS_9allocatorIS6_EEFvRNS2_16InferenceContextEEE7destroyEv', symObjAddr: 0x10C40, symBinAddr: 0xC7B5F4, symSize: 0x4 }
  - { offset: 0x2A6F7A, size: 0x8, addend: 0x0, symName: '__ZNSt3__110__function6__funcIZN4onnx11GetOpSchemaINS2_26ConstantOfShape_Onnx_ver23EEENS2_8OpSchemaEvE3$_0NS_9allocatorIS6_EEFvRNS2_16InferenceContextEEE18destroy_deallocateEv', symObjAddr: 0x10C44, symBinAddr: 0xC7B5F8, symSize: 0x4 }
  - { offset: 0x2A6FAD, size: 0x8, addend: 0x0, symName: '__ZNSt3__110__function6__funcIZN4onnx11GetOpSchemaINS2_26ConstantOfShape_Onnx_ver23EEENS2_8OpSchemaEvE3$_0NS_9allocatorIS6_EEFvRNS2_16InferenceContextEEE18destroy_deallocateEv', symObjAddr: 0x10C44, symBinAddr: 0xC7B5F8, symSize: 0x4 }
  - { offset: 0x2A6FCF, size: 0x8, addend: 0x0, symName: '__ZNSt3__110__function6__funcIZN4onnx11GetOpSchemaINS2_26ConstantOfShape_Onnx_ver23EEENS2_8OpSchemaEvE3$_0NS_9allocatorIS6_EEFvRNS2_16InferenceContextEEE18destroy_deallocateEv', symObjAddr: 0x10C44, symBinAddr: 0xC7B5F8, symSize: 0x4 }
  - { offset: 0x2A6FFA, size: 0x8, addend: 0x0, symName: '__ZNSt3__110__function6__funcIZN4onnx11GetOpSchemaINS2_26ConstantOfShape_Onnx_ver23EEENS2_8OpSchemaEvE3$_0NS_9allocatorIS6_EEFvRNS2_16InferenceContextEEE18destroy_deallocateEv', symObjAddr: 0x10C44, symBinAddr: 0xC7B5F8, symSize: 0x4 }
  - { offset: 0x2A7020, size: 0x8, addend: 0x0, symName: '__ZNSt3__110__function6__funcIZN4onnx11GetOpSchemaINS2_26ConstantOfShape_Onnx_ver23EEENS2_8OpSchemaEvE3$_0NS_9allocatorIS6_EEFvRNS2_16InferenceContextEEE18destroy_deallocateEv', symObjAddr: 0x10C44, symBinAddr: 0xC7B5F8, symSize: 0x4 }
  - { offset: 0x2A70E2, size: 0x8, addend: 0x0, symName: '__ZNSt3__110__function6__funcIZN4onnx11GetOpSchemaINS2_26ConstantOfShape_Onnx_ver23EEENS2_8OpSchemaEvE3$_0NS_9allocatorIS6_EEFvRNS2_16InferenceContextEEEclESA_', symObjAddr: 0x10C48, symBinAddr: 0xC7B5FC, symSize: 0x220 }
  - { offset: 0x2A7929, size: 0x8, addend: 0x0, symName: '__ZNKSt3__110__function6__funcIZN4onnx11GetOpSchemaINS2_26ConstantOfShape_Onnx_ver23EEENS2_8OpSchemaEvE3$_0NS_9allocatorIS6_EEFvRNS2_16InferenceContextEEE6targetERKSt9type_info', symObjAddr: 0x10E68, symBinAddr: 0xC7B81C, symSize: 0x64 }
  - { offset: 0x2A79DC, size: 0x8, addend: 0x0, symName: '__ZNKSt3__110__function6__funcIZN4onnx11GetOpSchemaINS2_26ConstantOfShape_Onnx_ver23EEENS2_8OpSchemaEvE3$_0NS_9allocatorIS6_EEFvRNS2_16InferenceContextEEE11target_typeEv', symObjAddr: 0x10ECC, symBinAddr: 0xC7B880, symSize: 0xC }
  - { offset: 0x2A79FF, size: 0x8, addend: 0x0, symName: '__ZNSt3__110__function6__funcIZN4onnx11GetOpSchemaINS2_26ConstantOfShape_Onnx_ver21EEENS2_8OpSchemaEvE3$_0NS_9allocatorIS6_EEFvRNS2_16InferenceContextEEED1Ev', symObjAddr: 0x10ED8, symBinAddr: 0xC7B88C, symSize: 0x4 }
  - { offset: 0x2A7A2A, size: 0x8, addend: 0x0, symName: '__ZNSt3__110__function6__funcIZN4onnx11GetOpSchemaINS2_26ConstantOfShape_Onnx_ver21EEENS2_8OpSchemaEvE3$_0NS_9allocatorIS6_EEFvRNS2_16InferenceContextEEED0Ev', symObjAddr: 0x10EDC, symBinAddr: 0xC7B890, symSize: 0x4 }
  - { offset: 0x2A7ADF, size: 0x8, addend: 0x0, symName: '__ZNKSt3__110__function6__funcIZN4onnx11GetOpSchemaINS2_26ConstantOfShape_Onnx_ver21EEENS2_8OpSchemaEvE3$_0NS_9allocatorIS6_EEFvRNS2_16InferenceContextEEE7__cloneEv', symObjAddr: 0x10EE0, symBinAddr: 0xC7B894, symSize: 0x24 }
  - { offset: 0x2A7C22, size: 0x8, addend: 0x0, symName: '__ZNKSt3__110__function6__funcIZN4onnx11GetOpSchemaINS2_26ConstantOfShape_Onnx_ver21EEENS2_8OpSchemaEvE3$_0NS_9allocatorIS6_EEFvRNS2_16InferenceContextEEE7__cloneEPNS0_6__baseISB_EE', symObjAddr: 0x10F04, symBinAddr: 0xC7B8B8, symSize: 0x10 }
  - { offset: 0x2A7C56, size: 0x8, addend: 0x0, symName: '__ZNKSt3__110__function6__funcIZN4onnx11GetOpSchemaINS2_26ConstantOfShape_Onnx_ver21EEENS2_8OpSchemaEvE3$_0NS_9allocatorIS6_EEFvRNS2_16InferenceContextEEE7__cloneEPNS0_6__baseISB_EE', symObjAddr: 0x10F04, symBinAddr: 0xC7B8B8, symSize: 0x10 }
  - { offset: 0x2A7C72, size: 0x8, addend: 0x0, symName: '__ZNKSt3__110__function6__funcIZN4onnx11GetOpSchemaINS2_26ConstantOfShape_Onnx_ver21EEENS2_8OpSchemaEvE3$_0NS_9allocatorIS6_EEFvRNS2_16InferenceContextEEE7__cloneEPNS0_6__baseISB_EE', symObjAddr: 0x10F04, symBinAddr: 0xC7B8B8, symSize: 0x10 }
  - { offset: 0x2A7C8E, size: 0x8, addend: 0x0, symName: '__ZNSt3__110__function6__funcIZN4onnx11GetOpSchemaINS2_26ConstantOfShape_Onnx_ver21EEENS2_8OpSchemaEvE3$_0NS_9allocatorIS6_EEFvRNS2_16InferenceContextEEE7destroyEv', symObjAddr: 0x10F14, symBinAddr: 0xC7B8C8, symSize: 0x4 }
  - { offset: 0x2A7CDD, size: 0x8, addend: 0x0, symName: '__ZNSt3__110__function6__funcIZN4onnx11GetOpSchemaINS2_26ConstantOfShape_Onnx_ver21EEENS2_8OpSchemaEvE3$_0NS_9allocatorIS6_EEFvRNS2_16InferenceContextEEE18destroy_deallocateEv', symObjAddr: 0x10F18, symBinAddr: 0xC7B8CC, symSize: 0x4 }
  - { offset: 0x2A7D10, size: 0x8, addend: 0x0, symName: '__ZNSt3__110__function6__funcIZN4onnx11GetOpSchemaINS2_26ConstantOfShape_Onnx_ver21EEENS2_8OpSchemaEvE3$_0NS_9allocatorIS6_EEFvRNS2_16InferenceContextEEE18destroy_deallocateEv', symObjAddr: 0x10F18, symBinAddr: 0xC7B8CC, symSize: 0x4 }
  - { offset: 0x2A7D32, size: 0x8, addend: 0x0, symName: '__ZNSt3__110__function6__funcIZN4onnx11GetOpSchemaINS2_26ConstantOfShape_Onnx_ver21EEENS2_8OpSchemaEvE3$_0NS_9allocatorIS6_EEFvRNS2_16InferenceContextEEE18destroy_deallocateEv', symObjAddr: 0x10F18, symBinAddr: 0xC7B8CC, symSize: 0x4 }
  - { offset: 0x2A7D5D, size: 0x8, addend: 0x0, symName: '__ZNSt3__110__function6__funcIZN4onnx11GetOpSchemaINS2_26ConstantOfShape_Onnx_ver21EEENS2_8OpSchemaEvE3$_0NS_9allocatorIS6_EEFvRNS2_16InferenceContextEEE18destroy_deallocateEv', symObjAddr: 0x10F18, symBinAddr: 0xC7B8CC, symSize: 0x4 }
  - { offset: 0x2A7D83, size: 0x8, addend: 0x0, symName: '__ZNSt3__110__function6__funcIZN4onnx11GetOpSchemaINS2_26ConstantOfShape_Onnx_ver21EEENS2_8OpSchemaEvE3$_0NS_9allocatorIS6_EEFvRNS2_16InferenceContextEEE18destroy_deallocateEv', symObjAddr: 0x10F18, symBinAddr: 0xC7B8CC, symSize: 0x4 }
  - { offset: 0x2A7E45, size: 0x8, addend: 0x0, symName: '__ZNSt3__110__function6__funcIZN4onnx11GetOpSchemaINS2_26ConstantOfShape_Onnx_ver21EEENS2_8OpSchemaEvE3$_0NS_9allocatorIS6_EEFvRNS2_16InferenceContextEEEclESA_', symObjAddr: 0x10F1C, symBinAddr: 0xC7B8D0, symSize: 0x220 }
  - { offset: 0x2A868C, size: 0x8, addend: 0x0, symName: '__ZNKSt3__110__function6__funcIZN4onnx11GetOpSchemaINS2_26ConstantOfShape_Onnx_ver21EEENS2_8OpSchemaEvE3$_0NS_9allocatorIS6_EEFvRNS2_16InferenceContextEEE6targetERKSt9type_info', symObjAddr: 0x1113C, symBinAddr: 0xC7BAF0, symSize: 0x64 }
  - { offset: 0x2A873F, size: 0x8, addend: 0x0, symName: '__ZNKSt3__110__function6__funcIZN4onnx11GetOpSchemaINS2_26ConstantOfShape_Onnx_ver21EEENS2_8OpSchemaEvE3$_0NS_9allocatorIS6_EEFvRNS2_16InferenceContextEEE11target_typeEv', symObjAddr: 0x111A0, symBinAddr: 0xC7BB54, symSize: 0xC }
  - { offset: 0x2A8762, size: 0x8, addend: 0x0, symName: '__ZNSt3__110__function6__funcIZN4onnx11GetOpSchemaINS2_26ConstantOfShape_Onnx_ver20EEENS2_8OpSchemaEvE3$_0NS_9allocatorIS6_EEFvRNS2_16InferenceContextEEED1Ev', symObjAddr: 0x111AC, symBinAddr: 0xC7BB60, symSize: 0x4 }
  - { offset: 0x2A878D, size: 0x8, addend: 0x0, symName: '__ZNSt3__110__function6__funcIZN4onnx11GetOpSchemaINS2_26ConstantOfShape_Onnx_ver20EEENS2_8OpSchemaEvE3$_0NS_9allocatorIS6_EEFvRNS2_16InferenceContextEEED0Ev', symObjAddr: 0x111B0, symBinAddr: 0xC7BB64, symSize: 0x4 }
  - { offset: 0x2A8842, size: 0x8, addend: 0x0, symName: '__ZNKSt3__110__function6__funcIZN4onnx11GetOpSchemaINS2_26ConstantOfShape_Onnx_ver20EEENS2_8OpSchemaEvE3$_0NS_9allocatorIS6_EEFvRNS2_16InferenceContextEEE7__cloneEv', symObjAddr: 0x111B4, symBinAddr: 0xC7BB68, symSize: 0x24 }
  - { offset: 0x2A8985, size: 0x8, addend: 0x0, symName: '__ZNKSt3__110__function6__funcIZN4onnx11GetOpSchemaINS2_26ConstantOfShape_Onnx_ver20EEENS2_8OpSchemaEvE3$_0NS_9allocatorIS6_EEFvRNS2_16InferenceContextEEE7__cloneEPNS0_6__baseISB_EE', symObjAddr: 0x111D8, symBinAddr: 0xC7BB8C, symSize: 0x10 }
  - { offset: 0x2A89B9, size: 0x8, addend: 0x0, symName: '__ZNKSt3__110__function6__funcIZN4onnx11GetOpSchemaINS2_26ConstantOfShape_Onnx_ver20EEENS2_8OpSchemaEvE3$_0NS_9allocatorIS6_EEFvRNS2_16InferenceContextEEE7__cloneEPNS0_6__baseISB_EE', symObjAddr: 0x111D8, symBinAddr: 0xC7BB8C, symSize: 0x10 }
  - { offset: 0x2A89D5, size: 0x8, addend: 0x0, symName: '__ZNKSt3__110__function6__funcIZN4onnx11GetOpSchemaINS2_26ConstantOfShape_Onnx_ver20EEENS2_8OpSchemaEvE3$_0NS_9allocatorIS6_EEFvRNS2_16InferenceContextEEE7__cloneEPNS0_6__baseISB_EE', symObjAddr: 0x111D8, symBinAddr: 0xC7BB8C, symSize: 0x10 }
  - { offset: 0x2A89F1, size: 0x8, addend: 0x0, symName: '__ZNSt3__110__function6__funcIZN4onnx11GetOpSchemaINS2_26ConstantOfShape_Onnx_ver20EEENS2_8OpSchemaEvE3$_0NS_9allocatorIS6_EEFvRNS2_16InferenceContextEEE7destroyEv', symObjAddr: 0x111E8, symBinAddr: 0xC7BB9C, symSize: 0x4 }
  - { offset: 0x2A8A40, size: 0x8, addend: 0x0, symName: '__ZNSt3__110__function6__funcIZN4onnx11GetOpSchemaINS2_26ConstantOfShape_Onnx_ver20EEENS2_8OpSchemaEvE3$_0NS_9allocatorIS6_EEFvRNS2_16InferenceContextEEE18destroy_deallocateEv', symObjAddr: 0x111EC, symBinAddr: 0xC7BBA0, symSize: 0x4 }
  - { offset: 0x2A8A73, size: 0x8, addend: 0x0, symName: '__ZNSt3__110__function6__funcIZN4onnx11GetOpSchemaINS2_26ConstantOfShape_Onnx_ver20EEENS2_8OpSchemaEvE3$_0NS_9allocatorIS6_EEFvRNS2_16InferenceContextEEE18destroy_deallocateEv', symObjAddr: 0x111EC, symBinAddr: 0xC7BBA0, symSize: 0x4 }
  - { offset: 0x2A8A95, size: 0x8, addend: 0x0, symName: '__ZNSt3__110__function6__funcIZN4onnx11GetOpSchemaINS2_26ConstantOfShape_Onnx_ver20EEENS2_8OpSchemaEvE3$_0NS_9allocatorIS6_EEFvRNS2_16InferenceContextEEE18destroy_deallocateEv', symObjAddr: 0x111EC, symBinAddr: 0xC7BBA0, symSize: 0x4 }
  - { offset: 0x2A8AC0, size: 0x8, addend: 0x0, symName: '__ZNSt3__110__function6__funcIZN4onnx11GetOpSchemaINS2_26ConstantOfShape_Onnx_ver20EEENS2_8OpSchemaEvE3$_0NS_9allocatorIS6_EEFvRNS2_16InferenceContextEEE18destroy_deallocateEv', symObjAddr: 0x111EC, symBinAddr: 0xC7BBA0, symSize: 0x4 }
  - { offset: 0x2A8AE6, size: 0x8, addend: 0x0, symName: '__ZNSt3__110__function6__funcIZN4onnx11GetOpSchemaINS2_26ConstantOfShape_Onnx_ver20EEENS2_8OpSchemaEvE3$_0NS_9allocatorIS6_EEFvRNS2_16InferenceContextEEE18destroy_deallocateEv', symObjAddr: 0x111EC, symBinAddr: 0xC7BBA0, symSize: 0x4 }
  - { offset: 0x2A8BA8, size: 0x8, addend: 0x0, symName: '__ZNSt3__110__function6__funcIZN4onnx11GetOpSchemaINS2_26ConstantOfShape_Onnx_ver20EEENS2_8OpSchemaEvE3$_0NS_9allocatorIS6_EEFvRNS2_16InferenceContextEEEclESA_', symObjAddr: 0x111F0, symBinAddr: 0xC7BBA4, symSize: 0x220 }
  - { offset: 0x2A93EF, size: 0x8, addend: 0x0, symName: '__ZNKSt3__110__function6__funcIZN4onnx11GetOpSchemaINS2_26ConstantOfShape_Onnx_ver20EEENS2_8OpSchemaEvE3$_0NS_9allocatorIS6_EEFvRNS2_16InferenceContextEEE6targetERKSt9type_info', symObjAddr: 0x11410, symBinAddr: 0xC7BDC4, symSize: 0x64 }
  - { offset: 0x2A94A2, size: 0x8, addend: 0x0, symName: '__ZNKSt3__110__function6__funcIZN4onnx11GetOpSchemaINS2_26ConstantOfShape_Onnx_ver20EEENS2_8OpSchemaEvE3$_0NS_9allocatorIS6_EEFvRNS2_16InferenceContextEEE11target_typeEv', symObjAddr: 0x11474, symBinAddr: 0xC7BE28, symSize: 0xC }
  - { offset: 0x2A94C5, size: 0x8, addend: 0x0, symName: '__ZNSt3__110__function6__funcIZN4onnx11GetOpSchemaINS2_25ConstantOfShape_Onnx_ver9EEENS2_8OpSchemaEvE3$_0NS_9allocatorIS6_EEFvRNS2_16InferenceContextEEED1Ev', symObjAddr: 0x11480, symBinAddr: 0xC7BE34, symSize: 0x4 }
  - { offset: 0x2A94F0, size: 0x8, addend: 0x0, symName: '__ZNSt3__110__function6__funcIZN4onnx11GetOpSchemaINS2_25ConstantOfShape_Onnx_ver9EEENS2_8OpSchemaEvE3$_0NS_9allocatorIS6_EEFvRNS2_16InferenceContextEEED0Ev', symObjAddr: 0x11484, symBinAddr: 0xC7BE38, symSize: 0x4 }
  - { offset: 0x2A95A5, size: 0x8, addend: 0x0, symName: '__ZNKSt3__110__function6__funcIZN4onnx11GetOpSchemaINS2_25ConstantOfShape_Onnx_ver9EEENS2_8OpSchemaEvE3$_0NS_9allocatorIS6_EEFvRNS2_16InferenceContextEEE7__cloneEv', symObjAddr: 0x11488, symBinAddr: 0xC7BE3C, symSize: 0x24 }
  - { offset: 0x2A96E8, size: 0x8, addend: 0x0, symName: '__ZNKSt3__110__function6__funcIZN4onnx11GetOpSchemaINS2_25ConstantOfShape_Onnx_ver9EEENS2_8OpSchemaEvE3$_0NS_9allocatorIS6_EEFvRNS2_16InferenceContextEEE7__cloneEPNS0_6__baseISB_EE', symObjAddr: 0x114AC, symBinAddr: 0xC7BE60, symSize: 0x10 }
  - { offset: 0x2A971C, size: 0x8, addend: 0x0, symName: '__ZNKSt3__110__function6__funcIZN4onnx11GetOpSchemaINS2_25ConstantOfShape_Onnx_ver9EEENS2_8OpSchemaEvE3$_0NS_9allocatorIS6_EEFvRNS2_16InferenceContextEEE7__cloneEPNS0_6__baseISB_EE', symObjAddr: 0x114AC, symBinAddr: 0xC7BE60, symSize: 0x10 }
  - { offset: 0x2A9738, size: 0x8, addend: 0x0, symName: '__ZNKSt3__110__function6__funcIZN4onnx11GetOpSchemaINS2_25ConstantOfShape_Onnx_ver9EEENS2_8OpSchemaEvE3$_0NS_9allocatorIS6_EEFvRNS2_16InferenceContextEEE7__cloneEPNS0_6__baseISB_EE', symObjAddr: 0x114AC, symBinAddr: 0xC7BE60, symSize: 0x10 }
  - { offset: 0x2A9754, size: 0x8, addend: 0x0, symName: '__ZNSt3__110__function6__funcIZN4onnx11GetOpSchemaINS2_25ConstantOfShape_Onnx_ver9EEENS2_8OpSchemaEvE3$_0NS_9allocatorIS6_EEFvRNS2_16InferenceContextEEE7destroyEv', symObjAddr: 0x114BC, symBinAddr: 0xC7BE70, symSize: 0x4 }
  - { offset: 0x2A97A3, size: 0x8, addend: 0x0, symName: '__ZNSt3__110__function6__funcIZN4onnx11GetOpSchemaINS2_25ConstantOfShape_Onnx_ver9EEENS2_8OpSchemaEvE3$_0NS_9allocatorIS6_EEFvRNS2_16InferenceContextEEE18destroy_deallocateEv', symObjAddr: 0x114C0, symBinAddr: 0xC7BE74, symSize: 0x4 }
  - { offset: 0x2A97D6, size: 0x8, addend: 0x0, symName: '__ZNSt3__110__function6__funcIZN4onnx11GetOpSchemaINS2_25ConstantOfShape_Onnx_ver9EEENS2_8OpSchemaEvE3$_0NS_9allocatorIS6_EEFvRNS2_16InferenceContextEEE18destroy_deallocateEv', symObjAddr: 0x114C0, symBinAddr: 0xC7BE74, symSize: 0x4 }
  - { offset: 0x2A97F8, size: 0x8, addend: 0x0, symName: '__ZNSt3__110__function6__funcIZN4onnx11GetOpSchemaINS2_25ConstantOfShape_Onnx_ver9EEENS2_8OpSchemaEvE3$_0NS_9allocatorIS6_EEFvRNS2_16InferenceContextEEE18destroy_deallocateEv', symObjAddr: 0x114C0, symBinAddr: 0xC7BE74, symSize: 0x4 }
  - { offset: 0x2A9823, size: 0x8, addend: 0x0, symName: '__ZNSt3__110__function6__funcIZN4onnx11GetOpSchemaINS2_25ConstantOfShape_Onnx_ver9EEENS2_8OpSchemaEvE3$_0NS_9allocatorIS6_EEFvRNS2_16InferenceContextEEE18destroy_deallocateEv', symObjAddr: 0x114C0, symBinAddr: 0xC7BE74, symSize: 0x4 }
  - { offset: 0x2A9849, size: 0x8, addend: 0x0, symName: '__ZNSt3__110__function6__funcIZN4onnx11GetOpSchemaINS2_25ConstantOfShape_Onnx_ver9EEENS2_8OpSchemaEvE3$_0NS_9allocatorIS6_EEFvRNS2_16InferenceContextEEE18destroy_deallocateEv', symObjAddr: 0x114C0, symBinAddr: 0xC7BE74, symSize: 0x4 }
  - { offset: 0x2A990B, size: 0x8, addend: 0x0, symName: '__ZNSt3__110__function6__funcIZN4onnx11GetOpSchemaINS2_25ConstantOfShape_Onnx_ver9EEENS2_8OpSchemaEvE3$_0NS_9allocatorIS6_EEFvRNS2_16InferenceContextEEEclESA_', symObjAddr: 0x114C4, symBinAddr: 0xC7BE78, symSize: 0x220 }
  - { offset: 0x2AA152, size: 0x8, addend: 0x0, symName: '__ZNKSt3__110__function6__funcIZN4onnx11GetOpSchemaINS2_25ConstantOfShape_Onnx_ver9EEENS2_8OpSchemaEvE3$_0NS_9allocatorIS6_EEFvRNS2_16InferenceContextEEE6targetERKSt9type_info', symObjAddr: 0x116E4, symBinAddr: 0xC7C098, symSize: 0x64 }
  - { offset: 0x2AA205, size: 0x8, addend: 0x0, symName: '__ZNKSt3__110__function6__funcIZN4onnx11GetOpSchemaINS2_25ConstantOfShape_Onnx_ver9EEENS2_8OpSchemaEvE3$_0NS_9allocatorIS6_EEFvRNS2_16InferenceContextEEE11target_typeEv', symObjAddr: 0x11748, symBinAddr: 0xC7C0FC, symSize: 0xC }
  - { offset: 0x2B132C, size: 0x8, addend: 0x0, symName: __ZNSt3__17__countB8ne190102INS_17_ClassicAlgPolicyENS_6vectorIbNS_9allocatorIbEEEELb0EbNS_10__identityELi0EEENS_15iterator_traitsINS_14__bit_iteratorIT0_XT1_EXLi0EEEEE15difference_typeESA_SA_RKT2_RT3_, symObjAddr: 0x1A38, symBinAddr: 0xC7CE64, symSize: 0x2EC }
  - { offset: 0x2C6F5B, size: 0x8, addend: 0x0, symName: __ZN4onnx19ConstantOpInferenceERNS_16InferenceContextE, symObjAddr: 0x0, symBinAddr: 0xC7C108, symSize: 0xAEC }
  - { offset: 0x2CA669, size: 0x8, addend: 0x0, symName: __ZN4onnx9appendDimEPNS_16TensorShapeProtoEx, symObjAddr: 0xEDC, symBinAddr: 0xC7CDD0, symSize: 0x94 }
  - { offset: 0x2CA7C3, size: 0x8, addend: 0x0, symName: __ZN4onnx10MakeStringIJA23_cA111_cEEENSt3__112basic_stringIcNS3_11char_traitsIcEENS3_9allocatorIcEEEEDpRKT_, symObjAddr: 0xAEC, symBinAddr: 0xC7CBF4, symSize: 0x1DC }
  - { offset: 0x2DD2EE, size: 0x8, addend: 0x0, symName: __ZN4onnx11GetOpSchemaINS_17Greater_Onnx_ver9EEENS_8OpSchemaEv, symObjAddr: 0x0, symBinAddr: 0xC81488, symSize: 0x368 }
  - { offset: 0x2DE68E, size: 0x8, addend: 0x0, symName: __ZN4onnx11GetOpSchemaINS_14Less_Onnx_ver9EEENS_8OpSchemaEv, symObjAddr: 0x3D8, symBinAddr: 0xC817F0, symSize: 0x368 }
  - { offset: 0x2DFA2E, size: 0x8, addend: 0x0, symName: __ZN4onnx11GetOpSchemaINS_16Equal_Onnx_ver11EEENS_8OpSchemaEv, symObjAddr: 0x740, symBinAddr: 0xC81B58, symSize: 0x260 }
  - { offset: 0x2E0412, size: 0x8, addend: 0x0, symName: __ZN4onnx11GetOpSchemaINS_13And_Onnx_ver1EEENS_8OpSchemaEv, symObjAddr: 0x9A0, symBinAddr: 0xC81DB8, symSize: 0x240 }
  - { offset: 0x2E0E11, size: 0x8, addend: 0x0, symName: __ZN4onnx11GetOpSchemaINS_12Or_Onnx_ver1EEENS_8OpSchemaEv, symObjAddr: 0xBE0, symBinAddr: 0xC81FF8, symSize: 0x240 }
  - { offset: 0x2E1810, size: 0x8, addend: 0x0, symName: __ZN4onnx11GetOpSchemaINS_13Xor_Onnx_ver1EEENS_8OpSchemaEv, symObjAddr: 0xE20, symBinAddr: 0xC82238, symSize: 0x240 }
  - { offset: 0x2E220F, size: 0x8, addend: 0x0, symName: __ZN4onnx11GetOpSchemaINS_17Greater_Onnx_ver1EEENS_8OpSchemaEv, symObjAddr: 0x1060, symBinAddr: 0xC82478, symSize: 0x250 }
  - { offset: 0x2E2C1F, size: 0x8, addend: 0x0, symName: __ZN4onnx11GetOpSchemaINS_14Less_Onnx_ver1EEENS_8OpSchemaEv, symObjAddr: 0x12B0, symBinAddr: 0xC826C8, symSize: 0x250 }
  - { offset: 0x2E362F, size: 0x8, addend: 0x0, symName: __ZN4onnx11GetOpSchemaINS_15Equal_Onnx_ver1EEENS_8OpSchemaEv, symObjAddr: 0x1500, symBinAddr: 0xC82918, symSize: 0x250 }
  - { offset: 0x2E405C, size: 0x8, addend: 0x0, symName: __ZN4onnx11GetOpSchemaINS_15Equal_Onnx_ver7EEENS_8OpSchemaEv, symObjAddr: 0x1750, symBinAddr: 0xC82B68, symSize: 0x250 }
  - { offset: 0x2E4A6C, size: 0x8, addend: 0x0, symName: __ZN4onnx11GetOpSchemaINS_17Greater_Onnx_ver7EEENS_8OpSchemaEv, symObjAddr: 0x19A0, symBinAddr: 0xC82DB8, symSize: 0x250 }
  - { offset: 0x2E547C, size: 0x8, addend: 0x0, symName: __ZN4onnx11GetOpSchemaINS_14Less_Onnx_ver7EEENS_8OpSchemaEv, symObjAddr: 0x1BF0, symBinAddr: 0xC83008, symSize: 0x250 }
  - { offset: 0x2E5E8C, size: 0x8, addend: 0x0, symName: __ZN4onnx11GetOpSchemaINS_22LessOrEqual_Onnx_ver12EEENS_8OpSchemaEv, symObjAddr: 0x1E40, symBinAddr: 0xC83258, symSize: 0x3F0 }
  - { offset: 0x2E727F, size: 0x8, addend: 0x0, symName: __ZN4onnx11GetOpSchemaINS_25GreaterOrEqual_Onnx_ver12EEENS_8OpSchemaEv, symObjAddr: 0x2230, symBinAddr: 0xC83648, symSize: 0x3F0 }
  - { offset: 0x2E865D, size: 0x8, addend: 0x0, symName: __ZN4onnx11GetOpSchemaINS_16Equal_Onnx_ver13EEENS_8OpSchemaEv, symObjAddr: 0x2620, symBinAddr: 0xC83A38, symSize: 0x270 }
  - { offset: 0x2EAFEC, size: 0x8, addend: 0x0, symName: __ZN4onnxL25logicalOpInference_opset1ERNS_16InferenceContextE, symObjAddr: 0x86F8, symBinAddr: 0xC84790, symSize: 0x108 }
  - { offset: 0x31A639, size: 0x8, addend: 0x0, symName: '__ZNSt3__110__function6__funcIZN4onnxL31BinaryLogicDocGenerator_opset12EPKcE3$_0NS_9allocatorIS5_EEFvRNS2_8OpSchemaEEED1Ev', symObjAddr: 0x2E88, symBinAddr: 0xC83CA8, symSize: 0x4 }
  - { offset: 0x31A664, size: 0x8, addend: 0x0, symName: '__ZNSt3__110__function6__funcIZN4onnxL31BinaryLogicDocGenerator_opset12EPKcE3$_0NS_9allocatorIS5_EEFvRNS2_8OpSchemaEEED0Ev', symObjAddr: 0x2E8C, symBinAddr: 0xC83CAC, symSize: 0x4 }
  - { offset: 0x31A719, size: 0x8, addend: 0x0, symName: '__ZNKSt3__110__function6__funcIZN4onnxL31BinaryLogicDocGenerator_opset12EPKcE3$_0NS_9allocatorIS5_EEFvRNS2_8OpSchemaEEE7__cloneEv', symObjAddr: 0x2E90, symBinAddr: 0xC83CB0, symSize: 0x34 }
  - { offset: 0x31A860, size: 0x8, addend: 0x0, symName: '__ZNKSt3__110__function6__funcIZN4onnxL31BinaryLogicDocGenerator_opset12EPKcE3$_0NS_9allocatorIS5_EEFvRNS2_8OpSchemaEEE7__cloneEPNS0_6__baseISA_EE', symObjAddr: 0x2EC4, symBinAddr: 0xC83CE4, symSize: 0x14 }
  - { offset: 0x31A8CE, size: 0x8, addend: 0x0, symName: '__ZNSt3__110__function6__funcIZN4onnxL31BinaryLogicDocGenerator_opset12EPKcE3$_0NS_9allocatorIS5_EEFvRNS2_8OpSchemaEEE7destroyEv', symObjAddr: 0x2ED8, symBinAddr: 0xC83CF8, symSize: 0x4 }
  - { offset: 0x31A91D, size: 0x8, addend: 0x0, symName: '__ZNSt3__110__function6__funcIZN4onnxL31BinaryLogicDocGenerator_opset12EPKcE3$_0NS_9allocatorIS5_EEFvRNS2_8OpSchemaEEE18destroy_deallocateEv', symObjAddr: 0x2EDC, symBinAddr: 0xC83CFC, symSize: 0x4 }
  - { offset: 0x31A950, size: 0x8, addend: 0x0, symName: '__ZNSt3__110__function6__funcIZN4onnxL31BinaryLogicDocGenerator_opset12EPKcE3$_0NS_9allocatorIS5_EEFvRNS2_8OpSchemaEEE18destroy_deallocateEv', symObjAddr: 0x2EDC, symBinAddr: 0xC83CFC, symSize: 0x4 }
  - { offset: 0x31A972, size: 0x8, addend: 0x0, symName: '__ZNSt3__110__function6__funcIZN4onnxL31BinaryLogicDocGenerator_opset12EPKcE3$_0NS_9allocatorIS5_EEFvRNS2_8OpSchemaEEE18destroy_deallocateEv', symObjAddr: 0x2EDC, symBinAddr: 0xC83CFC, symSize: 0x4 }
  - { offset: 0x31A99D, size: 0x8, addend: 0x0, symName: '__ZNSt3__110__function6__funcIZN4onnxL31BinaryLogicDocGenerator_opset12EPKcE3$_0NS_9allocatorIS5_EEFvRNS2_8OpSchemaEEE18destroy_deallocateEv', symObjAddr: 0x2EDC, symBinAddr: 0xC83CFC, symSize: 0x4 }
  - { offset: 0x31A9C3, size: 0x8, addend: 0x0, symName: '__ZNSt3__110__function6__funcIZN4onnxL31BinaryLogicDocGenerator_opset12EPKcE3$_0NS_9allocatorIS5_EEFvRNS2_8OpSchemaEEE18destroy_deallocateEv', symObjAddr: 0x2EDC, symBinAddr: 0xC83CFC, symSize: 0x4 }
  - { offset: 0x31ADDD, size: 0x8, addend: 0x0, symName: '__ZNSt3__110__function6__funcIZN4onnxL31BinaryLogicDocGenerator_opset12EPKcE3$_0NS_9allocatorIS5_EEFvRNS2_8OpSchemaEEEclES9_', symObjAddr: 0x2EE0, symBinAddr: 0xC83D00, symSize: 0x2C4 }
  - { offset: 0x31BC8F, size: 0x8, addend: 0x0, symName: '__ZNSt3__110__function6__funcIZZN4onnxL31BinaryLogicDocGenerator_opset12EPKcENK3$_0clERNS2_8OpSchemaEEUlRNS2_16InferenceContextEE_NS_9allocatorISA_EEFvS9_EED1Ev', symObjAddr: 0x35EC, symBinAddr: 0xC84034, symSize: 0x4 }
  - { offset: 0x31BE67, size: 0x8, addend: 0x0, symName: '__ZNKSt3__110__function6__funcIZN4onnxL31BinaryLogicDocGenerator_opset12EPKcE3$_0NS_9allocatorIS5_EEFvRNS2_8OpSchemaEEE6targetERKSt9type_info', symObjAddr: 0x31A4, symBinAddr: 0xC83FC4, symSize: 0x64 }
  - { offset: 0x31BF1A, size: 0x8, addend: 0x0, symName: '__ZNKSt3__110__function6__funcIZN4onnxL31BinaryLogicDocGenerator_opset12EPKcE3$_0NS_9allocatorIS5_EEFvRNS2_8OpSchemaEEE11target_typeEv', symObjAddr: 0x3208, symBinAddr: 0xC84028, symSize: 0xC }
  - { offset: 0x31C19D, size: 0x8, addend: 0x0, symName: '__ZNSt3__110__function6__funcIZZN4onnxL31BinaryLogicDocGenerator_opset12EPKcENK3$_0clERNS2_8OpSchemaEEUlRNS2_16InferenceContextEE_NS_9allocatorISA_EEFvS9_EED1Ev', symObjAddr: 0x35EC, symBinAddr: 0xC84034, symSize: 0x4 }
  - { offset: 0x31C1C8, size: 0x8, addend: 0x0, symName: '__ZNSt3__110__function6__funcIZZN4onnxL31BinaryLogicDocGenerator_opset12EPKcENK3$_0clERNS2_8OpSchemaEEUlRNS2_16InferenceContextEE_NS_9allocatorISA_EEFvS9_EED0Ev', symObjAddr: 0x35F0, symBinAddr: 0xC84038, symSize: 0x4 }
  - { offset: 0x31C27D, size: 0x8, addend: 0x0, symName: '__ZNKSt3__110__function6__funcIZZN4onnxL31BinaryLogicDocGenerator_opset12EPKcENK3$_0clERNS2_8OpSchemaEEUlRNS2_16InferenceContextEE_NS_9allocatorISA_EEFvS9_EE7__cloneEv', symObjAddr: 0x35F4, symBinAddr: 0xC8403C, symSize: 0x24 }
  - { offset: 0x31C3C0, size: 0x8, addend: 0x0, symName: '__ZNKSt3__110__function6__funcIZZN4onnxL31BinaryLogicDocGenerator_opset12EPKcENK3$_0clERNS2_8OpSchemaEEUlRNS2_16InferenceContextEE_NS_9allocatorISA_EEFvS9_EE7__cloneEPNS0_6__baseISD_EE', symObjAddr: 0x3618, symBinAddr: 0xC84060, symSize: 0x10 }
  - { offset: 0x31C3F4, size: 0x8, addend: 0x0, symName: '__ZNKSt3__110__function6__funcIZZN4onnxL31BinaryLogicDocGenerator_opset12EPKcENK3$_0clERNS2_8OpSchemaEEUlRNS2_16InferenceContextEE_NS_9allocatorISA_EEFvS9_EE7__cloneEPNS0_6__baseISD_EE', symObjAddr: 0x3618, symBinAddr: 0xC84060, symSize: 0x10 }
  - { offset: 0x31C410, size: 0x8, addend: 0x0, symName: '__ZNKSt3__110__function6__funcIZZN4onnxL31BinaryLogicDocGenerator_opset12EPKcENK3$_0clERNS2_8OpSchemaEEUlRNS2_16InferenceContextEE_NS_9allocatorISA_EEFvS9_EE7__cloneEPNS0_6__baseISD_EE', symObjAddr: 0x3618, symBinAddr: 0xC84060, symSize: 0x10 }
  - { offset: 0x31C42C, size: 0x8, addend: 0x0, symName: '__ZNSt3__110__function6__funcIZZN4onnxL31BinaryLogicDocGenerator_opset12EPKcENK3$_0clERNS2_8OpSchemaEEUlRNS2_16InferenceContextEE_NS_9allocatorISA_EEFvS9_EE7destroyEv', symObjAddr: 0x3628, symBinAddr: 0xC84070, symSize: 0x4 }
  - { offset: 0x31C47B, size: 0x8, addend: 0x0, symName: '__ZNSt3__110__function6__funcIZZN4onnxL31BinaryLogicDocGenerator_opset12EPKcENK3$_0clERNS2_8OpSchemaEEUlRNS2_16InferenceContextEE_NS_9allocatorISA_EEFvS9_EE18destroy_deallocateEv', symObjAddr: 0x362C, symBinAddr: 0xC84074, symSize: 0x4 }
  - { offset: 0x31C4AE, size: 0x8, addend: 0x0, symName: '__ZNSt3__110__function6__funcIZZN4onnxL31BinaryLogicDocGenerator_opset12EPKcENK3$_0clERNS2_8OpSchemaEEUlRNS2_16InferenceContextEE_NS_9allocatorISA_EEFvS9_EE18destroy_deallocateEv', symObjAddr: 0x362C, symBinAddr: 0xC84074, symSize: 0x4 }
  - { offset: 0x31C4D0, size: 0x8, addend: 0x0, symName: '__ZNSt3__110__function6__funcIZZN4onnxL31BinaryLogicDocGenerator_opset12EPKcENK3$_0clERNS2_8OpSchemaEEUlRNS2_16InferenceContextEE_NS_9allocatorISA_EEFvS9_EE18destroy_deallocateEv', symObjAddr: 0x362C, symBinAddr: 0xC84074, symSize: 0x4 }
  - { offset: 0x31C4FB, size: 0x8, addend: 0x0, symName: '__ZNSt3__110__function6__funcIZZN4onnxL31BinaryLogicDocGenerator_opset12EPKcENK3$_0clERNS2_8OpSchemaEEUlRNS2_16InferenceContextEE_NS_9allocatorISA_EEFvS9_EE18destroy_deallocateEv', symObjAddr: 0x362C, symBinAddr: 0xC84074, symSize: 0x4 }
  - { offset: 0x31C521, size: 0x8, addend: 0x0, symName: '__ZNSt3__110__function6__funcIZZN4onnxL31BinaryLogicDocGenerator_opset12EPKcENK3$_0clERNS2_8OpSchemaEEUlRNS2_16InferenceContextEE_NS_9allocatorISA_EEFvS9_EE18destroy_deallocateEv', symObjAddr: 0x362C, symBinAddr: 0xC84074, symSize: 0x4 }
  - { offset: 0x31CA77, size: 0x8, addend: 0x0, symName: '__ZNSt3__110__function6__funcIZZN4onnxL31BinaryLogicDocGenerator_opset12EPKcENK3$_0clERNS2_8OpSchemaEEUlRNS2_16InferenceContextEE_NS_9allocatorISA_EEFvS9_EEclES9_', symObjAddr: 0x3630, symBinAddr: 0xC84078, symSize: 0x34C }
  - { offset: 0x31D774, size: 0x8, addend: 0x0, symName: '__ZNKSt3__110__function6__funcIZZN4onnxL31BinaryLogicDocGenerator_opset12EPKcENK3$_0clERNS2_8OpSchemaEEUlRNS2_16InferenceContextEE_NS_9allocatorISA_EEFvS9_EE6targetERKSt9type_info', symObjAddr: 0x397C, symBinAddr: 0xC843C4, symSize: 0x64 }
  - { offset: 0x31D827, size: 0x8, addend: 0x0, symName: '__ZNKSt3__110__function6__funcIZZN4onnxL31BinaryLogicDocGenerator_opset12EPKcENK3$_0clERNS2_8OpSchemaEEUlRNS2_16InferenceContextEE_NS_9allocatorISA_EEFvS9_EE11target_typeEv', symObjAddr: 0x39E0, symBinAddr: 0xC84428, symSize: 0xC }
  - { offset: 0x326865, size: 0x8, addend: 0x0, symName: '__ZNSt3__110__function6__funcIZN4onnxL30BinaryLogicDocGenerator_opset1EPKcE3$_0NS_9allocatorIS5_EEFvRNS2_8OpSchemaEEED1Ev', symObjAddr: 0x839C, symBinAddr: 0xC84434, symSize: 0x4 }
  - { offset: 0x326890, size: 0x8, addend: 0x0, symName: '__ZNSt3__110__function6__funcIZN4onnxL30BinaryLogicDocGenerator_opset1EPKcE3$_0NS_9allocatorIS5_EEFvRNS2_8OpSchemaEEED0Ev', symObjAddr: 0x83A0, symBinAddr: 0xC84438, symSize: 0x4 }
  - { offset: 0x326945, size: 0x8, addend: 0x0, symName: '__ZNKSt3__110__function6__funcIZN4onnxL30BinaryLogicDocGenerator_opset1EPKcE3$_0NS_9allocatorIS5_EEFvRNS2_8OpSchemaEEE7__cloneEv', symObjAddr: 0x83A4, symBinAddr: 0xC8443C, symSize: 0x34 }
  - { offset: 0x326A8C, size: 0x8, addend: 0x0, symName: '__ZNKSt3__110__function6__funcIZN4onnxL30BinaryLogicDocGenerator_opset1EPKcE3$_0NS_9allocatorIS5_EEFvRNS2_8OpSchemaEEE7__cloneEPNS0_6__baseISA_EE', symObjAddr: 0x83D8, symBinAddr: 0xC84470, symSize: 0x14 }
  - { offset: 0x326AFA, size: 0x8, addend: 0x0, symName: '__ZNSt3__110__function6__funcIZN4onnxL30BinaryLogicDocGenerator_opset1EPKcE3$_0NS_9allocatorIS5_EEFvRNS2_8OpSchemaEEE7destroyEv', symObjAddr: 0x83EC, symBinAddr: 0xC84484, symSize: 0x4 }
  - { offset: 0x326B49, size: 0x8, addend: 0x0, symName: '__ZNSt3__110__function6__funcIZN4onnxL30BinaryLogicDocGenerator_opset1EPKcE3$_0NS_9allocatorIS5_EEFvRNS2_8OpSchemaEEE18destroy_deallocateEv', symObjAddr: 0x83F0, symBinAddr: 0xC84488, symSize: 0x4 }
  - { offset: 0x326B7C, size: 0x8, addend: 0x0, symName: '__ZNSt3__110__function6__funcIZN4onnxL30BinaryLogicDocGenerator_opset1EPKcE3$_0NS_9allocatorIS5_EEFvRNS2_8OpSchemaEEE18destroy_deallocateEv', symObjAddr: 0x83F0, symBinAddr: 0xC84488, symSize: 0x4 }
  - { offset: 0x326B9E, size: 0x8, addend: 0x0, symName: '__ZNSt3__110__function6__funcIZN4onnxL30BinaryLogicDocGenerator_opset1EPKcE3$_0NS_9allocatorIS5_EEFvRNS2_8OpSchemaEEE18destroy_deallocateEv', symObjAddr: 0x83F0, symBinAddr: 0xC84488, symSize: 0x4 }
  - { offset: 0x326BC9, size: 0x8, addend: 0x0, symName: '__ZNSt3__110__function6__funcIZN4onnxL30BinaryLogicDocGenerator_opset1EPKcE3$_0NS_9allocatorIS5_EEFvRNS2_8OpSchemaEEE18destroy_deallocateEv', symObjAddr: 0x83F0, symBinAddr: 0xC84488, symSize: 0x4 }
  - { offset: 0x326BEF, size: 0x8, addend: 0x0, symName: '__ZNSt3__110__function6__funcIZN4onnxL30BinaryLogicDocGenerator_opset1EPKcE3$_0NS_9allocatorIS5_EEFvRNS2_8OpSchemaEEE18destroy_deallocateEv', symObjAddr: 0x83F0, symBinAddr: 0xC84488, symSize: 0x4 }
  - { offset: 0x326F91, size: 0x8, addend: 0x0, symName: '__ZNSt3__110__function6__funcIZN4onnxL30BinaryLogicDocGenerator_opset1EPKcE3$_0NS_9allocatorIS5_EEFvRNS2_8OpSchemaEEEclES9_', symObjAddr: 0x83F4, symBinAddr: 0xC8448C, symSize: 0x294 }
  - { offset: 0x3276D7, size: 0x8, addend: 0x0, symName: '__ZNKSt3__110__function6__funcIZN4onnxL30BinaryLogicDocGenerator_opset1EPKcE3$_0NS_9allocatorIS5_EEFvRNS2_8OpSchemaEEE6targetERKSt9type_info', symObjAddr: 0x8688, symBinAddr: 0xC84720, symSize: 0x64 }
  - { offset: 0x32778A, size: 0x8, addend: 0x0, symName: '__ZNKSt3__110__function6__funcIZN4onnxL30BinaryLogicDocGenerator_opset1EPKcE3$_0NS_9allocatorIS5_EEFvRNS2_8OpSchemaEEE11target_typeEv', symObjAddr: 0x86EC, symBinAddr: 0xC84784, symSize: 0xC }
  - { offset: 0x327848, size: 0x8, addend: 0x0, symName: '__ZNSt3__110__function6__funcIZN4onnxL30BinaryLogicDocGenerator_opset7EPKcE3$_0NS_9allocatorIS5_EEFvRNS2_8OpSchemaEEED1Ev', symObjAddr: 0x9080, symBinAddr: 0xC84898, symSize: 0x4 }
  - { offset: 0x327873, size: 0x8, addend: 0x0, symName: '__ZNSt3__110__function6__funcIZN4onnxL30BinaryLogicDocGenerator_opset7EPKcE3$_0NS_9allocatorIS5_EEFvRNS2_8OpSchemaEEED0Ev', symObjAddr: 0x9084, symBinAddr: 0xC8489C, symSize: 0x4 }
  - { offset: 0x327928, size: 0x8, addend: 0x0, symName: '__ZNKSt3__110__function6__funcIZN4onnxL30BinaryLogicDocGenerator_opset7EPKcE3$_0NS_9allocatorIS5_EEFvRNS2_8OpSchemaEEE7__cloneEv', symObjAddr: 0x9088, symBinAddr: 0xC848A0, symSize: 0x34 }
  - { offset: 0x327A6F, size: 0x8, addend: 0x0, symName: '__ZNKSt3__110__function6__funcIZN4onnxL30BinaryLogicDocGenerator_opset7EPKcE3$_0NS_9allocatorIS5_EEFvRNS2_8OpSchemaEEE7__cloneEPNS0_6__baseISA_EE', symObjAddr: 0x90BC, symBinAddr: 0xC848D4, symSize: 0x14 }
  - { offset: 0x327ADD, size: 0x8, addend: 0x0, symName: '__ZNSt3__110__function6__funcIZN4onnxL30BinaryLogicDocGenerator_opset7EPKcE3$_0NS_9allocatorIS5_EEFvRNS2_8OpSchemaEEE7destroyEv', symObjAddr: 0x90D0, symBinAddr: 0xC848E8, symSize: 0x4 }
  - { offset: 0x327B2C, size: 0x8, addend: 0x0, symName: '__ZNSt3__110__function6__funcIZN4onnxL30BinaryLogicDocGenerator_opset7EPKcE3$_0NS_9allocatorIS5_EEFvRNS2_8OpSchemaEEE18destroy_deallocateEv', symObjAddr: 0x90D4, symBinAddr: 0xC848EC, symSize: 0x4 }
  - { offset: 0x327B5F, size: 0x8, addend: 0x0, symName: '__ZNSt3__110__function6__funcIZN4onnxL30BinaryLogicDocGenerator_opset7EPKcE3$_0NS_9allocatorIS5_EEFvRNS2_8OpSchemaEEE18destroy_deallocateEv', symObjAddr: 0x90D4, symBinAddr: 0xC848EC, symSize: 0x4 }
  - { offset: 0x327B81, size: 0x8, addend: 0x0, symName: '__ZNSt3__110__function6__funcIZN4onnxL30BinaryLogicDocGenerator_opset7EPKcE3$_0NS_9allocatorIS5_EEFvRNS2_8OpSchemaEEE18destroy_deallocateEv', symObjAddr: 0x90D4, symBinAddr: 0xC848EC, symSize: 0x4 }
  - { offset: 0x327BAC, size: 0x8, addend: 0x0, symName: '__ZNSt3__110__function6__funcIZN4onnxL30BinaryLogicDocGenerator_opset7EPKcE3$_0NS_9allocatorIS5_EEFvRNS2_8OpSchemaEEE18destroy_deallocateEv', symObjAddr: 0x90D4, symBinAddr: 0xC848EC, symSize: 0x4 }
  - { offset: 0x327BD2, size: 0x8, addend: 0x0, symName: '__ZNSt3__110__function6__funcIZN4onnxL30BinaryLogicDocGenerator_opset7EPKcE3$_0NS_9allocatorIS5_EEFvRNS2_8OpSchemaEEE18destroy_deallocateEv', symObjAddr: 0x90D4, symBinAddr: 0xC848EC, symSize: 0x4 }
  - { offset: 0x327E30, size: 0x8, addend: 0x0, symName: '__ZNSt3__110__function6__funcIZN4onnxL30BinaryLogicDocGenerator_opset7EPKcE3$_0NS_9allocatorIS5_EEFvRNS2_8OpSchemaEEEclES9_', symObjAddr: 0x90D8, symBinAddr: 0xC848F0, symSize: 0x2C4 }
  - { offset: 0x3287F6, size: 0x8, addend: 0x0, symName: '__ZNKSt3__110__function6__funcIZN4onnxL30BinaryLogicDocGenerator_opset7EPKcE3$_0NS_9allocatorIS5_EEFvRNS2_8OpSchemaEEE6targetERKSt9type_info', symObjAddr: 0x939C, symBinAddr: 0xC84BB4, symSize: 0x64 }
  - { offset: 0x3288A9, size: 0x8, addend: 0x0, symName: '__ZNKSt3__110__function6__funcIZN4onnxL30BinaryLogicDocGenerator_opset7EPKcE3$_0NS_9allocatorIS5_EEFvRNS2_8OpSchemaEEE11target_typeEv', symObjAddr: 0x9400, symBinAddr: 0xC84C18, symSize: 0xC }
  - { offset: 0x3288CC, size: 0x8, addend: 0x0, symName: '__ZNSt3__110__function6__funcIZZN4onnxL30BinaryLogicDocGenerator_opset7EPKcENK3$_0clERNS2_8OpSchemaEEUlRNS2_16InferenceContextEE_NS_9allocatorISA_EEFvS9_EED1Ev', symObjAddr: 0x940C, symBinAddr: 0xC84C24, symSize: 0x4 }
  - { offset: 0x3288F7, size: 0x8, addend: 0x0, symName: '__ZNSt3__110__function6__funcIZZN4onnxL30BinaryLogicDocGenerator_opset7EPKcENK3$_0clERNS2_8OpSchemaEEUlRNS2_16InferenceContextEE_NS_9allocatorISA_EEFvS9_EED0Ev', symObjAddr: 0x9410, symBinAddr: 0xC84C28, symSize: 0x4 }
  - { offset: 0x3289AC, size: 0x8, addend: 0x0, symName: '__ZNKSt3__110__function6__funcIZZN4onnxL30BinaryLogicDocGenerator_opset7EPKcENK3$_0clERNS2_8OpSchemaEEUlRNS2_16InferenceContextEE_NS_9allocatorISA_EEFvS9_EE7__cloneEv', symObjAddr: 0x9414, symBinAddr: 0xC84C2C, symSize: 0x24 }
  - { offset: 0x328AEF, size: 0x8, addend: 0x0, symName: '__ZNKSt3__110__function6__funcIZZN4onnxL30BinaryLogicDocGenerator_opset7EPKcENK3$_0clERNS2_8OpSchemaEEUlRNS2_16InferenceContextEE_NS_9allocatorISA_EEFvS9_EE7__cloneEPNS0_6__baseISD_EE', symObjAddr: 0x9438, symBinAddr: 0xC84C50, symSize: 0x10 }
  - { offset: 0x328B23, size: 0x8, addend: 0x0, symName: '__ZNKSt3__110__function6__funcIZZN4onnxL30BinaryLogicDocGenerator_opset7EPKcENK3$_0clERNS2_8OpSchemaEEUlRNS2_16InferenceContextEE_NS_9allocatorISA_EEFvS9_EE7__cloneEPNS0_6__baseISD_EE', symObjAddr: 0x9438, symBinAddr: 0xC84C50, symSize: 0x10 }
  - { offset: 0x328B3F, size: 0x8, addend: 0x0, symName: '__ZNKSt3__110__function6__funcIZZN4onnxL30BinaryLogicDocGenerator_opset7EPKcENK3$_0clERNS2_8OpSchemaEEUlRNS2_16InferenceContextEE_NS_9allocatorISA_EEFvS9_EE7__cloneEPNS0_6__baseISD_EE', symObjAddr: 0x9438, symBinAddr: 0xC84C50, symSize: 0x10 }
  - { offset: 0x328B5B, size: 0x8, addend: 0x0, symName: '__ZNSt3__110__function6__funcIZZN4onnxL30BinaryLogicDocGenerator_opset7EPKcENK3$_0clERNS2_8OpSchemaEEUlRNS2_16InferenceContextEE_NS_9allocatorISA_EEFvS9_EE7destroyEv', symObjAddr: 0x9448, symBinAddr: 0xC84C60, symSize: 0x4 }
  - { offset: 0x328BAA, size: 0x8, addend: 0x0, symName: '__ZNSt3__110__function6__funcIZZN4onnxL30BinaryLogicDocGenerator_opset7EPKcENK3$_0clERNS2_8OpSchemaEEUlRNS2_16InferenceContextEE_NS_9allocatorISA_EEFvS9_EE18destroy_deallocateEv', symObjAddr: 0x944C, symBinAddr: 0xC84C64, symSize: 0x4 }
  - { offset: 0x328BDD, size: 0x8, addend: 0x0, symName: '__ZNSt3__110__function6__funcIZZN4onnxL30BinaryLogicDocGenerator_opset7EPKcENK3$_0clERNS2_8OpSchemaEEUlRNS2_16InferenceContextEE_NS_9allocatorISA_EEFvS9_EE18destroy_deallocateEv', symObjAddr: 0x944C, symBinAddr: 0xC84C64, symSize: 0x4 }
  - { offset: 0x328BFF, size: 0x8, addend: 0x0, symName: '__ZNSt3__110__function6__funcIZZN4onnxL30BinaryLogicDocGenerator_opset7EPKcENK3$_0clERNS2_8OpSchemaEEUlRNS2_16InferenceContextEE_NS_9allocatorISA_EEFvS9_EE18destroy_deallocateEv', symObjAddr: 0x944C, symBinAddr: 0xC84C64, symSize: 0x4 }
  - { offset: 0x328C2A, size: 0x8, addend: 0x0, symName: '__ZNSt3__110__function6__funcIZZN4onnxL30BinaryLogicDocGenerator_opset7EPKcENK3$_0clERNS2_8OpSchemaEEUlRNS2_16InferenceContextEE_NS_9allocatorISA_EEFvS9_EE18destroy_deallocateEv', symObjAddr: 0x944C, symBinAddr: 0xC84C64, symSize: 0x4 }
  - { offset: 0x328C50, size: 0x8, addend: 0x0, symName: '__ZNSt3__110__function6__funcIZZN4onnxL30BinaryLogicDocGenerator_opset7EPKcENK3$_0clERNS2_8OpSchemaEEUlRNS2_16InferenceContextEE_NS_9allocatorISA_EEFvS9_EE18destroy_deallocateEv', symObjAddr: 0x944C, symBinAddr: 0xC84C64, symSize: 0x4 }
  - { offset: 0x328CF9, size: 0x8, addend: 0x0, symName: '__ZNSt3__110__function6__funcIZZN4onnxL30BinaryLogicDocGenerator_opset7EPKcENK3$_0clERNS2_8OpSchemaEEUlRNS2_16InferenceContextEE_NS_9allocatorISA_EEFvS9_EEclES9_', symObjAddr: 0x9450, symBinAddr: 0xC84C68, symSize: 0x34C }
  - { offset: 0x3299F6, size: 0x8, addend: 0x0, symName: '__ZNKSt3__110__function6__funcIZZN4onnxL30BinaryLogicDocGenerator_opset7EPKcENK3$_0clERNS2_8OpSchemaEEUlRNS2_16InferenceContextEE_NS_9allocatorISA_EEFvS9_EE6targetERKSt9type_info', symObjAddr: 0x979C, symBinAddr: 0xC84FB4, symSize: 0x64 }
  - { offset: 0x329AA9, size: 0x8, addend: 0x0, symName: '__ZNKSt3__110__function6__funcIZZN4onnxL30BinaryLogicDocGenerator_opset7EPKcENK3$_0clERNS2_8OpSchemaEEUlRNS2_16InferenceContextEE_NS_9allocatorISA_EEFvS9_EE11target_typeEv', symObjAddr: 0x9800, symBinAddr: 0xC85018, symSize: 0xC }
  - { offset: 0x336FD6, size: 0x8, addend: 0x0, symName: __ZN4onnx11GetOpSchemaINS_19RoiAlign_Onnx_ver22EEENS_8OpSchemaEv, symObjAddr: 0x0, symBinAddr: 0xD08C90, symSize: 0x610 }
  - { offset: 0x338AD1, size: 0x8, addend: 0x0, symName: __ZN4onnx11GetOpSchemaINS_28NonMaxSuppression_Onnx_ver11EEENS_8OpSchemaEv, symObjAddr: 0x808, symBinAddr: 0xD092A0, symSize: 0x358 }
  - { offset: 0x36F7CC, size: 0x8, addend: 0x0, symName: '__ZNSt3__110__function6__funcIZN4onnx11GetOpSchemaINS2_19RoiAlign_Onnx_ver22EEENS2_8OpSchemaEvE3$_0NS_9allocatorIS6_EEFvRNS2_16InferenceContextEEED1Ev', symObjAddr: 0x4910, symBinAddr: 0xD095F8, symSize: 0x4 }
  - { offset: 0x36F7F7, size: 0x8, addend: 0x0, symName: '__ZNSt3__110__function6__funcIZN4onnx11GetOpSchemaINS2_19RoiAlign_Onnx_ver22EEENS2_8OpSchemaEvE3$_0NS_9allocatorIS6_EEFvRNS2_16InferenceContextEEED0Ev', symObjAddr: 0x4914, symBinAddr: 0xD095FC, symSize: 0x4 }
  - { offset: 0x36F8AC, size: 0x8, addend: 0x0, symName: '__ZNKSt3__110__function6__funcIZN4onnx11GetOpSchemaINS2_19RoiAlign_Onnx_ver22EEENS2_8OpSchemaEvE3$_0NS_9allocatorIS6_EEFvRNS2_16InferenceContextEEE7__cloneEv', symObjAddr: 0x4918, symBinAddr: 0xD09600, symSize: 0x24 }
  - { offset: 0x36F9EF, size: 0x8, addend: 0x0, symName: '__ZNKSt3__110__function6__funcIZN4onnx11GetOpSchemaINS2_19RoiAlign_Onnx_ver22EEENS2_8OpSchemaEvE3$_0NS_9allocatorIS6_EEFvRNS2_16InferenceContextEEE7__cloneEPNS0_6__baseISB_EE', symObjAddr: 0x493C, symBinAddr: 0xD09624, symSize: 0x10 }
  - { offset: 0x36FA23, size: 0x8, addend: 0x0, symName: '__ZNKSt3__110__function6__funcIZN4onnx11GetOpSchemaINS2_19RoiAlign_Onnx_ver22EEENS2_8OpSchemaEvE3$_0NS_9allocatorIS6_EEFvRNS2_16InferenceContextEEE7__cloneEPNS0_6__baseISB_EE', symObjAddr: 0x493C, symBinAddr: 0xD09624, symSize: 0x10 }
  - { offset: 0x36FA3F, size: 0x8, addend: 0x0, symName: '__ZNKSt3__110__function6__funcIZN4onnx11GetOpSchemaINS2_19RoiAlign_Onnx_ver22EEENS2_8OpSchemaEvE3$_0NS_9allocatorIS6_EEFvRNS2_16InferenceContextEEE7__cloneEPNS0_6__baseISB_EE', symObjAddr: 0x493C, symBinAddr: 0xD09624, symSize: 0x10 }
  - { offset: 0x36FA5B, size: 0x8, addend: 0x0, symName: '__ZNSt3__110__function6__funcIZN4onnx11GetOpSchemaINS2_19RoiAlign_Onnx_ver22EEENS2_8OpSchemaEvE3$_0NS_9allocatorIS6_EEFvRNS2_16InferenceContextEEE7destroyEv', symObjAddr: 0x494C, symBinAddr: 0xD09634, symSize: 0x4 }
  - { offset: 0x36FAAA, size: 0x8, addend: 0x0, symName: '__ZNSt3__110__function6__funcIZN4onnx11GetOpSchemaINS2_19RoiAlign_Onnx_ver22EEENS2_8OpSchemaEvE3$_0NS_9allocatorIS6_EEFvRNS2_16InferenceContextEEE18destroy_deallocateEv', symObjAddr: 0x4950, symBinAddr: 0xD09638, symSize: 0x4 }
  - { offset: 0x36FADD, size: 0x8, addend: 0x0, symName: '__ZNSt3__110__function6__funcIZN4onnx11GetOpSchemaINS2_19RoiAlign_Onnx_ver22EEENS2_8OpSchemaEvE3$_0NS_9allocatorIS6_EEFvRNS2_16InferenceContextEEE18destroy_deallocateEv', symObjAddr: 0x4950, symBinAddr: 0xD09638, symSize: 0x4 }
  - { offset: 0x36FAFF, size: 0x8, addend: 0x0, symName: '__ZNSt3__110__function6__funcIZN4onnx11GetOpSchemaINS2_19RoiAlign_Onnx_ver22EEENS2_8OpSchemaEvE3$_0NS_9allocatorIS6_EEFvRNS2_16InferenceContextEEE18destroy_deallocateEv', symObjAddr: 0x4950, symBinAddr: 0xD09638, symSize: 0x4 }
  - { offset: 0x36FB2A, size: 0x8, addend: 0x0, symName: '__ZNSt3__110__function6__funcIZN4onnx11GetOpSchemaINS2_19RoiAlign_Onnx_ver22EEENS2_8OpSchemaEvE3$_0NS_9allocatorIS6_EEFvRNS2_16InferenceContextEEE18destroy_deallocateEv', symObjAddr: 0x4950, symBinAddr: 0xD09638, symSize: 0x4 }
  - { offset: 0x36FB50, size: 0x8, addend: 0x0, symName: '__ZNSt3__110__function6__funcIZN4onnx11GetOpSchemaINS2_19RoiAlign_Onnx_ver22EEENS2_8OpSchemaEvE3$_0NS_9allocatorIS6_EEFvRNS2_16InferenceContextEEE18destroy_deallocateEv', symObjAddr: 0x4950, symBinAddr: 0xD09638, symSize: 0x4 }
  - { offset: 0x36FD82, size: 0x8, addend: 0x0, symName: '__ZNSt3__110__function6__funcIZN4onnx11GetOpSchemaINS2_19RoiAlign_Onnx_ver22EEENS2_8OpSchemaEvE3$_0NS_9allocatorIS6_EEFvRNS2_16InferenceContextEEEclESA_', symObjAddr: 0x4954, symBinAddr: 0xD0963C, symSize: 0x488 }
  - { offset: 0x3707D6, size: 0x8, addend: 0x0, symName: '__ZNKSt3__110__function6__funcIZN4onnx11GetOpSchemaINS2_19RoiAlign_Onnx_ver22EEENS2_8OpSchemaEvE3$_0NS_9allocatorIS6_EEFvRNS2_16InferenceContextEEE6targetERKSt9type_info', symObjAddr: 0x4DDC, symBinAddr: 0xD09AC4, symSize: 0x64 }
  - { offset: 0x370889, size: 0x8, addend: 0x0, symName: '__ZNKSt3__110__function6__funcIZN4onnx11GetOpSchemaINS2_19RoiAlign_Onnx_ver22EEENS2_8OpSchemaEvE3$_0NS_9allocatorIS6_EEFvRNS2_16InferenceContextEEE11target_typeEv', symObjAddr: 0x4E40, symBinAddr: 0xD09B28, symSize: 0xC }
  - { offset: 0x371856, size: 0x8, addend: 0x0, symName: '__ZNSt3__110__function6__funcIZN4onnx11GetOpSchemaINS2_28NonMaxSuppression_Onnx_ver11EEENS2_8OpSchemaEvE3$_0NS_9allocatorIS6_EEFvRNS2_16InferenceContextEEED1Ev', symObjAddr: 0x7574, symBinAddr: 0xD09B34, symSize: 0x4 }
  - { offset: 0x371881, size: 0x8, addend: 0x0, symName: '__ZNSt3__110__function6__funcIZN4onnx11GetOpSchemaINS2_28NonMaxSuppression_Onnx_ver11EEENS2_8OpSchemaEvE3$_0NS_9allocatorIS6_EEFvRNS2_16InferenceContextEEED0Ev', symObjAddr: 0x7578, symBinAddr: 0xD09B38, symSize: 0x4 }
  - { offset: 0x371936, size: 0x8, addend: 0x0, symName: '__ZNKSt3__110__function6__funcIZN4onnx11GetOpSchemaINS2_28NonMaxSuppression_Onnx_ver11EEENS2_8OpSchemaEvE3$_0NS_9allocatorIS6_EEFvRNS2_16InferenceContextEEE7__cloneEv', symObjAddr: 0x757C, symBinAddr: 0xD09B3C, symSize: 0x24 }
  - { offset: 0x371A79, size: 0x8, addend: 0x0, symName: '__ZNKSt3__110__function6__funcIZN4onnx11GetOpSchemaINS2_28NonMaxSuppression_Onnx_ver11EEENS2_8OpSchemaEvE3$_0NS_9allocatorIS6_EEFvRNS2_16InferenceContextEEE7__cloneEPNS0_6__baseISB_EE', symObjAddr: 0x75A0, symBinAddr: 0xD09B60, symSize: 0x10 }
  - { offset: 0x371AAD, size: 0x8, addend: 0x0, symName: '__ZNKSt3__110__function6__funcIZN4onnx11GetOpSchemaINS2_28NonMaxSuppression_Onnx_ver11EEENS2_8OpSchemaEvE3$_0NS_9allocatorIS6_EEFvRNS2_16InferenceContextEEE7__cloneEPNS0_6__baseISB_EE', symObjAddr: 0x75A0, symBinAddr: 0xD09B60, symSize: 0x10 }
  - { offset: 0x371AC9, size: 0x8, addend: 0x0, symName: '__ZNKSt3__110__function6__funcIZN4onnx11GetOpSchemaINS2_28NonMaxSuppression_Onnx_ver11EEENS2_8OpSchemaEvE3$_0NS_9allocatorIS6_EEFvRNS2_16InferenceContextEEE7__cloneEPNS0_6__baseISB_EE', symObjAddr: 0x75A0, symBinAddr: 0xD09B60, symSize: 0x10 }
  - { offset: 0x371AE5, size: 0x8, addend: 0x0, symName: '__ZNSt3__110__function6__funcIZN4onnx11GetOpSchemaINS2_28NonMaxSuppression_Onnx_ver11EEENS2_8OpSchemaEvE3$_0NS_9allocatorIS6_EEFvRNS2_16InferenceContextEEE7destroyEv', symObjAddr: 0x75B0, symBinAddr: 0xD09B70, symSize: 0x4 }
  - { offset: 0x371B34, size: 0x8, addend: 0x0, symName: '__ZNSt3__110__function6__funcIZN4onnx11GetOpSchemaINS2_28NonMaxSuppression_Onnx_ver11EEENS2_8OpSchemaEvE3$_0NS_9allocatorIS6_EEFvRNS2_16InferenceContextEEE18destroy_deallocateEv', symObjAddr: 0x75B4, symBinAddr: 0xD09B74, symSize: 0x4 }
  - { offset: 0x371B67, size: 0x8, addend: 0x0, symName: '__ZNSt3__110__function6__funcIZN4onnx11GetOpSchemaINS2_28NonMaxSuppression_Onnx_ver11EEENS2_8OpSchemaEvE3$_0NS_9allocatorIS6_EEFvRNS2_16InferenceContextEEE18destroy_deallocateEv', symObjAddr: 0x75B4, symBinAddr: 0xD09B74, symSize: 0x4 }
  - { offset: 0x371B89, size: 0x8, addend: 0x0, symName: '__ZNSt3__110__function6__funcIZN4onnx11GetOpSchemaINS2_28NonMaxSuppression_Onnx_ver11EEENS2_8OpSchemaEvE3$_0NS_9allocatorIS6_EEFvRNS2_16InferenceContextEEE18destroy_deallocateEv', symObjAddr: 0x75B4, symBinAddr: 0xD09B74, symSize: 0x4 }
  - { offset: 0x371BB4, size: 0x8, addend: 0x0, symName: '__ZNSt3__110__function6__funcIZN4onnx11GetOpSchemaINS2_28NonMaxSuppression_Onnx_ver11EEENS2_8OpSchemaEvE3$_0NS_9allocatorIS6_EEFvRNS2_16InferenceContextEEE18destroy_deallocateEv', symObjAddr: 0x75B4, symBinAddr: 0xD09B74, symSize: 0x4 }
  - { offset: 0x371BDA, size: 0x8, addend: 0x0, symName: '__ZNSt3__110__function6__funcIZN4onnx11GetOpSchemaINS2_28NonMaxSuppression_Onnx_ver11EEENS2_8OpSchemaEvE3$_0NS_9allocatorIS6_EEFvRNS2_16InferenceContextEEE18destroy_deallocateEv', symObjAddr: 0x75B4, symBinAddr: 0xD09B74, symSize: 0x4 }
  - { offset: 0x371D6A, size: 0x8, addend: 0x0, symName: '__ZNSt3__110__function6__funcIZN4onnx11GetOpSchemaINS2_28NonMaxSuppression_Onnx_ver11EEENS2_8OpSchemaEvE3$_0NS_9allocatorIS6_EEFvRNS2_16InferenceContextEEEclESA_', symObjAddr: 0x75B8, symBinAddr: 0xD09B78, symSize: 0x17C }
  - { offset: 0x372222, size: 0x8, addend: 0x0, symName: '__ZNKSt3__110__function6__funcIZN4onnx11GetOpSchemaINS2_28NonMaxSuppression_Onnx_ver11EEENS2_8OpSchemaEvE3$_0NS_9allocatorIS6_EEFvRNS2_16InferenceContextEEE6targetERKSt9type_info', symObjAddr: 0x7734, symBinAddr: 0xD09CF4, symSize: 0x64 }
  - { offset: 0x3722D5, size: 0x8, addend: 0x0, symName: '__ZNKSt3__110__function6__funcIZN4onnx11GetOpSchemaINS2_28NonMaxSuppression_Onnx_ver11EEENS2_8OpSchemaEvE3$_0NS_9allocatorIS6_EEFvRNS2_16InferenceContextEEE11target_typeEv', symObjAddr: 0x7798, symBinAddr: 0xD09D58, symSize: 0xC }
  - { offset: 0x37F614, size: 0x8, addend: 0x0, symName: __ZN4onnx11GetOpSchemaINS_19RoiAlign_Onnx_ver16EEENS_8OpSchemaEv, symObjAddr: 0x0, symBinAddr: 0xD09D64, symSize: 0x520 }
  - { offset: 0x38067E, size: 0x8, addend: 0x0, symName: __ZN4onnx11GetOpSchemaINS_19RoiAlign_Onnx_ver10EEENS_8OpSchemaEv, symObjAddr: 0x6A8, symBinAddr: 0xD0A284, symSize: 0x49C }
  - { offset: 0x38133A, size: 0x8, addend: 0x0, symName: __ZN4onnx11GetOpSchemaINS_28NonMaxSuppression_Onnx_ver10EEENS_8OpSchemaEv, symObjAddr: 0xB44, symBinAddr: 0xD0A720, symSize: 0x358 }
  - { offset: 0x3B8E1E, size: 0x8, addend: 0x0, symName: '__ZNSt3__110__function6__funcIZN4onnx11GetOpSchemaINS2_19RoiAlign_Onnx_ver16EEENS2_8OpSchemaEvE3$_0NS_9allocatorIS6_EEFvRNS2_16InferenceContextEEED1Ev', symObjAddr: 0x4CBC, symBinAddr: 0xD0AA78, symSize: 0x4 }
  - { offset: 0x3B8E49, size: 0x8, addend: 0x0, symName: '__ZNSt3__110__function6__funcIZN4onnx11GetOpSchemaINS2_19RoiAlign_Onnx_ver16EEENS2_8OpSchemaEvE3$_0NS_9allocatorIS6_EEFvRNS2_16InferenceContextEEED0Ev', symObjAddr: 0x4CC0, symBinAddr: 0xD0AA7C, symSize: 0x4 }
  - { offset: 0x3B8EFE, size: 0x8, addend: 0x0, symName: '__ZNKSt3__110__function6__funcIZN4onnx11GetOpSchemaINS2_19RoiAlign_Onnx_ver16EEENS2_8OpSchemaEvE3$_0NS_9allocatorIS6_EEFvRNS2_16InferenceContextEEE7__cloneEv', symObjAddr: 0x4CC4, symBinAddr: 0xD0AA80, symSize: 0x24 }
  - { offset: 0x3B9041, size: 0x8, addend: 0x0, symName: '__ZNKSt3__110__function6__funcIZN4onnx11GetOpSchemaINS2_19RoiAlign_Onnx_ver16EEENS2_8OpSchemaEvE3$_0NS_9allocatorIS6_EEFvRNS2_16InferenceContextEEE7__cloneEPNS0_6__baseISB_EE', symObjAddr: 0x4CE8, symBinAddr: 0xD0AAA4, symSize: 0x10 }
  - { offset: 0x3B9075, size: 0x8, addend: 0x0, symName: '__ZNKSt3__110__function6__funcIZN4onnx11GetOpSchemaINS2_19RoiAlign_Onnx_ver16EEENS2_8OpSchemaEvE3$_0NS_9allocatorIS6_EEFvRNS2_16InferenceContextEEE7__cloneEPNS0_6__baseISB_EE', symObjAddr: 0x4CE8, symBinAddr: 0xD0AAA4, symSize: 0x10 }
  - { offset: 0x3B9091, size: 0x8, addend: 0x0, symName: '__ZNKSt3__110__function6__funcIZN4onnx11GetOpSchemaINS2_19RoiAlign_Onnx_ver16EEENS2_8OpSchemaEvE3$_0NS_9allocatorIS6_EEFvRNS2_16InferenceContextEEE7__cloneEPNS0_6__baseISB_EE', symObjAddr: 0x4CE8, symBinAddr: 0xD0AAA4, symSize: 0x10 }
  - { offset: 0x3B90AD, size: 0x8, addend: 0x0, symName: '__ZNSt3__110__function6__funcIZN4onnx11GetOpSchemaINS2_19RoiAlign_Onnx_ver16EEENS2_8OpSchemaEvE3$_0NS_9allocatorIS6_EEFvRNS2_16InferenceContextEEE7destroyEv', symObjAddr: 0x4CF8, symBinAddr: 0xD0AAB4, symSize: 0x4 }
  - { offset: 0x3B90FC, size: 0x8, addend: 0x0, symName: '__ZNSt3__110__function6__funcIZN4onnx11GetOpSchemaINS2_19RoiAlign_Onnx_ver16EEENS2_8OpSchemaEvE3$_0NS_9allocatorIS6_EEFvRNS2_16InferenceContextEEE18destroy_deallocateEv', symObjAddr: 0x4CFC, symBinAddr: 0xD0AAB8, symSize: 0x4 }
  - { offset: 0x3B912F, size: 0x8, addend: 0x0, symName: '__ZNSt3__110__function6__funcIZN4onnx11GetOpSchemaINS2_19RoiAlign_Onnx_ver16EEENS2_8OpSchemaEvE3$_0NS_9allocatorIS6_EEFvRNS2_16InferenceContextEEE18destroy_deallocateEv', symObjAddr: 0x4CFC, symBinAddr: 0xD0AAB8, symSize: 0x4 }
  - { offset: 0x3B9151, size: 0x8, addend: 0x0, symName: '__ZNSt3__110__function6__funcIZN4onnx11GetOpSchemaINS2_19RoiAlign_Onnx_ver16EEENS2_8OpSchemaEvE3$_0NS_9allocatorIS6_EEFvRNS2_16InferenceContextEEE18destroy_deallocateEv', symObjAddr: 0x4CFC, symBinAddr: 0xD0AAB8, symSize: 0x4 }
  - { offset: 0x3B917C, size: 0x8, addend: 0x0, symName: '__ZNSt3__110__function6__funcIZN4onnx11GetOpSchemaINS2_19RoiAlign_Onnx_ver16EEENS2_8OpSchemaEvE3$_0NS_9allocatorIS6_EEFvRNS2_16InferenceContextEEE18destroy_deallocateEv', symObjAddr: 0x4CFC, symBinAddr: 0xD0AAB8, symSize: 0x4 }
  - { offset: 0x3B91A2, size: 0x8, addend: 0x0, symName: '__ZNSt3__110__function6__funcIZN4onnx11GetOpSchemaINS2_19RoiAlign_Onnx_ver16EEENS2_8OpSchemaEvE3$_0NS_9allocatorIS6_EEFvRNS2_16InferenceContextEEE18destroy_deallocateEv', symObjAddr: 0x4CFC, symBinAddr: 0xD0AAB8, symSize: 0x4 }
  - { offset: 0x3B93D4, size: 0x8, addend: 0x0, symName: '__ZNSt3__110__function6__funcIZN4onnx11GetOpSchemaINS2_19RoiAlign_Onnx_ver16EEENS2_8OpSchemaEvE3$_0NS_9allocatorIS6_EEFvRNS2_16InferenceContextEEEclESA_', symObjAddr: 0x4D00, symBinAddr: 0xD0AABC, symSize: 0x488 }
  - { offset: 0x3B9E28, size: 0x8, addend: 0x0, symName: '__ZNKSt3__110__function6__funcIZN4onnx11GetOpSchemaINS2_19RoiAlign_Onnx_ver16EEENS2_8OpSchemaEvE3$_0NS_9allocatorIS6_EEFvRNS2_16InferenceContextEEE6targetERKSt9type_info', symObjAddr: 0x5188, symBinAddr: 0xD0AF44, symSize: 0x64 }
  - { offset: 0x3B9EDB, size: 0x8, addend: 0x0, symName: '__ZNKSt3__110__function6__funcIZN4onnx11GetOpSchemaINS2_19RoiAlign_Onnx_ver16EEENS2_8OpSchemaEvE3$_0NS_9allocatorIS6_EEFvRNS2_16InferenceContextEEE11target_typeEv', symObjAddr: 0x51EC, symBinAddr: 0xD0AFA8, symSize: 0xC }
  - { offset: 0x3BAEA8, size: 0x8, addend: 0x0, symName: '__ZNSt3__110__function6__funcIZN4onnx11GetOpSchemaINS2_19RoiAlign_Onnx_ver10EEENS2_8OpSchemaEvE3$_0NS_9allocatorIS6_EEFvRNS2_16InferenceContextEEED1Ev', symObjAddr: 0x7920, symBinAddr: 0xD0AFB4, symSize: 0x4 }
  - { offset: 0x3BAED3, size: 0x8, addend: 0x0, symName: '__ZNSt3__110__function6__funcIZN4onnx11GetOpSchemaINS2_19RoiAlign_Onnx_ver10EEENS2_8OpSchemaEvE3$_0NS_9allocatorIS6_EEFvRNS2_16InferenceContextEEED0Ev', symObjAddr: 0x7924, symBinAddr: 0xD0AFB8, symSize: 0x4 }
  - { offset: 0x3BAF88, size: 0x8, addend: 0x0, symName: '__ZNKSt3__110__function6__funcIZN4onnx11GetOpSchemaINS2_19RoiAlign_Onnx_ver10EEENS2_8OpSchemaEvE3$_0NS_9allocatorIS6_EEFvRNS2_16InferenceContextEEE7__cloneEv', symObjAddr: 0x7928, symBinAddr: 0xD0AFBC, symSize: 0x24 }
  - { offset: 0x3BB0CB, size: 0x8, addend: 0x0, symName: '__ZNKSt3__110__function6__funcIZN4onnx11GetOpSchemaINS2_19RoiAlign_Onnx_ver10EEENS2_8OpSchemaEvE3$_0NS_9allocatorIS6_EEFvRNS2_16InferenceContextEEE7__cloneEPNS0_6__baseISB_EE', symObjAddr: 0x794C, symBinAddr: 0xD0AFE0, symSize: 0x10 }
  - { offset: 0x3BB0FF, size: 0x8, addend: 0x0, symName: '__ZNKSt3__110__function6__funcIZN4onnx11GetOpSchemaINS2_19RoiAlign_Onnx_ver10EEENS2_8OpSchemaEvE3$_0NS_9allocatorIS6_EEFvRNS2_16InferenceContextEEE7__cloneEPNS0_6__baseISB_EE', symObjAddr: 0x794C, symBinAddr: 0xD0AFE0, symSize: 0x10 }
  - { offset: 0x3BB11B, size: 0x8, addend: 0x0, symName: '__ZNKSt3__110__function6__funcIZN4onnx11GetOpSchemaINS2_19RoiAlign_Onnx_ver10EEENS2_8OpSchemaEvE3$_0NS_9allocatorIS6_EEFvRNS2_16InferenceContextEEE7__cloneEPNS0_6__baseISB_EE', symObjAddr: 0x794C, symBinAddr: 0xD0AFE0, symSize: 0x10 }
  - { offset: 0x3BB137, size: 0x8, addend: 0x0, symName: '__ZNSt3__110__function6__funcIZN4onnx11GetOpSchemaINS2_19RoiAlign_Onnx_ver10EEENS2_8OpSchemaEvE3$_0NS_9allocatorIS6_EEFvRNS2_16InferenceContextEEE7destroyEv', symObjAddr: 0x795C, symBinAddr: 0xD0AFF0, symSize: 0x4 }
  - { offset: 0x3BB186, size: 0x8, addend: 0x0, symName: '__ZNSt3__110__function6__funcIZN4onnx11GetOpSchemaINS2_19RoiAlign_Onnx_ver10EEENS2_8OpSchemaEvE3$_0NS_9allocatorIS6_EEFvRNS2_16InferenceContextEEE18destroy_deallocateEv', symObjAddr: 0x7960, symBinAddr: 0xD0AFF4, symSize: 0x4 }
  - { offset: 0x3BB1B9, size: 0x8, addend: 0x0, symName: '__ZNSt3__110__function6__funcIZN4onnx11GetOpSchemaINS2_19RoiAlign_Onnx_ver10EEENS2_8OpSchemaEvE3$_0NS_9allocatorIS6_EEFvRNS2_16InferenceContextEEE18destroy_deallocateEv', symObjAddr: 0x7960, symBinAddr: 0xD0AFF4, symSize: 0x4 }
  - { offset: 0x3BB1DB, size: 0x8, addend: 0x0, symName: '__ZNSt3__110__function6__funcIZN4onnx11GetOpSchemaINS2_19RoiAlign_Onnx_ver10EEENS2_8OpSchemaEvE3$_0NS_9allocatorIS6_EEFvRNS2_16InferenceContextEEE18destroy_deallocateEv', symObjAddr: 0x7960, symBinAddr: 0xD0AFF4, symSize: 0x4 }
  - { offset: 0x3BB206, size: 0x8, addend: 0x0, symName: '__ZNSt3__110__function6__funcIZN4onnx11GetOpSchemaINS2_19RoiAlign_Onnx_ver10EEENS2_8OpSchemaEvE3$_0NS_9allocatorIS6_EEFvRNS2_16InferenceContextEEE18destroy_deallocateEv', symObjAddr: 0x7960, symBinAddr: 0xD0AFF4, symSize: 0x4 }
  - { offset: 0x3BB22C, size: 0x8, addend: 0x0, symName: '__ZNSt3__110__function6__funcIZN4onnx11GetOpSchemaINS2_19RoiAlign_Onnx_ver10EEENS2_8OpSchemaEvE3$_0NS_9allocatorIS6_EEFvRNS2_16InferenceContextEEE18destroy_deallocateEv', symObjAddr: 0x7960, symBinAddr: 0xD0AFF4, symSize: 0x4 }
  - { offset: 0x3BB322, size: 0x8, addend: 0x0, symName: '__ZNSt3__110__function6__funcIZN4onnx11GetOpSchemaINS2_19RoiAlign_Onnx_ver10EEENS2_8OpSchemaEvE3$_0NS_9allocatorIS6_EEFvRNS2_16InferenceContextEEEclESA_', symObjAddr: 0x7964, symBinAddr: 0xD0AFF8, symSize: 0x488 }
  - { offset: 0x3BBD76, size: 0x8, addend: 0x0, symName: '__ZNKSt3__110__function6__funcIZN4onnx11GetOpSchemaINS2_19RoiAlign_Onnx_ver10EEENS2_8OpSchemaEvE3$_0NS_9allocatorIS6_EEFvRNS2_16InferenceContextEEE6targetERKSt9type_info', symObjAddr: 0x7DEC, symBinAddr: 0xD0B480, symSize: 0x64 }
  - { offset: 0x3BBE29, size: 0x8, addend: 0x0, symName: '__ZNKSt3__110__function6__funcIZN4onnx11GetOpSchemaINS2_19RoiAlign_Onnx_ver10EEENS2_8OpSchemaEvE3$_0NS_9allocatorIS6_EEFvRNS2_16InferenceContextEEE11target_typeEv', symObjAddr: 0x7E50, symBinAddr: 0xD0B4E4, symSize: 0xC }
  - { offset: 0x3BBE4C, size: 0x8, addend: 0x0, symName: '__ZNSt3__110__function6__funcIZN4onnx11GetOpSchemaINS2_28NonMaxSuppression_Onnx_ver10EEENS2_8OpSchemaEvE3$_0NS_9allocatorIS6_EEFvRNS2_16InferenceContextEEED1Ev', symObjAddr: 0x7E5C, symBinAddr: 0xD0B4F0, symSize: 0x4 }
  - { offset: 0x3BBE77, size: 0x8, addend: 0x0, symName: '__ZNSt3__110__function6__funcIZN4onnx11GetOpSchemaINS2_28NonMaxSuppression_Onnx_ver10EEENS2_8OpSchemaEvE3$_0NS_9allocatorIS6_EEFvRNS2_16InferenceContextEEED0Ev', symObjAddr: 0x7E60, symBinAddr: 0xD0B4F4, symSize: 0x4 }
  - { offset: 0x3BBF2C, size: 0x8, addend: 0x0, symName: '__ZNKSt3__110__function6__funcIZN4onnx11GetOpSchemaINS2_28NonMaxSuppression_Onnx_ver10EEENS2_8OpSchemaEvE3$_0NS_9allocatorIS6_EEFvRNS2_16InferenceContextEEE7__cloneEv', symObjAddr: 0x7E64, symBinAddr: 0xD0B4F8, symSize: 0x24 }
  - { offset: 0x3BC06F, size: 0x8, addend: 0x0, symName: '__ZNKSt3__110__function6__funcIZN4onnx11GetOpSchemaINS2_28NonMaxSuppression_Onnx_ver10EEENS2_8OpSchemaEvE3$_0NS_9allocatorIS6_EEFvRNS2_16InferenceContextEEE7__cloneEPNS0_6__baseISB_EE', symObjAddr: 0x7E88, symBinAddr: 0xD0B51C, symSize: 0x10 }
  - { offset: 0x3BC0A3, size: 0x8, addend: 0x0, symName: '__ZNKSt3__110__function6__funcIZN4onnx11GetOpSchemaINS2_28NonMaxSuppression_Onnx_ver10EEENS2_8OpSchemaEvE3$_0NS_9allocatorIS6_EEFvRNS2_16InferenceContextEEE7__cloneEPNS0_6__baseISB_EE', symObjAddr: 0x7E88, symBinAddr: 0xD0B51C, symSize: 0x10 }
  - { offset: 0x3BC0BF, size: 0x8, addend: 0x0, symName: '__ZNKSt3__110__function6__funcIZN4onnx11GetOpSchemaINS2_28NonMaxSuppression_Onnx_ver10EEENS2_8OpSchemaEvE3$_0NS_9allocatorIS6_EEFvRNS2_16InferenceContextEEE7__cloneEPNS0_6__baseISB_EE', symObjAddr: 0x7E88, symBinAddr: 0xD0B51C, symSize: 0x10 }
  - { offset: 0x3BC0DB, size: 0x8, addend: 0x0, symName: '__ZNSt3__110__function6__funcIZN4onnx11GetOpSchemaINS2_28NonMaxSuppression_Onnx_ver10EEENS2_8OpSchemaEvE3$_0NS_9allocatorIS6_EEFvRNS2_16InferenceContextEEE7destroyEv', symObjAddr: 0x7E98, symBinAddr: 0xD0B52C, symSize: 0x4 }
  - { offset: 0x3BC12A, size: 0x8, addend: 0x0, symName: '__ZNSt3__110__function6__funcIZN4onnx11GetOpSchemaINS2_28NonMaxSuppression_Onnx_ver10EEENS2_8OpSchemaEvE3$_0NS_9allocatorIS6_EEFvRNS2_16InferenceContextEEE18destroy_deallocateEv', symObjAddr: 0x7E9C, symBinAddr: 0xD0B530, symSize: 0x4 }
  - { offset: 0x3BC15D, size: 0x8, addend: 0x0, symName: '__ZNSt3__110__function6__funcIZN4onnx11GetOpSchemaINS2_28NonMaxSuppression_Onnx_ver10EEENS2_8OpSchemaEvE3$_0NS_9allocatorIS6_EEFvRNS2_16InferenceContextEEE18destroy_deallocateEv', symObjAddr: 0x7E9C, symBinAddr: 0xD0B530, symSize: 0x4 }
  - { offset: 0x3BC17F, size: 0x8, addend: 0x0, symName: '__ZNSt3__110__function6__funcIZN4onnx11GetOpSchemaINS2_28NonMaxSuppression_Onnx_ver10EEENS2_8OpSchemaEvE3$_0NS_9allocatorIS6_EEFvRNS2_16InferenceContextEEE18destroy_deallocateEv', symObjAddr: 0x7E9C, symBinAddr: 0xD0B530, symSize: 0x4 }
  - { offset: 0x3BC1AA, size: 0x8, addend: 0x0, symName: '__ZNSt3__110__function6__funcIZN4onnx11GetOpSchemaINS2_28NonMaxSuppression_Onnx_ver10EEENS2_8OpSchemaEvE3$_0NS_9allocatorIS6_EEFvRNS2_16InferenceContextEEE18destroy_deallocateEv', symObjAddr: 0x7E9C, symBinAddr: 0xD0B530, symSize: 0x4 }
  - { offset: 0x3BC1D0, size: 0x8, addend: 0x0, symName: '__ZNSt3__110__function6__funcIZN4onnx11GetOpSchemaINS2_28NonMaxSuppression_Onnx_ver10EEENS2_8OpSchemaEvE3$_0NS_9allocatorIS6_EEFvRNS2_16InferenceContextEEE18destroy_deallocateEv', symObjAddr: 0x7E9C, symBinAddr: 0xD0B530, symSize: 0x4 }
  - { offset: 0x3BC2CC, size: 0x8, addend: 0x0, symName: '__ZNSt3__110__function6__funcIZN4onnx11GetOpSchemaINS2_28NonMaxSuppression_Onnx_ver10EEENS2_8OpSchemaEvE3$_0NS_9allocatorIS6_EEFvRNS2_16InferenceContextEEEclESA_', symObjAddr: 0x7EA0, symBinAddr: 0xD0B534, symSize: 0x84 }
  - { offset: 0x3BC4D6, size: 0x8, addend: 0x0, symName: '__ZNKSt3__110__function6__funcIZN4onnx11GetOpSchemaINS2_28NonMaxSuppression_Onnx_ver10EEENS2_8OpSchemaEvE3$_0NS_9allocatorIS6_EEFvRNS2_16InferenceContextEEE6targetERKSt9type_info', symObjAddr: 0x7F24, symBinAddr: 0xD0B5B8, symSize: 0x64 }
  - { offset: 0x3BC589, size: 0x8, addend: 0x0, symName: '__ZNKSt3__110__function6__funcIZN4onnx11GetOpSchemaINS2_28NonMaxSuppression_Onnx_ver10EEENS2_8OpSchemaEvE3$_0NS_9allocatorIS6_EEFvRNS2_16InferenceContextEEE11target_typeEv', symObjAddr: 0x7F88, symBinAddr: 0xD0B61C, symSize: 0xC }
  - { offset: 0x3C9981, size: 0x8, addend: 0x0, symName: __ZN4onnx11GetOpSchemaINS_19Optional_Onnx_ver15EEENS_8OpSchemaEv, symObjAddr: 0x0, symBinAddr: 0xD0B628, symSize: 0x5DC }
  - { offset: 0x3CBBD6, size: 0x8, addend: 0x0, symName: __ZN4onnx11GetOpSchemaINS_29OptionalHasElement_Onnx_ver18EEENS_8OpSchemaEv, symObjAddr: 0x7D4, symBinAddr: 0xD0BC04, symSize: 0x3B8 }
  - { offset: 0x3CCF22, size: 0x8, addend: 0x0, symName: __ZN4onnx11GetOpSchemaINS_29OptionalGetElement_Onnx_ver18EEENS_8OpSchemaEv, symObjAddr: 0xD64, symBinAddr: 0xD0C194, symSize: 0x5A0 }
  - { offset: 0x3CF0A5, size: 0x8, addend: 0x0, symName: __ZN4onnxL25optional_and_tensor_typesEv, symObjAddr: 0xB8C, symBinAddr: 0xD0BFBC, symSize: 0x1D8 }
  - { offset: 0x3CF938, size: 0x8, addend: 0x0, symName: __ZN4onnx10MakeStringIJA22_cA40_cEEENSt3__112basic_stringIcNS3_11char_traitsIcEENS3_9allocatorIcEEEEDpRKT_, symObjAddr: 0x5AC4, symBinAddr: 0xD0CCDC, symSize: 0x1DC }
  - { offset: 0x3CFF3D, size: 0x8, addend: 0x0, symName: __ZN4onnx10MakeStringIJA22_cA72_cEEENSt3__112basic_stringIcNS3_11char_traitsIcEENS3_9allocatorIcEEEEDpRKT_, symObjAddr: 0x6090, symBinAddr: 0xD0D270, symSize: 0x1DC }
  - { offset: 0x3D0542, size: 0x8, addend: 0x0, symName: __ZN4onnx10MakeStringIJA22_cA69_cEEENSt3__112basic_stringIcNS3_11char_traitsIcEENS3_9allocatorIcEEEEDpRKT_, symObjAddr: 0x5CD8, symBinAddr: 0xD0CEB8, symSize: 0x1DC }
  - { offset: 0x3D0B47, size: 0x8, addend: 0x0, symName: __ZN4onnx10MakeStringIJA22_cA64_cEEENSt3__112basic_stringIcNS3_11char_traitsIcEENS3_9allocatorIcEEEEDpRKT_, symObjAddr: 0x5EB4, symBinAddr: 0xD0D094, symSize: 0x1DC }
  - { offset: 0x3D1330, size: 0x8, addend: 0x0, symName: __ZN4onnx10MakeStringIJA22_cA53_cEEENSt3__112basic_stringIcNS3_11char_traitsIcEENS3_9allocatorIcEEEEDpRKT_, symObjAddr: 0x6B44, symBinAddr: 0xD0D730, symSize: 0x1DC }
  - { offset: 0x3D1935, size: 0x8, addend: 0x0, symName: __ZN4onnx10MakeStringIJA22_cA49_cEEENSt3__112basic_stringIcNS3_11char_traitsIcEENS3_9allocatorIcEEEEDpRKT_, symObjAddr: 0x6D20, symBinAddr: 0xD0D90C, symSize: 0x1DC }
  - { offset: 0x3D2145, size: 0x8, addend: 0x0, symName: __ZN4onnx10MakeStringIJA22_cA47_cEEENSt3__112basic_stringIcNS3_11char_traitsIcEENS3_9allocatorIcEEEEDpRKT_, symObjAddr: 0x7258, symBinAddr: 0xD0DE44, symSize: 0x1DC }
  - { offset: 0x3D2AE8, size: 0x8, addend: 0x0, symName: __ZN4onnx10MakeStringIJA22_cA67_cEEENSt3__112basic_stringIcNS3_11char_traitsIcEENS3_9allocatorIcEEEEDpRKT_, symObjAddr: 0x7610, symBinAddr: 0xD0E020, symSize: 0x1DC }
  - { offset: 0x407B9E, size: 0x8, addend: 0x0, symName: '__ZNSt3__110__function6__funcIZN4onnx11GetOpSchemaINS2_19Optional_Onnx_ver15EEENS2_8OpSchemaEvE3$_1NS_9allocatorIS6_EEFvRNS2_16InferenceContextEEED1Ev', symObjAddr: 0x551C, symBinAddr: 0xD0C734, symSize: 0x4 }
  - { offset: 0x407BC9, size: 0x8, addend: 0x0, symName: '__ZNSt3__110__function6__funcIZN4onnx11GetOpSchemaINS2_19Optional_Onnx_ver15EEENS2_8OpSchemaEvE3$_1NS_9allocatorIS6_EEFvRNS2_16InferenceContextEEED0Ev', symObjAddr: 0x5520, symBinAddr: 0xD0C738, symSize: 0x4 }
  - { offset: 0x407C7E, size: 0x8, addend: 0x0, symName: '__ZNKSt3__110__function6__funcIZN4onnx11GetOpSchemaINS2_19Optional_Onnx_ver15EEENS2_8OpSchemaEvE3$_1NS_9allocatorIS6_EEFvRNS2_16InferenceContextEEE7__cloneEv', symObjAddr: 0x5524, symBinAddr: 0xD0C73C, symSize: 0x24 }
  - { offset: 0x407DC1, size: 0x8, addend: 0x0, symName: '__ZNKSt3__110__function6__funcIZN4onnx11GetOpSchemaINS2_19Optional_Onnx_ver15EEENS2_8OpSchemaEvE3$_1NS_9allocatorIS6_EEFvRNS2_16InferenceContextEEE7__cloneEPNS0_6__baseISB_EE', symObjAddr: 0x5548, symBinAddr: 0xD0C760, symSize: 0x10 }
  - { offset: 0x407DF5, size: 0x8, addend: 0x0, symName: '__ZNKSt3__110__function6__funcIZN4onnx11GetOpSchemaINS2_19Optional_Onnx_ver15EEENS2_8OpSchemaEvE3$_1NS_9allocatorIS6_EEFvRNS2_16InferenceContextEEE7__cloneEPNS0_6__baseISB_EE', symObjAddr: 0x5548, symBinAddr: 0xD0C760, symSize: 0x10 }
  - { offset: 0x407E11, size: 0x8, addend: 0x0, symName: '__ZNKSt3__110__function6__funcIZN4onnx11GetOpSchemaINS2_19Optional_Onnx_ver15EEENS2_8OpSchemaEvE3$_1NS_9allocatorIS6_EEFvRNS2_16InferenceContextEEE7__cloneEPNS0_6__baseISB_EE', symObjAddr: 0x5548, symBinAddr: 0xD0C760, symSize: 0x10 }
  - { offset: 0x407E2D, size: 0x8, addend: 0x0, symName: '__ZNSt3__110__function6__funcIZN4onnx11GetOpSchemaINS2_19Optional_Onnx_ver15EEENS2_8OpSchemaEvE3$_1NS_9allocatorIS6_EEFvRNS2_16InferenceContextEEE7destroyEv', symObjAddr: 0x5558, symBinAddr: 0xD0C770, symSize: 0x4 }
  - { offset: 0x407E7C, size: 0x8, addend: 0x0, symName: '__ZNSt3__110__function6__funcIZN4onnx11GetOpSchemaINS2_19Optional_Onnx_ver15EEENS2_8OpSchemaEvE3$_1NS_9allocatorIS6_EEFvRNS2_16InferenceContextEEE18destroy_deallocateEv', symObjAddr: 0x555C, symBinAddr: 0xD0C774, symSize: 0x4 }
  - { offset: 0x407EAF, size: 0x8, addend: 0x0, symName: '__ZNSt3__110__function6__funcIZN4onnx11GetOpSchemaINS2_19Optional_Onnx_ver15EEENS2_8OpSchemaEvE3$_1NS_9allocatorIS6_EEFvRNS2_16InferenceContextEEE18destroy_deallocateEv', symObjAddr: 0x555C, symBinAddr: 0xD0C774, symSize: 0x4 }
  - { offset: 0x407ED1, size: 0x8, addend: 0x0, symName: '__ZNSt3__110__function6__funcIZN4onnx11GetOpSchemaINS2_19Optional_Onnx_ver15EEENS2_8OpSchemaEvE3$_1NS_9allocatorIS6_EEFvRNS2_16InferenceContextEEE18destroy_deallocateEv', symObjAddr: 0x555C, symBinAddr: 0xD0C774, symSize: 0x4 }
  - { offset: 0x407EFC, size: 0x8, addend: 0x0, symName: '__ZNSt3__110__function6__funcIZN4onnx11GetOpSchemaINS2_19Optional_Onnx_ver15EEENS2_8OpSchemaEvE3$_1NS_9allocatorIS6_EEFvRNS2_16InferenceContextEEE18destroy_deallocateEv', symObjAddr: 0x555C, symBinAddr: 0xD0C774, symSize: 0x4 }
  - { offset: 0x407F22, size: 0x8, addend: 0x0, symName: '__ZNSt3__110__function6__funcIZN4onnx11GetOpSchemaINS2_19Optional_Onnx_ver15EEENS2_8OpSchemaEvE3$_1NS_9allocatorIS6_EEFvRNS2_16InferenceContextEEE18destroy_deallocateEv', symObjAddr: 0x555C, symBinAddr: 0xD0C774, symSize: 0x4 }
  - { offset: 0x4082D6, size: 0x8, addend: 0x0, symName: '__ZNSt3__110__function6__funcIZN4onnx11GetOpSchemaINS2_19Optional_Onnx_ver15EEENS2_8OpSchemaEvE3$_1NS_9allocatorIS6_EEFvRNS2_16InferenceContextEEEclESA_', symObjAddr: 0x5560, symBinAddr: 0xD0C778, symSize: 0x4F4 }
  - { offset: 0x409157, size: 0x8, addend: 0x0, symName: '__ZNKSt3__110__function6__funcIZN4onnx11GetOpSchemaINS2_19Optional_Onnx_ver15EEENS2_8OpSchemaEvE3$_1NS_9allocatorIS6_EEFvRNS2_16InferenceContextEEE6targetERKSt9type_info', symObjAddr: 0x5A54, symBinAddr: 0xD0CC6C, symSize: 0x64 }
  - { offset: 0x40920A, size: 0x8, addend: 0x0, symName: '__ZNKSt3__110__function6__funcIZN4onnx11GetOpSchemaINS2_19Optional_Onnx_ver15EEENS2_8OpSchemaEvE3$_1NS_9allocatorIS6_EEFvRNS2_16InferenceContextEEE11target_typeEv', symObjAddr: 0x5AB8, symBinAddr: 0xD0CCD0, symSize: 0xC }
  - { offset: 0x409B99, size: 0x8, addend: 0x0, symName: '__ZNSt3__110__function6__funcIZN4onnx11GetOpSchemaINS2_29OptionalHasElement_Onnx_ver18EEENS2_8OpSchemaEvE3$_0NS_9allocatorIS6_EEFvRNS2_16InferenceContextEEED1Ev', symObjAddr: 0x6860, symBinAddr: 0xD0D44C, symSize: 0x4 }
  - { offset: 0x409BC4, size: 0x8, addend: 0x0, symName: '__ZNSt3__110__function6__funcIZN4onnx11GetOpSchemaINS2_29OptionalHasElement_Onnx_ver18EEENS2_8OpSchemaEvE3$_0NS_9allocatorIS6_EEFvRNS2_16InferenceContextEEED0Ev', symObjAddr: 0x6864, symBinAddr: 0xD0D450, symSize: 0x4 }
  - { offset: 0x409C79, size: 0x8, addend: 0x0, symName: '__ZNKSt3__110__function6__funcIZN4onnx11GetOpSchemaINS2_29OptionalHasElement_Onnx_ver18EEENS2_8OpSchemaEvE3$_0NS_9allocatorIS6_EEFvRNS2_16InferenceContextEEE7__cloneEv', symObjAddr: 0x6868, symBinAddr: 0xD0D454, symSize: 0x24 }
  - { offset: 0x409DBC, size: 0x8, addend: 0x0, symName: '__ZNKSt3__110__function6__funcIZN4onnx11GetOpSchemaINS2_29OptionalHasElement_Onnx_ver18EEENS2_8OpSchemaEvE3$_0NS_9allocatorIS6_EEFvRNS2_16InferenceContextEEE7__cloneEPNS0_6__baseISB_EE', symObjAddr: 0x688C, symBinAddr: 0xD0D478, symSize: 0x10 }
  - { offset: 0x409DF0, size: 0x8, addend: 0x0, symName: '__ZNKSt3__110__function6__funcIZN4onnx11GetOpSchemaINS2_29OptionalHasElement_Onnx_ver18EEENS2_8OpSchemaEvE3$_0NS_9allocatorIS6_EEFvRNS2_16InferenceContextEEE7__cloneEPNS0_6__baseISB_EE', symObjAddr: 0x688C, symBinAddr: 0xD0D478, symSize: 0x10 }
  - { offset: 0x409E0C, size: 0x8, addend: 0x0, symName: '__ZNKSt3__110__function6__funcIZN4onnx11GetOpSchemaINS2_29OptionalHasElement_Onnx_ver18EEENS2_8OpSchemaEvE3$_0NS_9allocatorIS6_EEFvRNS2_16InferenceContextEEE7__cloneEPNS0_6__baseISB_EE', symObjAddr: 0x688C, symBinAddr: 0xD0D478, symSize: 0x10 }
  - { offset: 0x409E28, size: 0x8, addend: 0x0, symName: '__ZNSt3__110__function6__funcIZN4onnx11GetOpSchemaINS2_29OptionalHasElement_Onnx_ver18EEENS2_8OpSchemaEvE3$_0NS_9allocatorIS6_EEFvRNS2_16InferenceContextEEE7destroyEv', symObjAddr: 0x689C, symBinAddr: 0xD0D488, symSize: 0x4 }
  - { offset: 0x409E77, size: 0x8, addend: 0x0, symName: '__ZNSt3__110__function6__funcIZN4onnx11GetOpSchemaINS2_29OptionalHasElement_Onnx_ver18EEENS2_8OpSchemaEvE3$_0NS_9allocatorIS6_EEFvRNS2_16InferenceContextEEE18destroy_deallocateEv', symObjAddr: 0x68A0, symBinAddr: 0xD0D48C, symSize: 0x4 }
  - { offset: 0x409EAA, size: 0x8, addend: 0x0, symName: '__ZNSt3__110__function6__funcIZN4onnx11GetOpSchemaINS2_29OptionalHasElement_Onnx_ver18EEENS2_8OpSchemaEvE3$_0NS_9allocatorIS6_EEFvRNS2_16InferenceContextEEE18destroy_deallocateEv', symObjAddr: 0x68A0, symBinAddr: 0xD0D48C, symSize: 0x4 }
  - { offset: 0x409ECC, size: 0x8, addend: 0x0, symName: '__ZNSt3__110__function6__funcIZN4onnx11GetOpSchemaINS2_29OptionalHasElement_Onnx_ver18EEENS2_8OpSchemaEvE3$_0NS_9allocatorIS6_EEFvRNS2_16InferenceContextEEE18destroy_deallocateEv', symObjAddr: 0x68A0, symBinAddr: 0xD0D48C, symSize: 0x4 }
  - { offset: 0x409EF7, size: 0x8, addend: 0x0, symName: '__ZNSt3__110__function6__funcIZN4onnx11GetOpSchemaINS2_29OptionalHasElement_Onnx_ver18EEENS2_8OpSchemaEvE3$_0NS_9allocatorIS6_EEFvRNS2_16InferenceContextEEE18destroy_deallocateEv', symObjAddr: 0x68A0, symBinAddr: 0xD0D48C, symSize: 0x4 }
  - { offset: 0x409F1D, size: 0x8, addend: 0x0, symName: '__ZNSt3__110__function6__funcIZN4onnx11GetOpSchemaINS2_29OptionalHasElement_Onnx_ver18EEENS2_8OpSchemaEvE3$_0NS_9allocatorIS6_EEFvRNS2_16InferenceContextEEE18destroy_deallocateEv', symObjAddr: 0x68A0, symBinAddr: 0xD0D48C, symSize: 0x4 }
  - { offset: 0x40A11F, size: 0x8, addend: 0x0, symName: '__ZNSt3__110__function6__funcIZN4onnx11GetOpSchemaINS2_29OptionalHasElement_Onnx_ver18EEENS2_8OpSchemaEvE3$_0NS_9allocatorIS6_EEFvRNS2_16InferenceContextEEEclESA_', symObjAddr: 0x68A4, symBinAddr: 0xD0D490, symSize: 0x230 }
  - { offset: 0x40A78D, size: 0x8, addend: 0x0, symName: '__ZNKSt3__110__function6__funcIZN4onnx11GetOpSchemaINS2_29OptionalHasElement_Onnx_ver18EEENS2_8OpSchemaEvE3$_0NS_9allocatorIS6_EEFvRNS2_16InferenceContextEEE6targetERKSt9type_info', symObjAddr: 0x6AD4, symBinAddr: 0xD0D6C0, symSize: 0x64 }
  - { offset: 0x40A840, size: 0x8, addend: 0x0, symName: '__ZNKSt3__110__function6__funcIZN4onnx11GetOpSchemaINS2_29OptionalHasElement_Onnx_ver18EEENS2_8OpSchemaEvE3$_0NS_9allocatorIS6_EEFvRNS2_16InferenceContextEEE11target_typeEv', symObjAddr: 0x6B38, symBinAddr: 0xD0D724, symSize: 0xC }
  - { offset: 0x40A895, size: 0x8, addend: 0x0, symName: '__ZNSt3__110__function6__funcIZN4onnx11GetOpSchemaINS2_29OptionalGetElement_Onnx_ver18EEENS2_8OpSchemaEvE3$_1NS_9allocatorIS6_EEFvRNS2_16InferenceContextEEED1Ev', symObjAddr: 0x6EFC, symBinAddr: 0xD0DAE8, symSize: 0x4 }
  - { offset: 0x40A8C0, size: 0x8, addend: 0x0, symName: '__ZNSt3__110__function6__funcIZN4onnx11GetOpSchemaINS2_29OptionalGetElement_Onnx_ver18EEENS2_8OpSchemaEvE3$_1NS_9allocatorIS6_EEFvRNS2_16InferenceContextEEED0Ev', symObjAddr: 0x6F00, symBinAddr: 0xD0DAEC, symSize: 0x4 }
  - { offset: 0x40A975, size: 0x8, addend: 0x0, symName: '__ZNKSt3__110__function6__funcIZN4onnx11GetOpSchemaINS2_29OptionalGetElement_Onnx_ver18EEENS2_8OpSchemaEvE3$_1NS_9allocatorIS6_EEFvRNS2_16InferenceContextEEE7__cloneEv', symObjAddr: 0x6F04, symBinAddr: 0xD0DAF0, symSize: 0x24 }
  - { offset: 0x40AAB8, size: 0x8, addend: 0x0, symName: '__ZNKSt3__110__function6__funcIZN4onnx11GetOpSchemaINS2_29OptionalGetElement_Onnx_ver18EEENS2_8OpSchemaEvE3$_1NS_9allocatorIS6_EEFvRNS2_16InferenceContextEEE7__cloneEPNS0_6__baseISB_EE', symObjAddr: 0x6F28, symBinAddr: 0xD0DB14, symSize: 0x10 }
  - { offset: 0x40AAEC, size: 0x8, addend: 0x0, symName: '__ZNKSt3__110__function6__funcIZN4onnx11GetOpSchemaINS2_29OptionalGetElement_Onnx_ver18EEENS2_8OpSchemaEvE3$_1NS_9allocatorIS6_EEFvRNS2_16InferenceContextEEE7__cloneEPNS0_6__baseISB_EE', symObjAddr: 0x6F28, symBinAddr: 0xD0DB14, symSize: 0x10 }
  - { offset: 0x40AB08, size: 0x8, addend: 0x0, symName: '__ZNKSt3__110__function6__funcIZN4onnx11GetOpSchemaINS2_29OptionalGetElement_Onnx_ver18EEENS2_8OpSchemaEvE3$_1NS_9allocatorIS6_EEFvRNS2_16InferenceContextEEE7__cloneEPNS0_6__baseISB_EE', symObjAddr: 0x6F28, symBinAddr: 0xD0DB14, symSize: 0x10 }
  - { offset: 0x40AB24, size: 0x8, addend: 0x0, symName: '__ZNSt3__110__function6__funcIZN4onnx11GetOpSchemaINS2_29OptionalGetElement_Onnx_ver18EEENS2_8OpSchemaEvE3$_1NS_9allocatorIS6_EEFvRNS2_16InferenceContextEEE7destroyEv', symObjAddr: 0x6F38, symBinAddr: 0xD0DB24, symSize: 0x4 }
  - { offset: 0x40AB73, size: 0x8, addend: 0x0, symName: '__ZNSt3__110__function6__funcIZN4onnx11GetOpSchemaINS2_29OptionalGetElement_Onnx_ver18EEENS2_8OpSchemaEvE3$_1NS_9allocatorIS6_EEFvRNS2_16InferenceContextEEE18destroy_deallocateEv', symObjAddr: 0x6F3C, symBinAddr: 0xD0DB28, symSize: 0x4 }
  - { offset: 0x40ABA6, size: 0x8, addend: 0x0, symName: '__ZNSt3__110__function6__funcIZN4onnx11GetOpSchemaINS2_29OptionalGetElement_Onnx_ver18EEENS2_8OpSchemaEvE3$_1NS_9allocatorIS6_EEFvRNS2_16InferenceContextEEE18destroy_deallocateEv', symObjAddr: 0x6F3C, symBinAddr: 0xD0DB28, symSize: 0x4 }
  - { offset: 0x40ABC8, size: 0x8, addend: 0x0, symName: '__ZNSt3__110__function6__funcIZN4onnx11GetOpSchemaINS2_29OptionalGetElement_Onnx_ver18EEENS2_8OpSchemaEvE3$_1NS_9allocatorIS6_EEFvRNS2_16InferenceContextEEE18destroy_deallocateEv', symObjAddr: 0x6F3C, symBinAddr: 0xD0DB28, symSize: 0x4 }
  - { offset: 0x40ABF3, size: 0x8, addend: 0x0, symName: '__ZNSt3__110__function6__funcIZN4onnx11GetOpSchemaINS2_29OptionalGetElement_Onnx_ver18EEENS2_8OpSchemaEvE3$_1NS_9allocatorIS6_EEFvRNS2_16InferenceContextEEE18destroy_deallocateEv', symObjAddr: 0x6F3C, symBinAddr: 0xD0DB28, symSize: 0x4 }
  - { offset: 0x40AC19, size: 0x8, addend: 0x0, symName: '__ZNSt3__110__function6__funcIZN4onnx11GetOpSchemaINS2_29OptionalGetElement_Onnx_ver18EEENS2_8OpSchemaEvE3$_1NS_9allocatorIS6_EEFvRNS2_16InferenceContextEEE18destroy_deallocateEv', symObjAddr: 0x6F3C, symBinAddr: 0xD0DB28, symSize: 0x4 }
  - { offset: 0x40AD98, size: 0x8, addend: 0x0, symName: '__ZNSt3__110__function6__funcIZN4onnx11GetOpSchemaINS2_29OptionalGetElement_Onnx_ver18EEENS2_8OpSchemaEvE3$_1NS_9allocatorIS6_EEFvRNS2_16InferenceContextEEEclESA_', symObjAddr: 0x6F40, symBinAddr: 0xD0DB2C, symSize: 0x2A8 }
  - { offset: 0x40B4AD, size: 0x8, addend: 0x0, symName: '__ZNKSt3__110__function6__funcIZN4onnx11GetOpSchemaINS2_29OptionalGetElement_Onnx_ver18EEENS2_8OpSchemaEvE3$_1NS_9allocatorIS6_EEFvRNS2_16InferenceContextEEE6targetERKSt9type_info', symObjAddr: 0x71E8, symBinAddr: 0xD0DDD4, symSize: 0x64 }
  - { offset: 0x40B560, size: 0x8, addend: 0x0, symName: '__ZNKSt3__110__function6__funcIZN4onnx11GetOpSchemaINS2_29OptionalGetElement_Onnx_ver18EEENS2_8OpSchemaEvE3$_1NS_9allocatorIS6_EEFvRNS2_16InferenceContextEEE11target_typeEv', symObjAddr: 0x724C, symBinAddr: 0xD0DE38, symSize: 0xC }
  - { offset: 0x418AC6, size: 0x8, addend: 0x0, symName: __ZN4onnx11GetOpSchemaINS_29OptionalHasElement_Onnx_ver15EEENS_8OpSchemaEv, symObjAddr: 0x0, symBinAddr: 0xD0E1FC, symSize: 0x3DC }
  - { offset: 0x419EF3, size: 0x8, addend: 0x0, symName: __ZN4onnx11GetOpSchemaINS_29OptionalGetElement_Onnx_ver15EEENS_8OpSchemaEv, symObjAddr: 0x5D4, symBinAddr: 0xD0E5D8, symSize: 0x5C4 }
  - { offset: 0x41C0DB, size: 0x8, addend: 0x0, symName: __ZN4onnx10MakeStringIJA22_cA48_cEEENSt3__112basic_stringIcNS3_11char_traitsIcEENS3_9allocatorIcEEEEDpRKT_, symObjAddr: 0x5094, symBinAddr: 0xD0EE80, symSize: 0x1DC }
  - { offset: 0x41CB86, size: 0x8, addend: 0x0, symName: __ZN4onnx10MakeStringIJA22_cA82_cEEENSt3__112basic_stringIcNS3_11char_traitsIcEENS3_9allocatorIcEEEEDpRKT_, symObjAddr: 0x615C, symBinAddr: 0xD0F388, symSize: 0x1DC }
  - { offset: 0x44EFAD, size: 0x8, addend: 0x0, symName: '__ZNSt3__110__function6__funcIZN4onnx11GetOpSchemaINS2_29OptionalHasElement_Onnx_ver15EEENS2_8OpSchemaEvE3$_0NS_9allocatorIS6_EEFvRNS2_16InferenceContextEEED1Ev', symObjAddr: 0x4DB0, symBinAddr: 0xD0EB9C, symSize: 0x4 }
  - { offset: 0x44EFD8, size: 0x8, addend: 0x0, symName: '__ZNSt3__110__function6__funcIZN4onnx11GetOpSchemaINS2_29OptionalHasElement_Onnx_ver15EEENS2_8OpSchemaEvE3$_0NS_9allocatorIS6_EEFvRNS2_16InferenceContextEEED0Ev', symObjAddr: 0x4DB4, symBinAddr: 0xD0EBA0, symSize: 0x4 }
  - { offset: 0x44F08D, size: 0x8, addend: 0x0, symName: '__ZNKSt3__110__function6__funcIZN4onnx11GetOpSchemaINS2_29OptionalHasElement_Onnx_ver15EEENS2_8OpSchemaEvE3$_0NS_9allocatorIS6_EEFvRNS2_16InferenceContextEEE7__cloneEv', symObjAddr: 0x4DB8, symBinAddr: 0xD0EBA4, symSize: 0x24 }
  - { offset: 0x44F1D0, size: 0x8, addend: 0x0, symName: '__ZNKSt3__110__function6__funcIZN4onnx11GetOpSchemaINS2_29OptionalHasElement_Onnx_ver15EEENS2_8OpSchemaEvE3$_0NS_9allocatorIS6_EEFvRNS2_16InferenceContextEEE7__cloneEPNS0_6__baseISB_EE', symObjAddr: 0x4DDC, symBinAddr: 0xD0EBC8, symSize: 0x10 }
  - { offset: 0x44F204, size: 0x8, addend: 0x0, symName: '__ZNKSt3__110__function6__funcIZN4onnx11GetOpSchemaINS2_29OptionalHasElement_Onnx_ver15EEENS2_8OpSchemaEvE3$_0NS_9allocatorIS6_EEFvRNS2_16InferenceContextEEE7__cloneEPNS0_6__baseISB_EE', symObjAddr: 0x4DDC, symBinAddr: 0xD0EBC8, symSize: 0x10 }
  - { offset: 0x44F220, size: 0x8, addend: 0x0, symName: '__ZNKSt3__110__function6__funcIZN4onnx11GetOpSchemaINS2_29OptionalHasElement_Onnx_ver15EEENS2_8OpSchemaEvE3$_0NS_9allocatorIS6_EEFvRNS2_16InferenceContextEEE7__cloneEPNS0_6__baseISB_EE', symObjAddr: 0x4DDC, symBinAddr: 0xD0EBC8, symSize: 0x10 }
  - { offset: 0x44F23C, size: 0x8, addend: 0x0, symName: '__ZNSt3__110__function6__funcIZN4onnx11GetOpSchemaINS2_29OptionalHasElement_Onnx_ver15EEENS2_8OpSchemaEvE3$_0NS_9allocatorIS6_EEFvRNS2_16InferenceContextEEE7destroyEv', symObjAddr: 0x4DEC, symBinAddr: 0xD0EBD8, symSize: 0x4 }
  - { offset: 0x44F28B, size: 0x8, addend: 0x0, symName: '__ZNSt3__110__function6__funcIZN4onnx11GetOpSchemaINS2_29OptionalHasElement_Onnx_ver15EEENS2_8OpSchemaEvE3$_0NS_9allocatorIS6_EEFvRNS2_16InferenceContextEEE18destroy_deallocateEv', symObjAddr: 0x4DF0, symBinAddr: 0xD0EBDC, symSize: 0x4 }
  - { offset: 0x44F2BE, size: 0x8, addend: 0x0, symName: '__ZNSt3__110__function6__funcIZN4onnx11GetOpSchemaINS2_29OptionalHasElement_Onnx_ver15EEENS2_8OpSchemaEvE3$_0NS_9allocatorIS6_EEFvRNS2_16InferenceContextEEE18destroy_deallocateEv', symObjAddr: 0x4DF0, symBinAddr: 0xD0EBDC, symSize: 0x4 }
  - { offset: 0x44F2E0, size: 0x8, addend: 0x0, symName: '__ZNSt3__110__function6__funcIZN4onnx11GetOpSchemaINS2_29OptionalHasElement_Onnx_ver15EEENS2_8OpSchemaEvE3$_0NS_9allocatorIS6_EEFvRNS2_16InferenceContextEEE18destroy_deallocateEv', symObjAddr: 0x4DF0, symBinAddr: 0xD0EBDC, symSize: 0x4 }
  - { offset: 0x44F30B, size: 0x8, addend: 0x0, symName: '__ZNSt3__110__function6__funcIZN4onnx11GetOpSchemaINS2_29OptionalHasElement_Onnx_ver15EEENS2_8OpSchemaEvE3$_0NS_9allocatorIS6_EEFvRNS2_16InferenceContextEEE18destroy_deallocateEv', symObjAddr: 0x4DF0, symBinAddr: 0xD0EBDC, symSize: 0x4 }
  - { offset: 0x44F331, size: 0x8, addend: 0x0, symName: '__ZNSt3__110__function6__funcIZN4onnx11GetOpSchemaINS2_29OptionalHasElement_Onnx_ver15EEENS2_8OpSchemaEvE3$_0NS_9allocatorIS6_EEFvRNS2_16InferenceContextEEE18destroy_deallocateEv', symObjAddr: 0x4DF0, symBinAddr: 0xD0EBDC, symSize: 0x4 }
  - { offset: 0x44F6D7, size: 0x8, addend: 0x0, symName: '__ZNSt3__110__function6__funcIZN4onnx11GetOpSchemaINS2_29OptionalHasElement_Onnx_ver15EEENS2_8OpSchemaEvE3$_0NS_9allocatorIS6_EEFvRNS2_16InferenceContextEEEclESA_', symObjAddr: 0x4DF4, symBinAddr: 0xD0EBE0, symSize: 0x230 }
  - { offset: 0x44FD45, size: 0x8, addend: 0x0, symName: '__ZNKSt3__110__function6__funcIZN4onnx11GetOpSchemaINS2_29OptionalHasElement_Onnx_ver15EEENS2_8OpSchemaEvE3$_0NS_9allocatorIS6_EEFvRNS2_16InferenceContextEEE6targetERKSt9type_info', symObjAddr: 0x5024, symBinAddr: 0xD0EE10, symSize: 0x64 }
  - { offset: 0x44FDF8, size: 0x8, addend: 0x0, symName: '__ZNKSt3__110__function6__funcIZN4onnx11GetOpSchemaINS2_29OptionalHasElement_Onnx_ver15EEENS2_8OpSchemaEvE3$_0NS_9allocatorIS6_EEFvRNS2_16InferenceContextEEE11target_typeEv', symObjAddr: 0x5088, symBinAddr: 0xD0EE74, symSize: 0xC }
  - { offset: 0x450755, size: 0x8, addend: 0x0, symName: '__ZNSt3__110__function6__funcIZN4onnx11GetOpSchemaINS2_29OptionalGetElement_Onnx_ver15EEENS2_8OpSchemaEvE3$_1NS_9allocatorIS6_EEFvRNS2_16InferenceContextEEED1Ev', symObjAddr: 0x5A78, symBinAddr: 0xD0F05C, symSize: 0x4 }
  - { offset: 0x450780, size: 0x8, addend: 0x0, symName: '__ZNSt3__110__function6__funcIZN4onnx11GetOpSchemaINS2_29OptionalGetElement_Onnx_ver15EEENS2_8OpSchemaEvE3$_1NS_9allocatorIS6_EEFvRNS2_16InferenceContextEEED0Ev', symObjAddr: 0x5A7C, symBinAddr: 0xD0F060, symSize: 0x4 }
  - { offset: 0x450835, size: 0x8, addend: 0x0, symName: '__ZNKSt3__110__function6__funcIZN4onnx11GetOpSchemaINS2_29OptionalGetElement_Onnx_ver15EEENS2_8OpSchemaEvE3$_1NS_9allocatorIS6_EEFvRNS2_16InferenceContextEEE7__cloneEv', symObjAddr: 0x5A80, symBinAddr: 0xD0F064, symSize: 0x24 }
  - { offset: 0x450978, size: 0x8, addend: 0x0, symName: '__ZNKSt3__110__function6__funcIZN4onnx11GetOpSchemaINS2_29OptionalGetElement_Onnx_ver15EEENS2_8OpSchemaEvE3$_1NS_9allocatorIS6_EEFvRNS2_16InferenceContextEEE7__cloneEPNS0_6__baseISB_EE', symObjAddr: 0x5AA4, symBinAddr: 0xD0F088, symSize: 0x10 }
  - { offset: 0x4509AC, size: 0x8, addend: 0x0, symName: '__ZNKSt3__110__function6__funcIZN4onnx11GetOpSchemaINS2_29OptionalGetElement_Onnx_ver15EEENS2_8OpSchemaEvE3$_1NS_9allocatorIS6_EEFvRNS2_16InferenceContextEEE7__cloneEPNS0_6__baseISB_EE', symObjAddr: 0x5AA4, symBinAddr: 0xD0F088, symSize: 0x10 }
  - { offset: 0x4509C8, size: 0x8, addend: 0x0, symName: '__ZNKSt3__110__function6__funcIZN4onnx11GetOpSchemaINS2_29OptionalGetElement_Onnx_ver15EEENS2_8OpSchemaEvE3$_1NS_9allocatorIS6_EEFvRNS2_16InferenceContextEEE7__cloneEPNS0_6__baseISB_EE', symObjAddr: 0x5AA4, symBinAddr: 0xD0F088, symSize: 0x10 }
  - { offset: 0x4509E4, size: 0x8, addend: 0x0, symName: '__ZNSt3__110__function6__funcIZN4onnx11GetOpSchemaINS2_29OptionalGetElement_Onnx_ver15EEENS2_8OpSchemaEvE3$_1NS_9allocatorIS6_EEFvRNS2_16InferenceContextEEE7destroyEv', symObjAddr: 0x5AB4, symBinAddr: 0xD0F098, symSize: 0x4 }
  - { offset: 0x450A33, size: 0x8, addend: 0x0, symName: '__ZNSt3__110__function6__funcIZN4onnx11GetOpSchemaINS2_29OptionalGetElement_Onnx_ver15EEENS2_8OpSchemaEvE3$_1NS_9allocatorIS6_EEFvRNS2_16InferenceContextEEE18destroy_deallocateEv', symObjAddr: 0x5AB8, symBinAddr: 0xD0F09C, symSize: 0x4 }
  - { offset: 0x450A66, size: 0x8, addend: 0x0, symName: '__ZNSt3__110__function6__funcIZN4onnx11GetOpSchemaINS2_29OptionalGetElement_Onnx_ver15EEENS2_8OpSchemaEvE3$_1NS_9allocatorIS6_EEFvRNS2_16InferenceContextEEE18destroy_deallocateEv', symObjAddr: 0x5AB8, symBinAddr: 0xD0F09C, symSize: 0x4 }
  - { offset: 0x450A88, size: 0x8, addend: 0x0, symName: '__ZNSt3__110__function6__funcIZN4onnx11GetOpSchemaINS2_29OptionalGetElement_Onnx_ver15EEENS2_8OpSchemaEvE3$_1NS_9allocatorIS6_EEFvRNS2_16InferenceContextEEE18destroy_deallocateEv', symObjAddr: 0x5AB8, symBinAddr: 0xD0F09C, symSize: 0x4 }
  - { offset: 0x450AB3, size: 0x8, addend: 0x0, symName: '__ZNSt3__110__function6__funcIZN4onnx11GetOpSchemaINS2_29OptionalGetElement_Onnx_ver15EEENS2_8OpSchemaEvE3$_1NS_9allocatorIS6_EEFvRNS2_16InferenceContextEEE18destroy_deallocateEv', symObjAddr: 0x5AB8, symBinAddr: 0xD0F09C, symSize: 0x4 }
  - { offset: 0x450AD9, size: 0x8, addend: 0x0, symName: '__ZNSt3__110__function6__funcIZN4onnx11GetOpSchemaINS2_29OptionalGetElement_Onnx_ver15EEENS2_8OpSchemaEvE3$_1NS_9allocatorIS6_EEFvRNS2_16InferenceContextEEE18destroy_deallocateEv', symObjAddr: 0x5AB8, symBinAddr: 0xD0F09C, symSize: 0x4 }
  - { offset: 0x450C70, size: 0x8, addend: 0x0, symName: '__ZNSt3__110__function6__funcIZN4onnx11GetOpSchemaINS2_29OptionalGetElement_Onnx_ver15EEENS2_8OpSchemaEvE3$_1NS_9allocatorIS6_EEFvRNS2_16InferenceContextEEEclESA_', symObjAddr: 0x5ABC, symBinAddr: 0xD0F0A0, symSize: 0x278 }
  - { offset: 0x451378, size: 0x8, addend: 0x0, symName: '__ZNKSt3__110__function6__funcIZN4onnx11GetOpSchemaINS2_29OptionalGetElement_Onnx_ver15EEENS2_8OpSchemaEvE3$_1NS_9allocatorIS6_EEFvRNS2_16InferenceContextEEE6targetERKSt9type_info', symObjAddr: 0x5D34, symBinAddr: 0xD0F318, symSize: 0x64 }
  - { offset: 0x45142B, size: 0x8, addend: 0x0, symName: '__ZNKSt3__110__function6__funcIZN4onnx11GetOpSchemaINS2_29OptionalGetElement_Onnx_ver15EEENS2_8OpSchemaEvE3$_1NS_9allocatorIS6_EEFvRNS2_16InferenceContextEEE11target_typeEv', symObjAddr: 0x5D98, symBinAddr: 0xD0F37C, symSize: 0xC }
  - { offset: 0x45ED04, size: 0x8, addend: 0x0, symName: __ZN4onnx10MakeStringIJA8_cjA10_cjA2_cEEENSt3__112basic_stringIcNS4_11char_traitsIcEENS4_9allocatorIcEEEEDpRKT_, symObjAddr: 0xD0F8, symBinAddr: 0xD18E14, symSize: 0x220 }
  - { offset: 0x45F4A1, size: 0x8, addend: 0x0, symName: __ZN4onnx10MakeStringIJA25_cNSt3__112basic_stringIcNS2_11char_traitsIcEENS2_9allocatorIcEEEEA3_cA16_cS8_A2_cA27_cEEES8_DpRKT_, symObjAddr: 0x10960, symBinAddr: 0xD1B69C, symSize: 0x288 }
  - { offset: 0x45FF13, size: 0x8, addend: 0x0, symName: __ZN4onnx10MakeStringIJA25_cNSt3__112basic_stringIcNS2_11char_traitsIcEENS2_9allocatorIcEEEEA3_cA16_cS8_A2_cA35_cEEES8_DpRKT_, symObjAddr: 0x106D8, symBinAddr: 0xD1B414, symSize: 0x288 }
  - { offset: 0x460985, size: 0x8, addend: 0x0, symName: __ZN4onnx10MakeStringIJA25_cNSt3__112basic_stringIcNS2_11char_traitsIcEENS2_9allocatorIcEEEEA3_cA16_cS8_A2_cA30_cEEES8_DpRKT_, symObjAddr: 0x10BE8, symBinAddr: 0xD1B924, symSize: 0x288 }
  - { offset: 0x461458, size: 0x8, addend: 0x0, symName: __ZN4onnx10MakeStringIJA25_cNSt3__112basic_stringIcNS2_11char_traitsIcEENS2_9allocatorIcEEEEA3_cA16_cS8_A2_cA42_cEEES8_DpRKT_, symObjAddr: 0x10E70, symBinAddr: 0xD1BBAC, symSize: 0x288 }
  - { offset: 0x461ECA, size: 0x8, addend: 0x0, symName: __ZN4onnx10MakeStringIJA25_cNSt3__112basic_stringIcNS2_11char_traitsIcEENS2_9allocatorIcEEEEA3_cA16_cS8_A2_cA47_cEEES8_DpRKT_, symObjAddr: 0x110F8, symBinAddr: 0xD1BE34, symSize: 0x288 }
  - { offset: 0x46293C, size: 0x8, addend: 0x0, symName: __ZN4onnx10MakeStringIJA25_cNSt3__112basic_stringIcNS2_11char_traitsIcEENS2_9allocatorIcEEEEA3_cA16_cS8_A2_cA17_cEEES8_DpRKT_, symObjAddr: 0x11380, symBinAddr: 0xD1C0BC, symSize: 0x288 }
  - { offset: 0x4633AE, size: 0x8, addend: 0x0, symName: __ZN4onnx10MakeStringIJA25_cNSt3__112basic_stringIcNS2_11char_traitsIcEENS2_9allocatorIcEEEEA3_cA16_cS8_A2_cA52_cEEES8_DpRKT_, symObjAddr: 0x11608, symBinAddr: 0xD1C344, symSize: 0x288 }
  - { offset: 0x463E20, size: 0x8, addend: 0x0, symName: __ZN4onnx10MakeStringIJA25_cNSt3__112basic_stringIcNS2_11char_traitsIcEENS2_9allocatorIcEEEEA3_cA16_cS8_A2_cA53_cEEES8_DpRKT_, symObjAddr: 0x11890, symBinAddr: 0xD1C5CC, symSize: 0x288 }
  - { offset: 0x464892, size: 0x8, addend: 0x0, symName: __ZN4onnx10MakeStringIJA25_cNSt3__112basic_stringIcNS2_11char_traitsIcEENS2_9allocatorIcEEEEA3_cA16_cS8_A2_cA62_cEEES8_DpRKT_, symObjAddr: 0x11B18, symBinAddr: 0xD1C854, symSize: 0x288 }
  - { offset: 0x465304, size: 0x8, addend: 0x0, symName: __ZN4onnx10MakeStringIJA25_cNSt3__112basic_stringIcNS2_11char_traitsIcEENS2_9allocatorIcEEEEA3_cA16_cS8_A2_cA45_cixEEES8_DpRKT_, symObjAddr: 0x11DA0, symBinAddr: 0xD1CADC, symSize: 0x1FC }
  - { offset: 0x465886, size: 0x8, addend: 0x0, symName: __ZN4onnx10MakeStringIJA25_cNSt3__112basic_stringIcNS2_11char_traitsIcEENS2_9allocatorIcEEEEA3_cA16_cS8_A2_cA19_ciEEES8_DpRKT_, symObjAddr: 0x120C4, symBinAddr: 0xD1CE00, symSize: 0x1F8 }
  - { offset: 0x465E0A, size: 0x8, addend: 0x0, symName: __ZN4onnx10MakeStringIJA25_cNSt3__112basic_stringIcNS2_11char_traitsIcEENS2_9allocatorIcEEEEA3_cA16_cS8_A2_cA15_cEEES8_DpRKT_, symObjAddr: 0x123D8, symBinAddr: 0xD1D114, symSize: 0x288 }
  - { offset: 0x46687C, size: 0x8, addend: 0x0, symName: __ZN4onnx10MakeStringIJA25_cNSt3__112basic_stringIcNS2_11char_traitsIcEENS2_9allocatorIcEEEEA3_cA16_cS8_A2_cA32_cS8_A28_cS8_EEES8_DpRKT_, symObjAddr: 0x12660, symBinAddr: 0xD1D39C, symSize: 0x234 }
  - { offset: 0x467000, size: 0x8, addend: 0x0, symName: __ZN4onnx10MakeStringIJA25_cNSt3__112basic_stringIcNS2_11char_traitsIcEENS2_9allocatorIcEEEEA3_cA16_cS8_A2_cA57_cEEES8_DpRKT_, symObjAddr: 0x1304C, symBinAddr: 0xD1DD20, symSize: 0x288 }
  - { offset: 0x467A72, size: 0x8, addend: 0x0, symName: __ZN4onnx10MakeStringIJA25_cNSt3__112basic_stringIcNS2_11char_traitsIcEENS2_9allocatorIcEEEEA3_cA16_cS8_A2_cA20_ccA12_cEEES8_DpRKT_, symObjAddr: 0xC6A0, symBinAddr: 0xD18938, symSize: 0x218 }
  - { offset: 0x4681D1, size: 0x8, addend: 0x0, symName: __ZN4onnx18MakeStringInternalINSt3__112basic_stringIcNS1_11char_traitsIcEENS1_9allocatorIcEEEEJA3_cA16_cS7_A2_cA20_ccA12_cEEEvRNS1_18basic_stringstreamIcS4_S6_EERKT_DpRKT0_, symObjAddr: 0xCBE0, symBinAddr: 0xD18CC0, symSize: 0x154 }
  - { offset: 0x468DEE, size: 0x8, addend: 0x0, symName: __ZN4onnx10MakeStringIJA25_cNSt3__112basic_stringIcNS2_11char_traitsIcEENS2_9allocatorIcEEEEA3_cA16_cS8_A2_cA39_cEEES8_DpRKT_, symObjAddr: 0xD528, symBinAddr: 0xD19244, symSize: 0x288 }
  - { offset: 0x469B08, size: 0x8, addend: 0x0, symName: __ZN4onnx10MakeStringIJA25_cNSt3__112basic_stringIcNS2_11char_traitsIcEENS2_9allocatorIcEEEEA3_cA16_cS8_A2_cA38_cEEES8_DpRKT_, symObjAddr: 0xDFF4, symBinAddr: 0xD198C4, symSize: 0x288 }
  - { offset: 0x46A822, size: 0x8, addend: 0x0, symName: __ZN4onnx10MakeStringIJA25_cNSt3__112basic_stringIcNS2_11char_traitsIcEENS2_9allocatorIcEEEEA3_cA16_cS8_A2_cS1_EEES8_DpRKT_, symObjAddr: 0xE48C, symBinAddr: 0xD19D5C, symSize: 0x288 }
  - { offset: 0x46CCF8, size: 0x8, addend: 0x0, symName: __ZN4onnx18MakeStringInternalIA25_cJNSt3__112basic_stringIcNS2_11char_traitsIcEENS2_9allocatorIcEEEEA3_cA16_cS8_A2_cA45_cixEEEvRNS2_18basic_stringstreamIcS5_S7_EERKT_DpRKT0_, symObjAddr: 0x11F9C, symBinAddr: 0xD1CCD8, symSize: 0x128 }
  - { offset: 0x46D7B1, size: 0x8, addend: 0x0, symName: __ZN4onnx18MakeStringInternalIA25_cJNSt3__112basic_stringIcNS2_11char_traitsIcEENS2_9allocatorIcEEEEA3_cA16_cS8_A2_cA19_ciEEEvRNS2_18basic_stringstreamIcS5_S7_EERKT_DpRKT0_, symObjAddr: 0x122BC, symBinAddr: 0xD1CFF8, symSize: 0x11C }
  - { offset: 0x46E500, size: 0x8, addend: 0x0, symName: __ZN4onnx18MakeStringInternalIA3_cJA16_cNSt3__112basic_stringIcNS3_11char_traitsIcEENS3_9allocatorIcEEEEA2_cA32_cS9_A28_cS9_EEEvRNS3_18basic_stringstreamIcS6_S8_EERKT_DpRKT0_, symObjAddr: 0x12894, symBinAddr: 0xD1D5D0, symSize: 0x130 }
  - { offset: 0x48594E, size: 0x8, addend: 0x0, symName: __ZN4onnx10ParserBase5ParseERNS0_7LiteralE, symObjAddr: 0x0, symBinAddr: 0xD0F564, symSize: 0x87C }
  - { offset: 0x486F8B, size: 0x8, addend: 0x0, symName: __ZN4onnx10ParserBase10ParseErrorIJA27_cEEENS_6Common6StatusEDpRKT_, symObjAddr: 0x950, symBinAddr: 0xD0FDE0, symSize: 0x210 }
  - { offset: 0x4876D7, size: 0x8, addend: 0x0, symName: __ZN4onnx10ParserBase22NextIsValidFloatStringEv, symObjAddr: 0xB9C, symBinAddr: 0xD1002C, symSize: 0x38C }
  - { offset: 0x488230, size: 0x8, addend: 0x0, symName: __ZN4onnx10ParserBase10ParseErrorIJA35_cEEENS_6Common6StatusEDpRKT_, symObjAddr: 0xF7C, symBinAddr: 0xD103B8, symSize: 0x210 }
  - { offset: 0x48897C, size: 0x8, addend: 0x0, symName: __ZN4onnx6Common6StatusaSERKS1_, symObjAddr: 0xC174, symBinAddr: 0xD18628, symSize: 0xE8 }
  - { offset: 0x488B2A, size: 0x8, addend: 0x0, symName: __ZN4onnx10ParserBase10ParseErrorIJA30_cEEENS_6Common6StatusEDpRKT_, symObjAddr: 0x118C, symBinAddr: 0xD105C8, symSize: 0x210 }
  - { offset: 0x4894E9, size: 0x8, addend: 0x0, symName: __ZN4onnx10ParserBase15GetErrorContextEv, symObjAddr: 0xC8B8, symBinAddr: 0xD18B50, symSize: 0x170 }
  - { offset: 0x4897B0, size: 0x8, addend: 0x0, symName: __ZN4onnx6Common6StatusC1ERKS1_, symObjAddr: 0xB60, symBinAddr: 0xD0FFF0, symSize: 0x3C }
  - { offset: 0x489E5F, size: 0x8, addend: 0x0, symName: __ZN4onnx10OnnxParser5ParseERN6google8protobuf16RepeatedPtrFieldINSt3__112basic_stringIcNS4_11char_traitsIcEENS4_9allocatorIcEEEEEE, symObjAddr: 0x139C, symBinAddr: 0xD107D8, symSize: 0x430 }
  - { offset: 0x48AF36, size: 0x8, addend: 0x0, symName: __ZN4onnx10ParserBase31ParseOptionalQuotableIdentifierERNSt3__112basic_stringIcNS1_11char_traitsIcEENS1_9allocatorIcEEEERb, symObjAddr: 0x17CC, symBinAddr: 0xD10C08, symSize: 0x27C }
  - { offset: 0x48B55F, size: 0x8, addend: 0x0, symName: __ZN4onnx10ParserBase10ParseErrorIJA20_ccA12_cEEENS_6Common6StatusEDpRKT_, symObjAddr: 0xC478, symBinAddr: 0xD18710, symSize: 0x228 }
  - { offset: 0x48B74D, size: 0x8, addend: 0x0, symName: __ZN4onnx10ParserBase5ParseERNSt3__112basic_stringIcNS1_11char_traitsIcEENS1_9allocatorIcEEEE, symObjAddr: 0x6C74, symBinAddr: 0xD15084, symSize: 0x184 }
  - { offset: 0x48BEE4, size: 0x8, addend: 0x0, symName: __ZN4onnx10ParserBase23ParseOptionalIdentifierEv, symObjAddr: 0x31C0, symBinAddr: 0xD11D84, symSize: 0x1F4 }
  - { offset: 0x48C23C, size: 0x8, addend: 0x0, symName: __ZN4onnx10ParserBase5ParseERx, symObjAddr: 0x33B4, symBinAddr: 0xD11F78, symSize: 0x1B4 }
  - { offset: 0x48C24E, size: 0x8, addend: 0x0, symName: __ZN4onnx10ParserBase7MatchesEcb, symObjAddr: 0x1A48, symBinAddr: 0xD10E84, symSize: 0xF0 }
  - { offset: 0x48C2EA, size: 0x8, addend: 0x0, symName: __ZN4onnx10ParserBase5MatchEcb, symObjAddr: 0x1D2C, symBinAddr: 0xD10F74, symSize: 0x16C }
  - { offset: 0x48C4EA, size: 0x8, addend: 0x0, symName: __ZN4onnx10ParserBase10ParseErrorIJA20_ccA12_cEEENS_6Common6StatusEDpRKT_, symObjAddr: 0xC478, symBinAddr: 0xD18710, symSize: 0x228 }
  - { offset: 0x48CD5D, size: 0x8, addend: 0x0, symName: __ZN4onnx10ParserBase23ParseQuotableIdentifierERNSt3__112basic_stringIcNS1_11char_traitsIcEENS1_9allocatorIcEEEE, symObjAddr: 0x22EC, symBinAddr: 0xD110E0, symSize: 0xFC }
  - { offset: 0x48CE3B, size: 0x8, addend: 0x0, symName: __ZN4onnx10OnnxParser5ParseERNS_14AttributeProtoERNSt3__112basic_stringIcNS3_11char_traitsIcEENS3_9allocatorIcEEEE, symObjAddr: 0x23E8, symBinAddr: 0xD111DC, symSize: 0x774 }
  - { offset: 0x48E3BE, size: 0x8, addend: 0x0, symName: __ZN4onnx10ParserBase15ParseIdentifierERNSt3__112basic_stringIcNS1_11char_traitsIcEENS1_9allocatorIcEEEE, symObjAddr: 0x3CF4, symBinAddr: 0xD128B8, symSize: 0xE4 }
  - { offset: 0x48E9F6, size: 0x8, addend: 0x0, symName: __ZN4onnx12StringIntMapINS_20AttributeTypeNameMapEE6LookupERKNSt3__112basic_stringIcNS3_11char_traitsIcEENS3_9allocatorIcEEEE, symObjAddr: 0x93AC, symBinAddr: 0xD17350, symSize: 0x120 }
  - { offset: 0x48EAE6, size: 0x8, addend: 0x0, symName: __ZN4onnx10OnnxParser25ParseSingleAttributeValueERNS_14AttributeProtoENS_28AttributeProto_AttributeTypeE, symObjAddr: 0x8180, symBinAddr: 0xD16124, symSize: 0x9B0 }
  - { offset: 0x4910FC, size: 0x8, addend: 0x0, symName: __ZN4onnx10ParserBase10ParseErrorIJA57_cEEENS_6Common6StatusEDpRKT_, symObjAddr: 0x95CC, symBinAddr: 0xD17470, symSize: 0x210 }
  - { offset: 0x4919E1, size: 0x8, addend: 0x0, symName: __ZN4onnx10ParserBase10ParseErrorIJA53_cEEENS_6Common6StatusEDpRKT_, symObjAddr: 0x72C8, symBinAddr: 0xD15418, symSize: 0x210 }
  - { offset: 0x492383, size: 0x8, addend: 0x0, symName: __ZN4onnx10OnnxParser5ParseERNS_16TensorShapeProtoE, symObjAddr: 0x2D8C, symBinAddr: 0xD11950, symSize: 0x434 }
  - { offset: 0x492EFA, size: 0x8, addend: 0x0, symName: __ZN4onnx10ParserBase5ParseERx, symObjAddr: 0x33B4, symBinAddr: 0xD11F78, symSize: 0x1B4 }
  - { offset: 0x493947, size: 0x8, addend: 0x0, symName: __ZN4onnx10ParserBase10ParseErrorIJA39_cEEENS_6Common6StatusEDpRKT_, symObjAddr: 0xD318, symBinAddr: 0xD19034, symSize: 0x210 }
  - { offset: 0x494195, size: 0x8, addend: 0x0, symName: __ZN4onnx10KeyWordMapC2Ev, symObjAddr: 0xE7A0, symBinAddr: 0xD19FE4, symSize: 0x564 }
  - { offset: 0x4943D7, size: 0x8, addend: 0x0, symName: __ZN4onnx10OnnxParser5ParseERNS_9TypeProtoE, symObjAddr: 0x3568, symBinAddr: 0xD1212C, symSize: 0x78C }
  - { offset: 0x495A44, size: 0x8, addend: 0x0, symName: __ZN4onnx12StringIntMapINS_20PrimitiveTypeNameMapEE6LookupERKNSt3__112basic_stringIcNS3_11char_traitsIcEENS3_9allocatorIcEEEE, symObjAddr: 0x3DD8, symBinAddr: 0xD1299C, symSize: 0x120 }
  - { offset: 0x495B34, size: 0x8, addend: 0x0, symName: __ZN4onnx10KeyWordMap6LookupERKNSt3__112basic_stringIcNS1_11char_traitsIcEENS1_9allocatorIcEEEE, symObjAddr: 0x3EF8, symBinAddr: 0xD12ABC, symSize: 0x120 }
  - { offset: 0x495C23, size: 0x8, addend: 0x0, symName: __ZN4onnx9TypeProto16mutable_map_typeEv, symObjAddr: 0x40F4, symBinAddr: 0xD12CB8, symSize: 0x74 }
  - { offset: 0x495F78, size: 0x8, addend: 0x0, symName: __ZN4onnx10ParserBase10ParseErrorIJA17_cEEENS_6Common6StatusEDpRKT_, symObjAddr: 0x47A8, symBinAddr: 0xD131C0, symSize: 0x210 }
  - { offset: 0x4966C4, size: 0x8, addend: 0x0, symName: __ZN4onnx9TypeProto21mutable_sequence_typeEv, symObjAddr: 0x4018, symBinAddr: 0xD12BDC, symSize: 0x74 }
  - { offset: 0x496806, size: 0x8, addend: 0x0, symName: __ZN4onnx18TypeProto_Sequence17mutable_elem_typeEv, symObjAddr: 0x408C, symBinAddr: 0xD12C50, symSize: 0x68 }
  - { offset: 0x496900, size: 0x8, addend: 0x0, symName: __ZN4onnx9TypeProto21mutable_optional_typeEv, symObjAddr: 0x43E0, symBinAddr: 0xD12F3C, symSize: 0x74 }
  - { offset: 0x496AF7, size: 0x8, addend: 0x0, symName: __ZN4onnx10ParserBase10ParseErrorIJA47_cEEENS_6Common6StatusEDpRKT_, symObjAddr: 0x4598, symBinAddr: 0xD12FB0, symSize: 0x210 }
  - { offset: 0x49725C, size: 0x8, addend: 0x0, symName: __ZN4onnx10ParserBase10ParseErrorIJA42_cEEENS_6Common6StatusEDpRKT_, symObjAddr: 0x4168, symBinAddr: 0xD12D2C, symSize: 0x210 }
  - { offset: 0x497BD4, size: 0x8, addend: 0x0, symName: __ZN4onnx20PrimitiveTypeNameMapC2Ev, symObjAddr: 0xF424, symBinAddr: 0xD1A9EC, symSize: 0xA28 }
  - { offset: 0x49BAB5, size: 0x8, addend: 0x0, symName: __ZNKSt3__112__hash_tableINS_17__hash_value_typeINS_12basic_stringIcNS_11char_traitsIcEENS_9allocatorIcEEEEN4onnx10KeyWordMap7KeyWordEEENS_22__unordered_map_hasherIS7_SB_NS_4hashIS7_EENS_8equal_toIS7_EELb1EEENS_21__unordered_map_equalIS7_SB_SG_SE_Lb1EEENS5_ISB_EEE4findIS7_EENS_21__hash_const_iteratorIPNS_11__hash_nodeISB_PvEEEERKT_, symObjAddr: 0xD7B0, symBinAddr: 0xD194CC, symSize: 0x1E8 }
  - { offset: 0x49BDBD, size: 0x8, addend: 0x0, symName: __ZN4onnx10KeyWordMapC2Ev, symObjAddr: 0xE7A0, symBinAddr: 0xD19FE4, symSize: 0x564 }
  - { offset: 0x49E1E4, size: 0x8, addend: 0x0, symName: __ZN4onnx10OnnxParser5ParseERNS_14ValueInfoProtoE, symObjAddr: 0x49B8, symBinAddr: 0xD133D0, symSize: 0x21C }
  - { offset: 0x49ED45, size: 0x8, addend: 0x0, symName: __ZN4onnx10OnnxParser5ParseEcRN6google8protobuf16RepeatedPtrFieldINS_14ValueInfoProtoEEEc, symObjAddr: 0x4CA4, symBinAddr: 0xD135EC, symSize: 0x2D4 }
  - { offset: 0x49F7DC, size: 0x8, addend: 0x0, symName: __ZN4onnx10OnnxParser21ParseGraphInputOutputERN6google8protobuf16RepeatedPtrFieldINS_14ValueInfoProtoEEE, symObjAddr: 0x4F78, symBinAddr: 0xD138C0, symSize: 0xCC }
  - { offset: 0x49FD3F, size: 0x8, addend: 0x0, symName: __ZN4onnx10OnnxParser10ParseInputERN6google8protobuf16RepeatedPtrFieldINS_14ValueInfoProtoEEERNS3_INS_11TensorProtoEEE, symObjAddr: 0x557C, symBinAddr: 0xD1398C, symSize: 0x570 }
  - { offset: 0x4A0B57, size: 0x8, addend: 0x0, symName: __ZN4onnx10OnnxParser5ParseERNS_11TensorProtoERKNS_9TypeProtoE, symObjAddr: 0x5AEC, symBinAddr: 0xD13EFC, symSize: 0x924 }
  - { offset: 0x4A2D01, size: 0x8, addend: 0x0, symName: __ZN4onnx10ParserBase10ParseErrorIJA52_cEEENS_6Common6StatusEDpRKT_, symObjAddr: 0x70B8, symBinAddr: 0xD15208, symSize: 0x210 }
  - { offset: 0x4A344D, size: 0x8, addend: 0x0, symName: __ZN4onnx10OnnxParser5ParseERN6google8protobuf16RepeatedPtrFieldINS_22StringStringEntryProtoEEE, symObjAddr: 0x6984, symBinAddr: 0xD14D94, symSize: 0x2F0 }
  - { offset: 0x4A41D2, size: 0x8, addend: 0x0, symName: __ZN4onnx10ParserBase10ParseErrorIJA62_cEEENS_6Common6StatusEDpRKT_, symObjAddr: 0x74D8, symBinAddr: 0xD15628, symSize: 0x210 }
  - { offset: 0x4A4A9E, size: 0x8, addend: 0x0, symName: __ZN4onnx10ParserBase5ParseERy, symObjAddr: 0x7990, symBinAddr: 0xD15AE0, symSize: 0x1B4 }
  - { offset: 0x4A53EC, size: 0x8, addend: 0x0, symName: __ZN4onnx11TensorProto14add_int64_dataEx, symObjAddr: 0x7910, symBinAddr: 0xD15A60, symSize: 0x80 }
  - { offset: 0x4A54EE, size: 0x8, addend: 0x0, symName: __ZN4onnx10ParserBase5ParseERf, symObjAddr: 0x7B44, symBinAddr: 0xD15C94, symSize: 0x13C }
  - { offset: 0x4A5BAE, size: 0x8, addend: 0x0, symName: __ZN4onnx10ParserBase5ParseERd, symObjAddr: 0x7C80, symBinAddr: 0xD15DD0, symSize: 0x13C }
  - { offset: 0x4A6287, size: 0x8, addend: 0x0, symName: __ZN4onnx10ParserBase10ParseErrorIJA45_cixEEENS_6Common6StatusEDpRKT_, symObjAddr: 0x76E8, symBinAddr: 0xD15838, symSize: 0x228 }
  - { offset: 0x4A6A1A, size: 0x8, addend: 0x0, symName: __ZN4onnx10ParserBase10ParseErrorIJA19_ciEEENS_6Common6StatusEDpRKT_, symObjAddr: 0x7EBC, symBinAddr: 0xD15F0C, symSize: 0x218 }
  - { offset: 0x4A7180, size: 0x8, addend: 0x0, symName: __ZN4onnx10OnnxParser14ParseValueInfoERN6google8protobuf16RepeatedPtrFieldINS_14ValueInfoProtoEEERNS3_INS_11TensorProtoEEE, symObjAddr: 0x6410, symBinAddr: 0xD14820, symSize: 0x574 }
  - { offset: 0x4A8092, size: 0x8, addend: 0x0, symName: __ZN4onnx10ParserBase10ParseErrorIJA38_cEEENS_6Common6StatusEDpRKT_, symObjAddr: 0xDDE4, symBinAddr: 0xD196B4, symSize: 0x210 }
  - { offset: 0x4A8871, size: 0x8, addend: 0x0, symName: __ZN4onnx10ParserBase10ParseErrorIJA25_cEEENS_6Common6StatusEDpRKT_, symObjAddr: 0xE27C, symBinAddr: 0xD19B4C, symSize: 0x210 }
  - { offset: 0x4A9254, size: 0x8, addend: 0x0, symName: __ZN4onnx10OnnxParser5ParseERNS_10GraphProtoE, symObjAddr: 0x8CC8, symBinAddr: 0xD16C6C, symSize: 0x158 }
  - { offset: 0x4A9A8F, size: 0x8, addend: 0x0, symName: __ZN4onnx10ParserBase31ParseOptionalQuotableIdentifierERNSt3__112basic_stringIcNS1_11char_traitsIcEENS1_9allocatorIcEEEE, symObjAddr: 0x8B30, symBinAddr: 0xD16AD4, symSize: 0x198 }
  - { offset: 0x4A9DAC, size: 0x8, addend: 0x0, symName: __ZN4onnx10ParserBase10ParseErrorIJA15_cEEENS_6Common6StatusEDpRKT_, symObjAddr: 0x8E20, symBinAddr: 0xD16DC4, symSize: 0x210 }
  - { offset: 0x4AA51C, size: 0x8, addend: 0x0, symName: __ZN4onnx10ParserBase10ParseErrorIJA32_cNSt3__112basic_stringIcNS3_11char_traitsIcEENS3_9allocatorIcEEEEA28_cS9_EEENS_6Common6StatusEDpRKT_, symObjAddr: 0x9030, symBinAddr: 0xD16FD4, symSize: 0x22C }
  - { offset: 0x4AACB3, size: 0x8, addend: 0x0, symName: __ZN4onnx10OnnxParser5ParseENSt3__112basic_stringIcNS1_11char_traitsIcEENS1_9allocatorIcEEEERNS_10GraphProtoE, symObjAddr: 0xA48C, symBinAddr: 0xD18330, symSize: 0x290 }
  - { offset: 0x4ABB6F, size: 0x8, addend: 0x0, symName: __ZN4onnx10OnnxParser5ParseERNS_14AttributeProtoE, symObjAddr: 0x925C, symBinAddr: 0xD17200, symSize: 0x150 }
  - { offset: 0x4AC2D4, size: 0x8, addend: 0x0, symName: __ZN4onnx20AttributeTypeNameMapC2Ev, symObjAddr: 0x12A2C, symBinAddr: 0xD1D768, symSize: 0x5B8 }
  - { offset: 0x4AE5BA, size: 0x8, addend: 0x0, symName: __ZN4onnx10OnnxParser5ParseERN6google8protobuf16RepeatedPtrFieldINS_14AttributeProtoEEE, symObjAddr: 0x97DC, symBinAddr: 0xD17680, symSize: 0x2B0 }
  - { offset: 0x4AEFD5, size: 0x8, addend: 0x0, symName: __ZN4onnx10OnnxParser5ParseERNS_9NodeProtoE, symObjAddr: 0x9A8C, symBinAddr: 0xD17930, symSize: 0x7D8 }
  - { offset: 0x4B1527, size: 0x8, addend: 0x0, symName: __ZN4onnx10OnnxParser5ParseERN6google8protobuf16RepeatedPtrFieldINS_9NodeProtoEEE, symObjAddr: 0xA264, symBinAddr: 0xD18108, symSize: 0x228 }
  - { offset: 0x4B2090, size: 0x8, addend: 0x0, symName: __ZN4onnx10KeyWordMapD1Ev, symObjAddr: 0xBF88, symBinAddr: 0xD185C0, symSize: 0x68 }
  - { offset: 0x4B3B98, size: 0x8, addend: 0x0, symName: __ZNSt3__112__hash_tableINS_17__hash_value_typeINS_12basic_stringIcNS_11char_traitsIcEENS_9allocatorIcEEEEN4onnx10KeyWordMap7KeyWordEEENS_22__unordered_map_hasherIS7_SB_NS_4hashIS7_EENS_8equal_toIS7_EELb1EEENS_21__unordered_map_equalIS7_SB_SG_SE_Lb1EEENS5_ISB_EEE25__emplace_unique_key_argsIS7_JRKNS_21piecewise_construct_tENS_5tupleIJOS7_EEENSQ_IJEEEEEENS_4pairINS_15__hash_iteratorIPNS_11__hash_nodeISB_PvEEEEbEERKT_DpOT0_, symObjAddr: 0xED6C, symBinAddr: 0xD1A548, symSize: 0x43C }
  - { offset: 0x4B5329, size: 0x8, addend: 0x0, symName: __ZN4onnx20PrimitiveTypeNameMapD1Ev, symObjAddr: 0xF3BC, symBinAddr: 0xD1A984, symSize: 0x68 }
  - { offset: 0x4B6BCF, size: 0x8, addend: 0x0, symName: __ZN4onnx20AttributeTypeNameMapD1Ev, symObjAddr: 0x129C4, symBinAddr: 0xD1D700, symSize: 0x68 }
  - { offset: 0x4C441D, size: 0x8, addend: 0x0, symName: __ZN4onnx11GetOpSchemaINS_25QuantizeLinear_Onnx_ver24EEENS_8OpSchemaEv, symObjAddr: 0x0, symBinAddr: 0xD1F8A4, symSize: 0x4C8 }
  - { offset: 0x4C4EDB, size: 0x8, addend: 0x0, symName: __ZN4onnx11GetOpSchemaINS_27DequantizeLinear_Onnx_ver24EEENS_8OpSchemaEv, symObjAddr: 0x650, symBinAddr: 0xD1FD6C, symSize: 0x454 }
  - { offset: 0x4C58BC, size: 0x8, addend: 0x0, symName: __ZN4onnx11GetOpSchemaINS_25QuantizeLinear_Onnx_ver23EEENS_8OpSchemaEv, symObjAddr: 0xAA4, symBinAddr: 0xD201C0, symSize: 0x4BC }
  - { offset: 0x4C6314, size: 0x8, addend: 0x0, symName: __ZN4onnx11GetOpSchemaINS_27DequantizeLinear_Onnx_ver23EEENS_8OpSchemaEv, symObjAddr: 0xF60, symBinAddr: 0xD2067C, symSize: 0x458 }
  - { offset: 0x4C6D0C, size: 0x8, addend: 0x0, symName: __ZN4onnx11GetOpSchemaINS_25QuantizeLinear_Onnx_ver21EEENS_8OpSchemaEv, symObjAddr: 0x13B8, symBinAddr: 0xD20AD4, symSize: 0x438 }
  - { offset: 0x4C76E5, size: 0x8, addend: 0x0, symName: __ZN4onnx11GetOpSchemaINS_27DequantizeLinear_Onnx_ver21EEENS_8OpSchemaEv, symObjAddr: 0x17F0, symBinAddr: 0xD20F0C, symSize: 0x3DC }
  - { offset: 0x4C8094, size: 0x8, addend: 0x0, symName: __ZN4onnx11GetOpSchemaINS_25QuantizeLinear_Onnx_ver19EEENS_8OpSchemaEv, symObjAddr: 0x1BCC, symBinAddr: 0xD212E8, symSize: 0x3C8 }
  - { offset: 0x4C8A43, size: 0x8, addend: 0x0, symName: __ZN4onnx11GetOpSchemaINS_27DequantizeLinear_Onnx_ver19EEENS_8OpSchemaEv, symObjAddr: 0x1F94, symBinAddr: 0xD216B0, symSize: 0x3A0 }
  - { offset: 0x4C93DD, size: 0x8, addend: 0x0, symName: __ZN4onnx11GetOpSchemaINS_25QuantizeLinear_Onnx_ver13EEENS_8OpSchemaEv, symObjAddr: 0x2334, symBinAddr: 0xD21A50, symSize: 0x384 }
  - { offset: 0x4C9DCF, size: 0x8, addend: 0x0, symName: __ZN4onnx11GetOpSchemaINS_27DequantizeLinear_Onnx_ver13EEENS_8OpSchemaEv, symObjAddr: 0x26B8, symBinAddr: 0xD21DD4, symSize: 0x348 }
  - { offset: 0x4CA7AC, size: 0x8, addend: 0x0, symName: __ZN4onnx11GetOpSchemaINS_25QuantizeLinear_Onnx_ver10EEENS_8OpSchemaEv, symObjAddr: 0x2A00, symBinAddr: 0xD2211C, symSize: 0x34C }
  - { offset: 0x4CB189, size: 0x8, addend: 0x0, symName: __ZN4onnx11GetOpSchemaINS_27DequantizeLinear_Onnx_ver10EEENS_8OpSchemaEv, symObjAddr: 0x2D4C, symBinAddr: 0xD22468, symSize: 0x310 }
  - { offset: 0x50B80A, size: 0x8, addend: 0x0, symName: '__ZNSt3__110__function6__funcIZN4onnx11GetOpSchemaINS2_25QuantizeLinear_Onnx_ver24EEENS2_8OpSchemaEvE3$_0NS_9allocatorIS6_EEFvRNS2_16InferenceContextEEED1Ev', symObjAddr: 0x6E7C, symBinAddr: 0xD22778, symSize: 0x4 }
  - { offset: 0x50B835, size: 0x8, addend: 0x0, symName: '__ZNSt3__110__function6__funcIZN4onnx11GetOpSchemaINS2_25QuantizeLinear_Onnx_ver24EEENS2_8OpSchemaEvE3$_0NS_9allocatorIS6_EEFvRNS2_16InferenceContextEEED0Ev', symObjAddr: 0x6E80, symBinAddr: 0xD2277C, symSize: 0x4 }
  - { offset: 0x50B8EA, size: 0x8, addend: 0x0, symName: '__ZNKSt3__110__function6__funcIZN4onnx11GetOpSchemaINS2_25QuantizeLinear_Onnx_ver24EEENS2_8OpSchemaEvE3$_0NS_9allocatorIS6_EEFvRNS2_16InferenceContextEEE7__cloneEv', symObjAddr: 0x6E84, symBinAddr: 0xD22780, symSize: 0x24 }
  - { offset: 0x50BA2D, size: 0x8, addend: 0x0, symName: '__ZNKSt3__110__function6__funcIZN4onnx11GetOpSchemaINS2_25QuantizeLinear_Onnx_ver24EEENS2_8OpSchemaEvE3$_0NS_9allocatorIS6_EEFvRNS2_16InferenceContextEEE7__cloneEPNS0_6__baseISB_EE', symObjAddr: 0x6EA8, symBinAddr: 0xD227A4, symSize: 0x10 }
  - { offset: 0x50BA61, size: 0x8, addend: 0x0, symName: '__ZNKSt3__110__function6__funcIZN4onnx11GetOpSchemaINS2_25QuantizeLinear_Onnx_ver24EEENS2_8OpSchemaEvE3$_0NS_9allocatorIS6_EEFvRNS2_16InferenceContextEEE7__cloneEPNS0_6__baseISB_EE', symObjAddr: 0x6EA8, symBinAddr: 0xD227A4, symSize: 0x10 }
  - { offset: 0x50BA7D, size: 0x8, addend: 0x0, symName: '__ZNKSt3__110__function6__funcIZN4onnx11GetOpSchemaINS2_25QuantizeLinear_Onnx_ver24EEENS2_8OpSchemaEvE3$_0NS_9allocatorIS6_EEFvRNS2_16InferenceContextEEE7__cloneEPNS0_6__baseISB_EE', symObjAddr: 0x6EA8, symBinAddr: 0xD227A4, symSize: 0x10 }
  - { offset: 0x50BA99, size: 0x8, addend: 0x0, symName: '__ZNSt3__110__function6__funcIZN4onnx11GetOpSchemaINS2_25QuantizeLinear_Onnx_ver24EEENS2_8OpSchemaEvE3$_0NS_9allocatorIS6_EEFvRNS2_16InferenceContextEEE7destroyEv', symObjAddr: 0x6EB8, symBinAddr: 0xD227B4, symSize: 0x4 }
  - { offset: 0x50BAE8, size: 0x8, addend: 0x0, symName: '__ZNSt3__110__function6__funcIZN4onnx11GetOpSchemaINS2_25QuantizeLinear_Onnx_ver24EEENS2_8OpSchemaEvE3$_0NS_9allocatorIS6_EEFvRNS2_16InferenceContextEEE18destroy_deallocateEv', symObjAddr: 0x6EBC, symBinAddr: 0xD227B8, symSize: 0x4 }
  - { offset: 0x50BB1B, size: 0x8, addend: 0x0, symName: '__ZNSt3__110__function6__funcIZN4onnx11GetOpSchemaINS2_25QuantizeLinear_Onnx_ver24EEENS2_8OpSchemaEvE3$_0NS_9allocatorIS6_EEFvRNS2_16InferenceContextEEE18destroy_deallocateEv', symObjAddr: 0x6EBC, symBinAddr: 0xD227B8, symSize: 0x4 }
  - { offset: 0x50BB3D, size: 0x8, addend: 0x0, symName: '__ZNSt3__110__function6__funcIZN4onnx11GetOpSchemaINS2_25QuantizeLinear_Onnx_ver24EEENS2_8OpSchemaEvE3$_0NS_9allocatorIS6_EEFvRNS2_16InferenceContextEEE18destroy_deallocateEv', symObjAddr: 0x6EBC, symBinAddr: 0xD227B8, symSize: 0x4 }
  - { offset: 0x50BB68, size: 0x8, addend: 0x0, symName: '__ZNSt3__110__function6__funcIZN4onnx11GetOpSchemaINS2_25QuantizeLinear_Onnx_ver24EEENS2_8OpSchemaEvE3$_0NS_9allocatorIS6_EEFvRNS2_16InferenceContextEEE18destroy_deallocateEv', symObjAddr: 0x6EBC, symBinAddr: 0xD227B8, symSize: 0x4 }
  - { offset: 0x50BB8E, size: 0x8, addend: 0x0, symName: '__ZNSt3__110__function6__funcIZN4onnx11GetOpSchemaINS2_25QuantizeLinear_Onnx_ver24EEENS2_8OpSchemaEvE3$_0NS_9allocatorIS6_EEFvRNS2_16InferenceContextEEE18destroy_deallocateEv', symObjAddr: 0x6EBC, symBinAddr: 0xD227B8, symSize: 0x4 }
  - { offset: 0x50BE3E, size: 0x8, addend: 0x0, symName: '__ZNSt3__110__function6__funcIZN4onnx11GetOpSchemaINS2_25QuantizeLinear_Onnx_ver24EEENS2_8OpSchemaEvE3$_0NS_9allocatorIS6_EEFvRNS2_16InferenceContextEEEclESA_', symObjAddr: 0x6EC0, symBinAddr: 0xD227BC, symSize: 0x368 }
  - { offset: 0x50C919, size: 0x8, addend: 0x0, symName: '__ZNKSt3__110__function6__funcIZN4onnx11GetOpSchemaINS2_25QuantizeLinear_Onnx_ver24EEENS2_8OpSchemaEvE3$_0NS_9allocatorIS6_EEFvRNS2_16InferenceContextEEE6targetERKSt9type_info', symObjAddr: 0x7228, symBinAddr: 0xD22B24, symSize: 0x64 }
  - { offset: 0x50C9CC, size: 0x8, addend: 0x0, symName: '__ZNKSt3__110__function6__funcIZN4onnx11GetOpSchemaINS2_25QuantizeLinear_Onnx_ver24EEENS2_8OpSchemaEvE3$_0NS_9allocatorIS6_EEFvRNS2_16InferenceContextEEE11target_typeEv', symObjAddr: 0x728C, symBinAddr: 0xD22B88, symSize: 0xC }
  - { offset: 0x50D63E, size: 0x8, addend: 0x0, symName: '__ZNSt3__110__function6__funcIZN4onnx11GetOpSchemaINS2_27DequantizeLinear_Onnx_ver24EEENS2_8OpSchemaEvE3$_0NS_9allocatorIS6_EEFvRNS2_16InferenceContextEEED1Ev', symObjAddr: 0x9DFC, symBinAddr: 0xD22B94, symSize: 0x4 }
  - { offset: 0x50D669, size: 0x8, addend: 0x0, symName: '__ZNSt3__110__function6__funcIZN4onnx11GetOpSchemaINS2_27DequantizeLinear_Onnx_ver24EEENS2_8OpSchemaEvE3$_0NS_9allocatorIS6_EEFvRNS2_16InferenceContextEEED0Ev', symObjAddr: 0x9E00, symBinAddr: 0xD22B98, symSize: 0x4 }
  - { offset: 0x50D71E, size: 0x8, addend: 0x0, symName: '__ZNKSt3__110__function6__funcIZN4onnx11GetOpSchemaINS2_27DequantizeLinear_Onnx_ver24EEENS2_8OpSchemaEvE3$_0NS_9allocatorIS6_EEFvRNS2_16InferenceContextEEE7__cloneEv', symObjAddr: 0x9E04, symBinAddr: 0xD22B9C, symSize: 0x24 }
  - { offset: 0x50D861, size: 0x8, addend: 0x0, symName: '__ZNKSt3__110__function6__funcIZN4onnx11GetOpSchemaINS2_27DequantizeLinear_Onnx_ver24EEENS2_8OpSchemaEvE3$_0NS_9allocatorIS6_EEFvRNS2_16InferenceContextEEE7__cloneEPNS0_6__baseISB_EE', symObjAddr: 0x9E28, symBinAddr: 0xD22BC0, symSize: 0x10 }
  - { offset: 0x50D895, size: 0x8, addend: 0x0, symName: '__ZNKSt3__110__function6__funcIZN4onnx11GetOpSchemaINS2_27DequantizeLinear_Onnx_ver24EEENS2_8OpSchemaEvE3$_0NS_9allocatorIS6_EEFvRNS2_16InferenceContextEEE7__cloneEPNS0_6__baseISB_EE', symObjAddr: 0x9E28, symBinAddr: 0xD22BC0, symSize: 0x10 }
  - { offset: 0x50D8B1, size: 0x8, addend: 0x0, symName: '__ZNKSt3__110__function6__funcIZN4onnx11GetOpSchemaINS2_27DequantizeLinear_Onnx_ver24EEENS2_8OpSchemaEvE3$_0NS_9allocatorIS6_EEFvRNS2_16InferenceContextEEE7__cloneEPNS0_6__baseISB_EE', symObjAddr: 0x9E28, symBinAddr: 0xD22BC0, symSize: 0x10 }
  - { offset: 0x50D8CD, size: 0x8, addend: 0x0, symName: '__ZNSt3__110__function6__funcIZN4onnx11GetOpSchemaINS2_27DequantizeLinear_Onnx_ver24EEENS2_8OpSchemaEvE3$_0NS_9allocatorIS6_EEFvRNS2_16InferenceContextEEE7destroyEv', symObjAddr: 0x9E38, symBinAddr: 0xD22BD0, symSize: 0x4 }
  - { offset: 0x50D91C, size: 0x8, addend: 0x0, symName: '__ZNSt3__110__function6__funcIZN4onnx11GetOpSchemaINS2_27DequantizeLinear_Onnx_ver24EEENS2_8OpSchemaEvE3$_0NS_9allocatorIS6_EEFvRNS2_16InferenceContextEEE18destroy_deallocateEv', symObjAddr: 0x9E3C, symBinAddr: 0xD22BD4, symSize: 0x4 }
  - { offset: 0x50D94F, size: 0x8, addend: 0x0, symName: '__ZNSt3__110__function6__funcIZN4onnx11GetOpSchemaINS2_27DequantizeLinear_Onnx_ver24EEENS2_8OpSchemaEvE3$_0NS_9allocatorIS6_EEFvRNS2_16InferenceContextEEE18destroy_deallocateEv', symObjAddr: 0x9E3C, symBinAddr: 0xD22BD4, symSize: 0x4 }
  - { offset: 0x50D971, size: 0x8, addend: 0x0, symName: '__ZNSt3__110__function6__funcIZN4onnx11GetOpSchemaINS2_27DequantizeLinear_Onnx_ver24EEENS2_8OpSchemaEvE3$_0NS_9allocatorIS6_EEFvRNS2_16InferenceContextEEE18destroy_deallocateEv', symObjAddr: 0x9E3C, symBinAddr: 0xD22BD4, symSize: 0x4 }
  - { offset: 0x50D99C, size: 0x8, addend: 0x0, symName: '__ZNSt3__110__function6__funcIZN4onnx11GetOpSchemaINS2_27DequantizeLinear_Onnx_ver24EEENS2_8OpSchemaEvE3$_0NS_9allocatorIS6_EEFvRNS2_16InferenceContextEEE18destroy_deallocateEv', symObjAddr: 0x9E3C, symBinAddr: 0xD22BD4, symSize: 0x4 }
  - { offset: 0x50D9C2, size: 0x8, addend: 0x0, symName: '__ZNSt3__110__function6__funcIZN4onnx11GetOpSchemaINS2_27DequantizeLinear_Onnx_ver24EEENS2_8OpSchemaEvE3$_0NS_9allocatorIS6_EEFvRNS2_16InferenceContextEEE18destroy_deallocateEv', symObjAddr: 0x9E3C, symBinAddr: 0xD22BD4, symSize: 0x4 }
  - { offset: 0x50DA81, size: 0x8, addend: 0x0, symName: '__ZNSt3__110__function6__funcIZN4onnx11GetOpSchemaINS2_27DequantizeLinear_Onnx_ver24EEENS2_8OpSchemaEvE3$_0NS_9allocatorIS6_EEFvRNS2_16InferenceContextEEEclESA_', symObjAddr: 0x9E40, symBinAddr: 0xD22BD8, symSize: 0x21C }
  - { offset: 0x50E23F, size: 0x8, addend: 0x0, symName: '__ZNKSt3__110__function6__funcIZN4onnx11GetOpSchemaINS2_27DequantizeLinear_Onnx_ver24EEENS2_8OpSchemaEvE3$_0NS_9allocatorIS6_EEFvRNS2_16InferenceContextEEE6targetERKSt9type_info', symObjAddr: 0xA05C, symBinAddr: 0xD22DF4, symSize: 0x64 }
  - { offset: 0x50E2F2, size: 0x8, addend: 0x0, symName: '__ZNKSt3__110__function6__funcIZN4onnx11GetOpSchemaINS2_27DequantizeLinear_Onnx_ver24EEENS2_8OpSchemaEvE3$_0NS_9allocatorIS6_EEFvRNS2_16InferenceContextEEE11target_typeEv', symObjAddr: 0xA0C0, symBinAddr: 0xD22E58, symSize: 0xC }
  - { offset: 0x50E315, size: 0x8, addend: 0x0, symName: '__ZNSt3__110__function6__funcIZN4onnx11GetOpSchemaINS2_25QuantizeLinear_Onnx_ver23EEENS2_8OpSchemaEvE3$_0NS_9allocatorIS6_EEFvRNS2_16InferenceContextEEED1Ev', symObjAddr: 0xA0CC, symBinAddr: 0xD22E64, symSize: 0x4 }
  - { offset: 0x50E340, size: 0x8, addend: 0x0, symName: '__ZNSt3__110__function6__funcIZN4onnx11GetOpSchemaINS2_25QuantizeLinear_Onnx_ver23EEENS2_8OpSchemaEvE3$_0NS_9allocatorIS6_EEFvRNS2_16InferenceContextEEED0Ev', symObjAddr: 0xA0D0, symBinAddr: 0xD22E68, symSize: 0x4 }
  - { offset: 0x50E3F5, size: 0x8, addend: 0x0, symName: '__ZNKSt3__110__function6__funcIZN4onnx11GetOpSchemaINS2_25QuantizeLinear_Onnx_ver23EEENS2_8OpSchemaEvE3$_0NS_9allocatorIS6_EEFvRNS2_16InferenceContextEEE7__cloneEv', symObjAddr: 0xA0D4, symBinAddr: 0xD22E6C, symSize: 0x24 }
  - { offset: 0x50E538, size: 0x8, addend: 0x0, symName: '__ZNKSt3__110__function6__funcIZN4onnx11GetOpSchemaINS2_25QuantizeLinear_Onnx_ver23EEENS2_8OpSchemaEvE3$_0NS_9allocatorIS6_EEFvRNS2_16InferenceContextEEE7__cloneEPNS0_6__baseISB_EE', symObjAddr: 0xA0F8, symBinAddr: 0xD22E90, symSize: 0x10 }
  - { offset: 0x50E56C, size: 0x8, addend: 0x0, symName: '__ZNKSt3__110__function6__funcIZN4onnx11GetOpSchemaINS2_25QuantizeLinear_Onnx_ver23EEENS2_8OpSchemaEvE3$_0NS_9allocatorIS6_EEFvRNS2_16InferenceContextEEE7__cloneEPNS0_6__baseISB_EE', symObjAddr: 0xA0F8, symBinAddr: 0xD22E90, symSize: 0x10 }
  - { offset: 0x50E588, size: 0x8, addend: 0x0, symName: '__ZNKSt3__110__function6__funcIZN4onnx11GetOpSchemaINS2_25QuantizeLinear_Onnx_ver23EEENS2_8OpSchemaEvE3$_0NS_9allocatorIS6_EEFvRNS2_16InferenceContextEEE7__cloneEPNS0_6__baseISB_EE', symObjAddr: 0xA0F8, symBinAddr: 0xD22E90, symSize: 0x10 }
  - { offset: 0x50E5A4, size: 0x8, addend: 0x0, symName: '__ZNSt3__110__function6__funcIZN4onnx11GetOpSchemaINS2_25QuantizeLinear_Onnx_ver23EEENS2_8OpSchemaEvE3$_0NS_9allocatorIS6_EEFvRNS2_16InferenceContextEEE7destroyEv', symObjAddr: 0xA108, symBinAddr: 0xD22EA0, symSize: 0x4 }
  - { offset: 0x50E5F3, size: 0x8, addend: 0x0, symName: '__ZNSt3__110__function6__funcIZN4onnx11GetOpSchemaINS2_25QuantizeLinear_Onnx_ver23EEENS2_8OpSchemaEvE3$_0NS_9allocatorIS6_EEFvRNS2_16InferenceContextEEE18destroy_deallocateEv', symObjAddr: 0xA10C, symBinAddr: 0xD22EA4, symSize: 0x4 }
  - { offset: 0x50E626, size: 0x8, addend: 0x0, symName: '__ZNSt3__110__function6__funcIZN4onnx11GetOpSchemaINS2_25QuantizeLinear_Onnx_ver23EEENS2_8OpSchemaEvE3$_0NS_9allocatorIS6_EEFvRNS2_16InferenceContextEEE18destroy_deallocateEv', symObjAddr: 0xA10C, symBinAddr: 0xD22EA4, symSize: 0x4 }
  - { offset: 0x50E648, size: 0x8, addend: 0x0, symName: '__ZNSt3__110__function6__funcIZN4onnx11GetOpSchemaINS2_25QuantizeLinear_Onnx_ver23EEENS2_8OpSchemaEvE3$_0NS_9allocatorIS6_EEFvRNS2_16InferenceContextEEE18destroy_deallocateEv', symObjAddr: 0xA10C, symBinAddr: 0xD22EA4, symSize: 0x4 }
  - { offset: 0x50E673, size: 0x8, addend: 0x0, symName: '__ZNSt3__110__function6__funcIZN4onnx11GetOpSchemaINS2_25QuantizeLinear_Onnx_ver23EEENS2_8OpSchemaEvE3$_0NS_9allocatorIS6_EEFvRNS2_16InferenceContextEEE18destroy_deallocateEv', symObjAddr: 0xA10C, symBinAddr: 0xD22EA4, symSize: 0x4 }
  - { offset: 0x50E699, size: 0x8, addend: 0x0, symName: '__ZNSt3__110__function6__funcIZN4onnx11GetOpSchemaINS2_25QuantizeLinear_Onnx_ver23EEENS2_8OpSchemaEvE3$_0NS_9allocatorIS6_EEFvRNS2_16InferenceContextEEE18destroy_deallocateEv', symObjAddr: 0xA10C, symBinAddr: 0xD22EA4, symSize: 0x4 }
  - { offset: 0x50E775, size: 0x8, addend: 0x0, symName: '__ZNSt3__110__function6__funcIZN4onnx11GetOpSchemaINS2_25QuantizeLinear_Onnx_ver23EEENS2_8OpSchemaEvE3$_0NS_9allocatorIS6_EEFvRNS2_16InferenceContextEEEclESA_', symObjAddr: 0xA110, symBinAddr: 0xD22EA8, symSize: 0x368 }
  - { offset: 0x50F25D, size: 0x8, addend: 0x0, symName: '__ZNKSt3__110__function6__funcIZN4onnx11GetOpSchemaINS2_25QuantizeLinear_Onnx_ver23EEENS2_8OpSchemaEvE3$_0NS_9allocatorIS6_EEFvRNS2_16InferenceContextEEE6targetERKSt9type_info', symObjAddr: 0xA478, symBinAddr: 0xD23210, symSize: 0x64 }
  - { offset: 0x50F310, size: 0x8, addend: 0x0, symName: '__ZNKSt3__110__function6__funcIZN4onnx11GetOpSchemaINS2_25QuantizeLinear_Onnx_ver23EEENS2_8OpSchemaEvE3$_0NS_9allocatorIS6_EEFvRNS2_16InferenceContextEEE11target_typeEv', symObjAddr: 0xA4DC, symBinAddr: 0xD23274, symSize: 0xC }
  - { offset: 0x50F333, size: 0x8, addend: 0x0, symName: '__ZNSt3__110__function6__funcIZN4onnx11GetOpSchemaINS2_27DequantizeLinear_Onnx_ver23EEENS2_8OpSchemaEvE3$_0NS_9allocatorIS6_EEFvRNS2_16InferenceContextEEED1Ev', symObjAddr: 0xA4E8, symBinAddr: 0xD23280, symSize: 0x4 }
  - { offset: 0x50F35E, size: 0x8, addend: 0x0, symName: '__ZNSt3__110__function6__funcIZN4onnx11GetOpSchemaINS2_27DequantizeLinear_Onnx_ver23EEENS2_8OpSchemaEvE3$_0NS_9allocatorIS6_EEFvRNS2_16InferenceContextEEED0Ev', symObjAddr: 0xA4EC, symBinAddr: 0xD23284, symSize: 0x4 }
  - { offset: 0x50F413, size: 0x8, addend: 0x0, symName: '__ZNKSt3__110__function6__funcIZN4onnx11GetOpSchemaINS2_27DequantizeLinear_Onnx_ver23EEENS2_8OpSchemaEvE3$_0NS_9allocatorIS6_EEFvRNS2_16InferenceContextEEE7__cloneEv', symObjAddr: 0xA4F0, symBinAddr: 0xD23288, symSize: 0x24 }
  - { offset: 0x50F556, size: 0x8, addend: 0x0, symName: '__ZNKSt3__110__function6__funcIZN4onnx11GetOpSchemaINS2_27DequantizeLinear_Onnx_ver23EEENS2_8OpSchemaEvE3$_0NS_9allocatorIS6_EEFvRNS2_16InferenceContextEEE7__cloneEPNS0_6__baseISB_EE', symObjAddr: 0xA514, symBinAddr: 0xD232AC, symSize: 0x10 }
  - { offset: 0x50F58A, size: 0x8, addend: 0x0, symName: '__ZNKSt3__110__function6__funcIZN4onnx11GetOpSchemaINS2_27DequantizeLinear_Onnx_ver23EEENS2_8OpSchemaEvE3$_0NS_9allocatorIS6_EEFvRNS2_16InferenceContextEEE7__cloneEPNS0_6__baseISB_EE', symObjAddr: 0xA514, symBinAddr: 0xD232AC, symSize: 0x10 }
  - { offset: 0x50F5A6, size: 0x8, addend: 0x0, symName: '__ZNKSt3__110__function6__funcIZN4onnx11GetOpSchemaINS2_27DequantizeLinear_Onnx_ver23EEENS2_8OpSchemaEvE3$_0NS_9allocatorIS6_EEFvRNS2_16InferenceContextEEE7__cloneEPNS0_6__baseISB_EE', symObjAddr: 0xA514, symBinAddr: 0xD232AC, symSize: 0x10 }
  - { offset: 0x50F5C2, size: 0x8, addend: 0x0, symName: '__ZNSt3__110__function6__funcIZN4onnx11GetOpSchemaINS2_27DequantizeLinear_Onnx_ver23EEENS2_8OpSchemaEvE3$_0NS_9allocatorIS6_EEFvRNS2_16InferenceContextEEE7destroyEv', symObjAddr: 0xA524, symBinAddr: 0xD232BC, symSize: 0x4 }
  - { offset: 0x50F611, size: 0x8, addend: 0x0, symName: '__ZNSt3__110__function6__funcIZN4onnx11GetOpSchemaINS2_27DequantizeLinear_Onnx_ver23EEENS2_8OpSchemaEvE3$_0NS_9allocatorIS6_EEFvRNS2_16InferenceContextEEE18destroy_deallocateEv', symObjAddr: 0xA528, symBinAddr: 0xD232C0, symSize: 0x4 }
  - { offset: 0x50F644, size: 0x8, addend: 0x0, symName: '__ZNSt3__110__function6__funcIZN4onnx11GetOpSchemaINS2_27DequantizeLinear_Onnx_ver23EEENS2_8OpSchemaEvE3$_0NS_9allocatorIS6_EEFvRNS2_16InferenceContextEEE18destroy_deallocateEv', symObjAddr: 0xA528, symBinAddr: 0xD232C0, symSize: 0x4 }
  - { offset: 0x50F666, size: 0x8, addend: 0x0, symName: '__ZNSt3__110__function6__funcIZN4onnx11GetOpSchemaINS2_27DequantizeLinear_Onnx_ver23EEENS2_8OpSchemaEvE3$_0NS_9allocatorIS6_EEFvRNS2_16InferenceContextEEE18destroy_deallocateEv', symObjAddr: 0xA528, symBinAddr: 0xD232C0, symSize: 0x4 }
  - { offset: 0x50F691, size: 0x8, addend: 0x0, symName: '__ZNSt3__110__function6__funcIZN4onnx11GetOpSchemaINS2_27DequantizeLinear_Onnx_ver23EEENS2_8OpSchemaEvE3$_0NS_9allocatorIS6_EEFvRNS2_16InferenceContextEEE18destroy_deallocateEv', symObjAddr: 0xA528, symBinAddr: 0xD232C0, symSize: 0x4 }
  - { offset: 0x50F6B7, size: 0x8, addend: 0x0, symName: '__ZNSt3__110__function6__funcIZN4onnx11GetOpSchemaINS2_27DequantizeLinear_Onnx_ver23EEENS2_8OpSchemaEvE3$_0NS_9allocatorIS6_EEFvRNS2_16InferenceContextEEE18destroy_deallocateEv', symObjAddr: 0xA528, symBinAddr: 0xD232C0, symSize: 0x4 }
  - { offset: 0x50F779, size: 0x8, addend: 0x0, symName: '__ZNSt3__110__function6__funcIZN4onnx11GetOpSchemaINS2_27DequantizeLinear_Onnx_ver23EEENS2_8OpSchemaEvE3$_0NS_9allocatorIS6_EEFvRNS2_16InferenceContextEEEclESA_', symObjAddr: 0xA52C, symBinAddr: 0xD232C4, symSize: 0x21C }
  - { offset: 0x50FF40, size: 0x8, addend: 0x0, symName: '__ZNKSt3__110__function6__funcIZN4onnx11GetOpSchemaINS2_27DequantizeLinear_Onnx_ver23EEENS2_8OpSchemaEvE3$_0NS_9allocatorIS6_EEFvRNS2_16InferenceContextEEE6targetERKSt9type_info', symObjAddr: 0xA748, symBinAddr: 0xD234E0, symSize: 0x64 }
  - { offset: 0x50FFF3, size: 0x8, addend: 0x0, symName: '__ZNKSt3__110__function6__funcIZN4onnx11GetOpSchemaINS2_27DequantizeLinear_Onnx_ver23EEENS2_8OpSchemaEvE3$_0NS_9allocatorIS6_EEFvRNS2_16InferenceContextEEE11target_typeEv', symObjAddr: 0xA7AC, symBinAddr: 0xD23544, symSize: 0xC }
  - { offset: 0x510016, size: 0x8, addend: 0x0, symName: '__ZNSt3__110__function6__funcIZN4onnx11GetOpSchemaINS2_25QuantizeLinear_Onnx_ver21EEENS2_8OpSchemaEvE3$_0NS_9allocatorIS6_EEFvRNS2_16InferenceContextEEED1Ev', symObjAddr: 0xA7B8, symBinAddr: 0xD23550, symSize: 0x4 }
  - { offset: 0x510041, size: 0x8, addend: 0x0, symName: '__ZNSt3__110__function6__funcIZN4onnx11GetOpSchemaINS2_25QuantizeLinear_Onnx_ver21EEENS2_8OpSchemaEvE3$_0NS_9allocatorIS6_EEFvRNS2_16InferenceContextEEED0Ev', symObjAddr: 0xA7BC, symBinAddr: 0xD23554, symSize: 0x4 }
  - { offset: 0x5100F6, size: 0x8, addend: 0x0, symName: '__ZNKSt3__110__function6__funcIZN4onnx11GetOpSchemaINS2_25QuantizeLinear_Onnx_ver21EEENS2_8OpSchemaEvE3$_0NS_9allocatorIS6_EEFvRNS2_16InferenceContextEEE7__cloneEv', symObjAddr: 0xA7C0, symBinAddr: 0xD23558, symSize: 0x24 }
  - { offset: 0x510239, size: 0x8, addend: 0x0, symName: '__ZNKSt3__110__function6__funcIZN4onnx11GetOpSchemaINS2_25QuantizeLinear_Onnx_ver21EEENS2_8OpSchemaEvE3$_0NS_9allocatorIS6_EEFvRNS2_16InferenceContextEEE7__cloneEPNS0_6__baseISB_EE', symObjAddr: 0xA7E4, symBinAddr: 0xD2357C, symSize: 0x10 }
  - { offset: 0x51026D, size: 0x8, addend: 0x0, symName: '__ZNKSt3__110__function6__funcIZN4onnx11GetOpSchemaINS2_25QuantizeLinear_Onnx_ver21EEENS2_8OpSchemaEvE3$_0NS_9allocatorIS6_EEFvRNS2_16InferenceContextEEE7__cloneEPNS0_6__baseISB_EE', symObjAddr: 0xA7E4, symBinAddr: 0xD2357C, symSize: 0x10 }
  - { offset: 0x510289, size: 0x8, addend: 0x0, symName: '__ZNKSt3__110__function6__funcIZN4onnx11GetOpSchemaINS2_25QuantizeLinear_Onnx_ver21EEENS2_8OpSchemaEvE3$_0NS_9allocatorIS6_EEFvRNS2_16InferenceContextEEE7__cloneEPNS0_6__baseISB_EE', symObjAddr: 0xA7E4, symBinAddr: 0xD2357C, symSize: 0x10 }
  - { offset: 0x5102A5, size: 0x8, addend: 0x0, symName: '__ZNSt3__110__function6__funcIZN4onnx11GetOpSchemaINS2_25QuantizeLinear_Onnx_ver21EEENS2_8OpSchemaEvE3$_0NS_9allocatorIS6_EEFvRNS2_16InferenceContextEEE7destroyEv', symObjAddr: 0xA7F4, symBinAddr: 0xD2358C, symSize: 0x4 }
  - { offset: 0x5102F4, size: 0x8, addend: 0x0, symName: '__ZNSt3__110__function6__funcIZN4onnx11GetOpSchemaINS2_25QuantizeLinear_Onnx_ver21EEENS2_8OpSchemaEvE3$_0NS_9allocatorIS6_EEFvRNS2_16InferenceContextEEE18destroy_deallocateEv', symObjAddr: 0xA7F8, symBinAddr: 0xD23590, symSize: 0x4 }
  - { offset: 0x510327, size: 0x8, addend: 0x0, symName: '__ZNSt3__110__function6__funcIZN4onnx11GetOpSchemaINS2_25QuantizeLinear_Onnx_ver21EEENS2_8OpSchemaEvE3$_0NS_9allocatorIS6_EEFvRNS2_16InferenceContextEEE18destroy_deallocateEv', symObjAddr: 0xA7F8, symBinAddr: 0xD23590, symSize: 0x4 }
  - { offset: 0x510349, size: 0x8, addend: 0x0, symName: '__ZNSt3__110__function6__funcIZN4onnx11GetOpSchemaINS2_25QuantizeLinear_Onnx_ver21EEENS2_8OpSchemaEvE3$_0NS_9allocatorIS6_EEFvRNS2_16InferenceContextEEE18destroy_deallocateEv', symObjAddr: 0xA7F8, symBinAddr: 0xD23590, symSize: 0x4 }
  - { offset: 0x510374, size: 0x8, addend: 0x0, symName: '__ZNSt3__110__function6__funcIZN4onnx11GetOpSchemaINS2_25QuantizeLinear_Onnx_ver21EEENS2_8OpSchemaEvE3$_0NS_9allocatorIS6_EEFvRNS2_16InferenceContextEEE18destroy_deallocateEv', symObjAddr: 0xA7F8, symBinAddr: 0xD23590, symSize: 0x4 }
  - { offset: 0x51039A, size: 0x8, addend: 0x0, symName: '__ZNSt3__110__function6__funcIZN4onnx11GetOpSchemaINS2_25QuantizeLinear_Onnx_ver21EEENS2_8OpSchemaEvE3$_0NS_9allocatorIS6_EEFvRNS2_16InferenceContextEEE18destroy_deallocateEv', symObjAddr: 0xA7F8, symBinAddr: 0xD23590, symSize: 0x4 }
  - { offset: 0x510476, size: 0x8, addend: 0x0, symName: '__ZNSt3__110__function6__funcIZN4onnx11GetOpSchemaINS2_25QuantizeLinear_Onnx_ver21EEENS2_8OpSchemaEvE3$_0NS_9allocatorIS6_EEFvRNS2_16InferenceContextEEEclESA_', symObjAddr: 0xA7FC, symBinAddr: 0xD23594, symSize: 0x368 }
  - { offset: 0x510F5E, size: 0x8, addend: 0x0, symName: '__ZNKSt3__110__function6__funcIZN4onnx11GetOpSchemaINS2_25QuantizeLinear_Onnx_ver21EEENS2_8OpSchemaEvE3$_0NS_9allocatorIS6_EEFvRNS2_16InferenceContextEEE6targetERKSt9type_info', symObjAddr: 0xAB64, symBinAddr: 0xD238FC, symSize: 0x64 }
  - { offset: 0x511011, size: 0x8, addend: 0x0, symName: '__ZNKSt3__110__function6__funcIZN4onnx11GetOpSchemaINS2_25QuantizeLinear_Onnx_ver21EEENS2_8OpSchemaEvE3$_0NS_9allocatorIS6_EEFvRNS2_16InferenceContextEEE11target_typeEv', symObjAddr: 0xABC8, symBinAddr: 0xD23960, symSize: 0xC }
  - { offset: 0x511034, size: 0x8, addend: 0x0, symName: '__ZNSt3__110__function6__funcIZN4onnx11GetOpSchemaINS2_27DequantizeLinear_Onnx_ver21EEENS2_8OpSchemaEvE3$_0NS_9allocatorIS6_EEFvRNS2_16InferenceContextEEED1Ev', symObjAddr: 0xABD4, symBinAddr: 0xD2396C, symSize: 0x4 }
  - { offset: 0x51105F, size: 0x8, addend: 0x0, symName: '__ZNSt3__110__function6__funcIZN4onnx11GetOpSchemaINS2_27DequantizeLinear_Onnx_ver21EEENS2_8OpSchemaEvE3$_0NS_9allocatorIS6_EEFvRNS2_16InferenceContextEEED0Ev', symObjAddr: 0xABD8, symBinAddr: 0xD23970, symSize: 0x4 }
  - { offset: 0x511114, size: 0x8, addend: 0x0, symName: '__ZNKSt3__110__function6__funcIZN4onnx11GetOpSchemaINS2_27DequantizeLinear_Onnx_ver21EEENS2_8OpSchemaEvE3$_0NS_9allocatorIS6_EEFvRNS2_16InferenceContextEEE7__cloneEv', symObjAddr: 0xABDC, symBinAddr: 0xD23974, symSize: 0x24 }
  - { offset: 0x511257, size: 0x8, addend: 0x0, symName: '__ZNKSt3__110__function6__funcIZN4onnx11GetOpSchemaINS2_27DequantizeLinear_Onnx_ver21EEENS2_8OpSchemaEvE3$_0NS_9allocatorIS6_EEFvRNS2_16InferenceContextEEE7__cloneEPNS0_6__baseISB_EE', symObjAddr: 0xAC00, symBinAddr: 0xD23998, symSize: 0x10 }
  - { offset: 0x51128B, size: 0x8, addend: 0x0, symName: '__ZNKSt3__110__function6__funcIZN4onnx11GetOpSchemaINS2_27DequantizeLinear_Onnx_ver21EEENS2_8OpSchemaEvE3$_0NS_9allocatorIS6_EEFvRNS2_16InferenceContextEEE7__cloneEPNS0_6__baseISB_EE', symObjAddr: 0xAC00, symBinAddr: 0xD23998, symSize: 0x10 }
  - { offset: 0x5112A7, size: 0x8, addend: 0x0, symName: '__ZNKSt3__110__function6__funcIZN4onnx11GetOpSchemaINS2_27DequantizeLinear_Onnx_ver21EEENS2_8OpSchemaEvE3$_0NS_9allocatorIS6_EEFvRNS2_16InferenceContextEEE7__cloneEPNS0_6__baseISB_EE', symObjAddr: 0xAC00, symBinAddr: 0xD23998, symSize: 0x10 }
  - { offset: 0x5112C3, size: 0x8, addend: 0x0, symName: '__ZNSt3__110__function6__funcIZN4onnx11GetOpSchemaINS2_27DequantizeLinear_Onnx_ver21EEENS2_8OpSchemaEvE3$_0NS_9allocatorIS6_EEFvRNS2_16InferenceContextEEE7destroyEv', symObjAddr: 0xAC10, symBinAddr: 0xD239A8, symSize: 0x4 }
  - { offset: 0x511312, size: 0x8, addend: 0x0, symName: '__ZNSt3__110__function6__funcIZN4onnx11GetOpSchemaINS2_27DequantizeLinear_Onnx_ver21EEENS2_8OpSchemaEvE3$_0NS_9allocatorIS6_EEFvRNS2_16InferenceContextEEE18destroy_deallocateEv', symObjAddr: 0xAC14, symBinAddr: 0xD239AC, symSize: 0x4 }
  - { offset: 0x511345, size: 0x8, addend: 0x0, symName: '__ZNSt3__110__function6__funcIZN4onnx11GetOpSchemaINS2_27DequantizeLinear_Onnx_ver21EEENS2_8OpSchemaEvE3$_0NS_9allocatorIS6_EEFvRNS2_16InferenceContextEEE18destroy_deallocateEv', symObjAddr: 0xAC14, symBinAddr: 0xD239AC, symSize: 0x4 }
  - { offset: 0x511367, size: 0x8, addend: 0x0, symName: '__ZNSt3__110__function6__funcIZN4onnx11GetOpSchemaINS2_27DequantizeLinear_Onnx_ver21EEENS2_8OpSchemaEvE3$_0NS_9allocatorIS6_EEFvRNS2_16InferenceContextEEE18destroy_deallocateEv', symObjAddr: 0xAC14, symBinAddr: 0xD239AC, symSize: 0x4 }
  - { offset: 0x511392, size: 0x8, addend: 0x0, symName: '__ZNSt3__110__function6__funcIZN4onnx11GetOpSchemaINS2_27DequantizeLinear_Onnx_ver21EEENS2_8OpSchemaEvE3$_0NS_9allocatorIS6_EEFvRNS2_16InferenceContextEEE18destroy_deallocateEv', symObjAddr: 0xAC14, symBinAddr: 0xD239AC, symSize: 0x4 }
  - { offset: 0x5113B8, size: 0x8, addend: 0x0, symName: '__ZNSt3__110__function6__funcIZN4onnx11GetOpSchemaINS2_27DequantizeLinear_Onnx_ver21EEENS2_8OpSchemaEvE3$_0NS_9allocatorIS6_EEFvRNS2_16InferenceContextEEE18destroy_deallocateEv', symObjAddr: 0xAC14, symBinAddr: 0xD239AC, symSize: 0x4 }
  - { offset: 0x51146E, size: 0x8, addend: 0x0, symName: '__ZNSt3__110__function6__funcIZN4onnx11GetOpSchemaINS2_27DequantizeLinear_Onnx_ver21EEENS2_8OpSchemaEvE3$_0NS_9allocatorIS6_EEFvRNS2_16InferenceContextEEEclESA_', symObjAddr: 0xAC18, symBinAddr: 0xD239B0, symSize: 0xFC }
  - { offset: 0x511681, size: 0x8, addend: 0x0, symName: '__ZNKSt3__110__function6__funcIZN4onnx11GetOpSchemaINS2_27DequantizeLinear_Onnx_ver21EEENS2_8OpSchemaEvE3$_0NS_9allocatorIS6_EEFvRNS2_16InferenceContextEEE6targetERKSt9type_info', symObjAddr: 0xAD14, symBinAddr: 0xD23AAC, symSize: 0x64 }
  - { offset: 0x511734, size: 0x8, addend: 0x0, symName: '__ZNKSt3__110__function6__funcIZN4onnx11GetOpSchemaINS2_27DequantizeLinear_Onnx_ver21EEENS2_8OpSchemaEvE3$_0NS_9allocatorIS6_EEFvRNS2_16InferenceContextEEE11target_typeEv', symObjAddr: 0xAD78, symBinAddr: 0xD23B10, symSize: 0xC }
  - { offset: 0x511757, size: 0x8, addend: 0x0, symName: '__ZNSt3__110__function6__funcIZN4onnx11GetOpSchemaINS2_25QuantizeLinear_Onnx_ver19EEENS2_8OpSchemaEvE3$_0NS_9allocatorIS6_EEFvRNS2_16InferenceContextEEED1Ev', symObjAddr: 0xAD84, symBinAddr: 0xD23B1C, symSize: 0x4 }
  - { offset: 0x511782, size: 0x8, addend: 0x0, symName: '__ZNSt3__110__function6__funcIZN4onnx11GetOpSchemaINS2_25QuantizeLinear_Onnx_ver19EEENS2_8OpSchemaEvE3$_0NS_9allocatorIS6_EEFvRNS2_16InferenceContextEEED0Ev', symObjAddr: 0xAD88, symBinAddr: 0xD23B20, symSize: 0x4 }
  - { offset: 0x511837, size: 0x8, addend: 0x0, symName: '__ZNKSt3__110__function6__funcIZN4onnx11GetOpSchemaINS2_25QuantizeLinear_Onnx_ver19EEENS2_8OpSchemaEvE3$_0NS_9allocatorIS6_EEFvRNS2_16InferenceContextEEE7__cloneEv', symObjAddr: 0xAD8C, symBinAddr: 0xD23B24, symSize: 0x24 }
  - { offset: 0x51197A, size: 0x8, addend: 0x0, symName: '__ZNKSt3__110__function6__funcIZN4onnx11GetOpSchemaINS2_25QuantizeLinear_Onnx_ver19EEENS2_8OpSchemaEvE3$_0NS_9allocatorIS6_EEFvRNS2_16InferenceContextEEE7__cloneEPNS0_6__baseISB_EE', symObjAddr: 0xADB0, symBinAddr: 0xD23B48, symSize: 0x10 }
  - { offset: 0x5119AE, size: 0x8, addend: 0x0, symName: '__ZNKSt3__110__function6__funcIZN4onnx11GetOpSchemaINS2_25QuantizeLinear_Onnx_ver19EEENS2_8OpSchemaEvE3$_0NS_9allocatorIS6_EEFvRNS2_16InferenceContextEEE7__cloneEPNS0_6__baseISB_EE', symObjAddr: 0xADB0, symBinAddr: 0xD23B48, symSize: 0x10 }
  - { offset: 0x5119CA, size: 0x8, addend: 0x0, symName: '__ZNKSt3__110__function6__funcIZN4onnx11GetOpSchemaINS2_25QuantizeLinear_Onnx_ver19EEENS2_8OpSchemaEvE3$_0NS_9allocatorIS6_EEFvRNS2_16InferenceContextEEE7__cloneEPNS0_6__baseISB_EE', symObjAddr: 0xADB0, symBinAddr: 0xD23B48, symSize: 0x10 }
  - { offset: 0x5119E6, size: 0x8, addend: 0x0, symName: '__ZNSt3__110__function6__funcIZN4onnx11GetOpSchemaINS2_25QuantizeLinear_Onnx_ver19EEENS2_8OpSchemaEvE3$_0NS_9allocatorIS6_EEFvRNS2_16InferenceContextEEE7destroyEv', symObjAddr: 0xADC0, symBinAddr: 0xD23B58, symSize: 0x4 }
  - { offset: 0x511A35, size: 0x8, addend: 0x0, symName: '__ZNSt3__110__function6__funcIZN4onnx11GetOpSchemaINS2_25QuantizeLinear_Onnx_ver19EEENS2_8OpSchemaEvE3$_0NS_9allocatorIS6_EEFvRNS2_16InferenceContextEEE18destroy_deallocateEv', symObjAddr: 0xADC4, symBinAddr: 0xD23B5C, symSize: 0x4 }
  - { offset: 0x511A68, size: 0x8, addend: 0x0, symName: '__ZNSt3__110__function6__funcIZN4onnx11GetOpSchemaINS2_25QuantizeLinear_Onnx_ver19EEENS2_8OpSchemaEvE3$_0NS_9allocatorIS6_EEFvRNS2_16InferenceContextEEE18destroy_deallocateEv', symObjAddr: 0xADC4, symBinAddr: 0xD23B5C, symSize: 0x4 }
  - { offset: 0x511A8A, size: 0x8, addend: 0x0, symName: '__ZNSt3__110__function6__funcIZN4onnx11GetOpSchemaINS2_25QuantizeLinear_Onnx_ver19EEENS2_8OpSchemaEvE3$_0NS_9allocatorIS6_EEFvRNS2_16InferenceContextEEE18destroy_deallocateEv', symObjAddr: 0xADC4, symBinAddr: 0xD23B5C, symSize: 0x4 }
  - { offset: 0x511AB5, size: 0x8, addend: 0x0, symName: '__ZNSt3__110__function6__funcIZN4onnx11GetOpSchemaINS2_25QuantizeLinear_Onnx_ver19EEENS2_8OpSchemaEvE3$_0NS_9allocatorIS6_EEFvRNS2_16InferenceContextEEE18destroy_deallocateEv', symObjAddr: 0xADC4, symBinAddr: 0xD23B5C, symSize: 0x4 }
  - { offset: 0x511ADB, size: 0x8, addend: 0x0, symName: '__ZNSt3__110__function6__funcIZN4onnx11GetOpSchemaINS2_25QuantizeLinear_Onnx_ver19EEENS2_8OpSchemaEvE3$_0NS_9allocatorIS6_EEFvRNS2_16InferenceContextEEE18destroy_deallocateEv', symObjAddr: 0xADC4, symBinAddr: 0xD23B5C, symSize: 0x4 }
  - { offset: 0x511B91, size: 0x8, addend: 0x0, symName: '__ZNSt3__110__function6__funcIZN4onnx11GetOpSchemaINS2_25QuantizeLinear_Onnx_ver19EEENS2_8OpSchemaEvE3$_0NS_9allocatorIS6_EEFvRNS2_16InferenceContextEEEclESA_', symObjAddr: 0xADC8, symBinAddr: 0xD23B60, symSize: 0x140 }
  - { offset: 0x511E16, size: 0x8, addend: 0x0, symName: '__ZNKSt3__110__function6__funcIZN4onnx11GetOpSchemaINS2_25QuantizeLinear_Onnx_ver19EEENS2_8OpSchemaEvE3$_0NS_9allocatorIS6_EEFvRNS2_16InferenceContextEEE6targetERKSt9type_info', symObjAddr: 0xAF08, symBinAddr: 0xD23CA0, symSize: 0x64 }
  - { offset: 0x511EC9, size: 0x8, addend: 0x0, symName: '__ZNKSt3__110__function6__funcIZN4onnx11GetOpSchemaINS2_25QuantizeLinear_Onnx_ver19EEENS2_8OpSchemaEvE3$_0NS_9allocatorIS6_EEFvRNS2_16InferenceContextEEE11target_typeEv', symObjAddr: 0xAF6C, symBinAddr: 0xD23D04, symSize: 0xC }
  - { offset: 0x511EEC, size: 0x8, addend: 0x0, symName: '__ZNSt3__110__function6__funcIZN4onnx11GetOpSchemaINS2_27DequantizeLinear_Onnx_ver19EEENS2_8OpSchemaEvE3$_0NS_9allocatorIS6_EEFvRNS2_16InferenceContextEEED1Ev', symObjAddr: 0xAF78, symBinAddr: 0xD23D10, symSize: 0x4 }
  - { offset: 0x511F17, size: 0x8, addend: 0x0, symName: '__ZNSt3__110__function6__funcIZN4onnx11GetOpSchemaINS2_27DequantizeLinear_Onnx_ver19EEENS2_8OpSchemaEvE3$_0NS_9allocatorIS6_EEFvRNS2_16InferenceContextEEED0Ev', symObjAddr: 0xAF7C, symBinAddr: 0xD23D14, symSize: 0x4 }
  - { offset: 0x511FCC, size: 0x8, addend: 0x0, symName: '__ZNKSt3__110__function6__funcIZN4onnx11GetOpSchemaINS2_27DequantizeLinear_Onnx_ver19EEENS2_8OpSchemaEvE3$_0NS_9allocatorIS6_EEFvRNS2_16InferenceContextEEE7__cloneEv', symObjAddr: 0xAF80, symBinAddr: 0xD23D18, symSize: 0x24 }
  - { offset: 0x51210F, size: 0x8, addend: 0x0, symName: '__ZNKSt3__110__function6__funcIZN4onnx11GetOpSchemaINS2_27DequantizeLinear_Onnx_ver19EEENS2_8OpSchemaEvE3$_0NS_9allocatorIS6_EEFvRNS2_16InferenceContextEEE7__cloneEPNS0_6__baseISB_EE', symObjAddr: 0xAFA4, symBinAddr: 0xD23D3C, symSize: 0x10 }
  - { offset: 0x512143, size: 0x8, addend: 0x0, symName: '__ZNKSt3__110__function6__funcIZN4onnx11GetOpSchemaINS2_27DequantizeLinear_Onnx_ver19EEENS2_8OpSchemaEvE3$_0NS_9allocatorIS6_EEFvRNS2_16InferenceContextEEE7__cloneEPNS0_6__baseISB_EE', symObjAddr: 0xAFA4, symBinAddr: 0xD23D3C, symSize: 0x10 }
  - { offset: 0x51215F, size: 0x8, addend: 0x0, symName: '__ZNKSt3__110__function6__funcIZN4onnx11GetOpSchemaINS2_27DequantizeLinear_Onnx_ver19EEENS2_8OpSchemaEvE3$_0NS_9allocatorIS6_EEFvRNS2_16InferenceContextEEE7__cloneEPNS0_6__baseISB_EE', symObjAddr: 0xAFA4, symBinAddr: 0xD23D3C, symSize: 0x10 }
  - { offset: 0x51217B, size: 0x8, addend: 0x0, symName: '__ZNSt3__110__function6__funcIZN4onnx11GetOpSchemaINS2_27DequantizeLinear_Onnx_ver19EEENS2_8OpSchemaEvE3$_0NS_9allocatorIS6_EEFvRNS2_16InferenceContextEEE7destroyEv', symObjAddr: 0xAFB4, symBinAddr: 0xD23D4C, symSize: 0x4 }
  - { offset: 0x5121CA, size: 0x8, addend: 0x0, symName: '__ZNSt3__110__function6__funcIZN4onnx11GetOpSchemaINS2_27DequantizeLinear_Onnx_ver19EEENS2_8OpSchemaEvE3$_0NS_9allocatorIS6_EEFvRNS2_16InferenceContextEEE18destroy_deallocateEv', symObjAddr: 0xAFB8, symBinAddr: 0xD23D50, symSize: 0x4 }
  - { offset: 0x5121FD, size: 0x8, addend: 0x0, symName: '__ZNSt3__110__function6__funcIZN4onnx11GetOpSchemaINS2_27DequantizeLinear_Onnx_ver19EEENS2_8OpSchemaEvE3$_0NS_9allocatorIS6_EEFvRNS2_16InferenceContextEEE18destroy_deallocateEv', symObjAddr: 0xAFB8, symBinAddr: 0xD23D50, symSize: 0x4 }
  - { offset: 0x51221F, size: 0x8, addend: 0x0, symName: '__ZNSt3__110__function6__funcIZN4onnx11GetOpSchemaINS2_27DequantizeLinear_Onnx_ver19EEENS2_8OpSchemaEvE3$_0NS_9allocatorIS6_EEFvRNS2_16InferenceContextEEE18destroy_deallocateEv', symObjAddr: 0xAFB8, symBinAddr: 0xD23D50, symSize: 0x4 }
  - { offset: 0x51224A, size: 0x8, addend: 0x0, symName: '__ZNSt3__110__function6__funcIZN4onnx11GetOpSchemaINS2_27DequantizeLinear_Onnx_ver19EEENS2_8OpSchemaEvE3$_0NS_9allocatorIS6_EEFvRNS2_16InferenceContextEEE18destroy_deallocateEv', symObjAddr: 0xAFB8, symBinAddr: 0xD23D50, symSize: 0x4 }
  - { offset: 0x512270, size: 0x8, addend: 0x0, symName: '__ZNSt3__110__function6__funcIZN4onnx11GetOpSchemaINS2_27DequantizeLinear_Onnx_ver19EEENS2_8OpSchemaEvE3$_0NS_9allocatorIS6_EEFvRNS2_16InferenceContextEEE18destroy_deallocateEv', symObjAddr: 0xAFB8, symBinAddr: 0xD23D50, symSize: 0x4 }
  - { offset: 0x512326, size: 0x8, addend: 0x0, symName: '__ZNSt3__110__function6__funcIZN4onnx11GetOpSchemaINS2_27DequantizeLinear_Onnx_ver19EEENS2_8OpSchemaEvE3$_0NS_9allocatorIS6_EEFvRNS2_16InferenceContextEEEclESA_', symObjAddr: 0xAFBC, symBinAddr: 0xD23D54, symSize: 0xFC }
  - { offset: 0x512539, size: 0x8, addend: 0x0, symName: '__ZNKSt3__110__function6__funcIZN4onnx11GetOpSchemaINS2_27DequantizeLinear_Onnx_ver19EEENS2_8OpSchemaEvE3$_0NS_9allocatorIS6_EEFvRNS2_16InferenceContextEEE6targetERKSt9type_info', symObjAddr: 0xB0B8, symBinAddr: 0xD23E50, symSize: 0x64 }
  - { offset: 0x5125EC, size: 0x8, addend: 0x0, symName: '__ZNKSt3__110__function6__funcIZN4onnx11GetOpSchemaINS2_27DequantizeLinear_Onnx_ver19EEENS2_8OpSchemaEvE3$_0NS_9allocatorIS6_EEFvRNS2_16InferenceContextEEE11target_typeEv', symObjAddr: 0xB11C, symBinAddr: 0xD23EB4, symSize: 0xC }
  - { offset: 0x51260F, size: 0x8, addend: 0x0, symName: '__ZNSt3__110__function6__funcIZN4onnx11GetOpSchemaINS2_25QuantizeLinear_Onnx_ver13EEENS2_8OpSchemaEvE3$_0NS_9allocatorIS6_EEFvRNS2_16InferenceContextEEED1Ev', symObjAddr: 0xB128, symBinAddr: 0xD23EC0, symSize: 0x4 }
  - { offset: 0x51263A, size: 0x8, addend: 0x0, symName: '__ZNSt3__110__function6__funcIZN4onnx11GetOpSchemaINS2_25QuantizeLinear_Onnx_ver13EEENS2_8OpSchemaEvE3$_0NS_9allocatorIS6_EEFvRNS2_16InferenceContextEEED0Ev', symObjAddr: 0xB12C, symBinAddr: 0xD23EC4, symSize: 0x4 }
  - { offset: 0x5126EF, size: 0x8, addend: 0x0, symName: '__ZNKSt3__110__function6__funcIZN4onnx11GetOpSchemaINS2_25QuantizeLinear_Onnx_ver13EEENS2_8OpSchemaEvE3$_0NS_9allocatorIS6_EEFvRNS2_16InferenceContextEEE7__cloneEv', symObjAddr: 0xB130, symBinAddr: 0xD23EC8, symSize: 0x24 }
  - { offset: 0x512832, size: 0x8, addend: 0x0, symName: '__ZNKSt3__110__function6__funcIZN4onnx11GetOpSchemaINS2_25QuantizeLinear_Onnx_ver13EEENS2_8OpSchemaEvE3$_0NS_9allocatorIS6_EEFvRNS2_16InferenceContextEEE7__cloneEPNS0_6__baseISB_EE', symObjAddr: 0xB154, symBinAddr: 0xD23EEC, symSize: 0x10 }
  - { offset: 0x512866, size: 0x8, addend: 0x0, symName: '__ZNKSt3__110__function6__funcIZN4onnx11GetOpSchemaINS2_25QuantizeLinear_Onnx_ver13EEENS2_8OpSchemaEvE3$_0NS_9allocatorIS6_EEFvRNS2_16InferenceContextEEE7__cloneEPNS0_6__baseISB_EE', symObjAddr: 0xB154, symBinAddr: 0xD23EEC, symSize: 0x10 }
  - { offset: 0x512882, size: 0x8, addend: 0x0, symName: '__ZNKSt3__110__function6__funcIZN4onnx11GetOpSchemaINS2_25QuantizeLinear_Onnx_ver13EEENS2_8OpSchemaEvE3$_0NS_9allocatorIS6_EEFvRNS2_16InferenceContextEEE7__cloneEPNS0_6__baseISB_EE', symObjAddr: 0xB154, symBinAddr: 0xD23EEC, symSize: 0x10 }
  - { offset: 0x51289E, size: 0x8, addend: 0x0, symName: '__ZNSt3__110__function6__funcIZN4onnx11GetOpSchemaINS2_25QuantizeLinear_Onnx_ver13EEENS2_8OpSchemaEvE3$_0NS_9allocatorIS6_EEFvRNS2_16InferenceContextEEE7destroyEv', symObjAddr: 0xB164, symBinAddr: 0xD23EFC, symSize: 0x4 }
  - { offset: 0x5128ED, size: 0x8, addend: 0x0, symName: '__ZNSt3__110__function6__funcIZN4onnx11GetOpSchemaINS2_25QuantizeLinear_Onnx_ver13EEENS2_8OpSchemaEvE3$_0NS_9allocatorIS6_EEFvRNS2_16InferenceContextEEE18destroy_deallocateEv', symObjAddr: 0xB168, symBinAddr: 0xD23F00, symSize: 0x4 }
  - { offset: 0x512920, size: 0x8, addend: 0x0, symName: '__ZNSt3__110__function6__funcIZN4onnx11GetOpSchemaINS2_25QuantizeLinear_Onnx_ver13EEENS2_8OpSchemaEvE3$_0NS_9allocatorIS6_EEFvRNS2_16InferenceContextEEE18destroy_deallocateEv', symObjAddr: 0xB168, symBinAddr: 0xD23F00, symSize: 0x4 }
  - { offset: 0x512942, size: 0x8, addend: 0x0, symName: '__ZNSt3__110__function6__funcIZN4onnx11GetOpSchemaINS2_25QuantizeLinear_Onnx_ver13EEENS2_8OpSchemaEvE3$_0NS_9allocatorIS6_EEFvRNS2_16InferenceContextEEE18destroy_deallocateEv', symObjAddr: 0xB168, symBinAddr: 0xD23F00, symSize: 0x4 }
  - { offset: 0x51296D, size: 0x8, addend: 0x0, symName: '__ZNSt3__110__function6__funcIZN4onnx11GetOpSchemaINS2_25QuantizeLinear_Onnx_ver13EEENS2_8OpSchemaEvE3$_0NS_9allocatorIS6_EEFvRNS2_16InferenceContextEEE18destroy_deallocateEv', symObjAddr: 0xB168, symBinAddr: 0xD23F00, symSize: 0x4 }
  - { offset: 0x512993, size: 0x8, addend: 0x0, symName: '__ZNSt3__110__function6__funcIZN4onnx11GetOpSchemaINS2_25QuantizeLinear_Onnx_ver13EEENS2_8OpSchemaEvE3$_0NS_9allocatorIS6_EEFvRNS2_16InferenceContextEEE18destroy_deallocateEv', symObjAddr: 0xB168, symBinAddr: 0xD23F00, symSize: 0x4 }
  - { offset: 0x512A49, size: 0x8, addend: 0x0, symName: '__ZNSt3__110__function6__funcIZN4onnx11GetOpSchemaINS2_25QuantizeLinear_Onnx_ver13EEENS2_8OpSchemaEvE3$_0NS_9allocatorIS6_EEFvRNS2_16InferenceContextEEEclESA_', symObjAddr: 0xB16C, symBinAddr: 0xD23F04, symSize: 0x140 }
  - { offset: 0x512CCE, size: 0x8, addend: 0x0, symName: '__ZNKSt3__110__function6__funcIZN4onnx11GetOpSchemaINS2_25QuantizeLinear_Onnx_ver13EEENS2_8OpSchemaEvE3$_0NS_9allocatorIS6_EEFvRNS2_16InferenceContextEEE6targetERKSt9type_info', symObjAddr: 0xB2AC, symBinAddr: 0xD24044, symSize: 0x64 }
  - { offset: 0x512D81, size: 0x8, addend: 0x0, symName: '__ZNKSt3__110__function6__funcIZN4onnx11GetOpSchemaINS2_25QuantizeLinear_Onnx_ver13EEENS2_8OpSchemaEvE3$_0NS_9allocatorIS6_EEFvRNS2_16InferenceContextEEE11target_typeEv', symObjAddr: 0xB310, symBinAddr: 0xD240A8, symSize: 0xC }
  - { offset: 0x512DA4, size: 0x8, addend: 0x0, symName: '__ZNSt3__110__function6__funcIZN4onnx11GetOpSchemaINS2_27DequantizeLinear_Onnx_ver13EEENS2_8OpSchemaEvE3$_0NS_9allocatorIS6_EEFvRNS2_16InferenceContextEEED1Ev', symObjAddr: 0xB31C, symBinAddr: 0xD240B4, symSize: 0x4 }
  - { offset: 0x512DCF, size: 0x8, addend: 0x0, symName: '__ZNSt3__110__function6__funcIZN4onnx11GetOpSchemaINS2_27DequantizeLinear_Onnx_ver13EEENS2_8OpSchemaEvE3$_0NS_9allocatorIS6_EEFvRNS2_16InferenceContextEEED0Ev', symObjAddr: 0xB320, symBinAddr: 0xD240B8, symSize: 0x4 }
  - { offset: 0x512E84, size: 0x8, addend: 0x0, symName: '__ZNKSt3__110__function6__funcIZN4onnx11GetOpSchemaINS2_27DequantizeLinear_Onnx_ver13EEENS2_8OpSchemaEvE3$_0NS_9allocatorIS6_EEFvRNS2_16InferenceContextEEE7__cloneEv', symObjAddr: 0xB324, symBinAddr: 0xD240BC, symSize: 0x24 }
  - { offset: 0x512FC7, size: 0x8, addend: 0x0, symName: '__ZNKSt3__110__function6__funcIZN4onnx11GetOpSchemaINS2_27DequantizeLinear_Onnx_ver13EEENS2_8OpSchemaEvE3$_0NS_9allocatorIS6_EEFvRNS2_16InferenceContextEEE7__cloneEPNS0_6__baseISB_EE', symObjAddr: 0xB348, symBinAddr: 0xD240E0, symSize: 0x10 }
  - { offset: 0x512FFB, size: 0x8, addend: 0x0, symName: '__ZNKSt3__110__function6__funcIZN4onnx11GetOpSchemaINS2_27DequantizeLinear_Onnx_ver13EEENS2_8OpSchemaEvE3$_0NS_9allocatorIS6_EEFvRNS2_16InferenceContextEEE7__cloneEPNS0_6__baseISB_EE', symObjAddr: 0xB348, symBinAddr: 0xD240E0, symSize: 0x10 }
  - { offset: 0x513017, size: 0x8, addend: 0x0, symName: '__ZNKSt3__110__function6__funcIZN4onnx11GetOpSchemaINS2_27DequantizeLinear_Onnx_ver13EEENS2_8OpSchemaEvE3$_0NS_9allocatorIS6_EEFvRNS2_16InferenceContextEEE7__cloneEPNS0_6__baseISB_EE', symObjAddr: 0xB348, symBinAddr: 0xD240E0, symSize: 0x10 }
  - { offset: 0x513033, size: 0x8, addend: 0x0, symName: '__ZNSt3__110__function6__funcIZN4onnx11GetOpSchemaINS2_27DequantizeLinear_Onnx_ver13EEENS2_8OpSchemaEvE3$_0NS_9allocatorIS6_EEFvRNS2_16InferenceContextEEE7destroyEv', symObjAddr: 0xB358, symBinAddr: 0xD240F0, symSize: 0x4 }
  - { offset: 0x513082, size: 0x8, addend: 0x0, symName: '__ZNSt3__110__function6__funcIZN4onnx11GetOpSchemaINS2_27DequantizeLinear_Onnx_ver13EEENS2_8OpSchemaEvE3$_0NS_9allocatorIS6_EEFvRNS2_16InferenceContextEEE18destroy_deallocateEv', symObjAddr: 0xB35C, symBinAddr: 0xD240F4, symSize: 0x4 }
  - { offset: 0x5130B5, size: 0x8, addend: 0x0, symName: '__ZNSt3__110__function6__funcIZN4onnx11GetOpSchemaINS2_27DequantizeLinear_Onnx_ver13EEENS2_8OpSchemaEvE3$_0NS_9allocatorIS6_EEFvRNS2_16InferenceContextEEE18destroy_deallocateEv', symObjAddr: 0xB35C, symBinAddr: 0xD240F4, symSize: 0x4 }
  - { offset: 0x5130D7, size: 0x8, addend: 0x0, symName: '__ZNSt3__110__function6__funcIZN4onnx11GetOpSchemaINS2_27DequantizeLinear_Onnx_ver13EEENS2_8OpSchemaEvE3$_0NS_9allocatorIS6_EEFvRNS2_16InferenceContextEEE18destroy_deallocateEv', symObjAddr: 0xB35C, symBinAddr: 0xD240F4, symSize: 0x4 }
  - { offset: 0x513102, size: 0x8, addend: 0x0, symName: '__ZNSt3__110__function6__funcIZN4onnx11GetOpSchemaINS2_27DequantizeLinear_Onnx_ver13EEENS2_8OpSchemaEvE3$_0NS_9allocatorIS6_EEFvRNS2_16InferenceContextEEE18destroy_deallocateEv', symObjAddr: 0xB35C, symBinAddr: 0xD240F4, symSize: 0x4 }
  - { offset: 0x513128, size: 0x8, addend: 0x0, symName: '__ZNSt3__110__function6__funcIZN4onnx11GetOpSchemaINS2_27DequantizeLinear_Onnx_ver13EEENS2_8OpSchemaEvE3$_0NS_9allocatorIS6_EEFvRNS2_16InferenceContextEEE18destroy_deallocateEv', symObjAddr: 0xB35C, symBinAddr: 0xD240F4, symSize: 0x4 }
  - { offset: 0x513232, size: 0x8, addend: 0x0, symName: '__ZNSt3__110__function6__funcIZN4onnx11GetOpSchemaINS2_27DequantizeLinear_Onnx_ver13EEENS2_8OpSchemaEvE3$_0NS_9allocatorIS6_EEFvRNS2_16InferenceContextEEEclESA_', symObjAddr: 0xB360, symBinAddr: 0xD240F8, symSize: 0x158 }
  - { offset: 0x5135A6, size: 0x8, addend: 0x0, symName: '__ZNKSt3__110__function6__funcIZN4onnx11GetOpSchemaINS2_27DequantizeLinear_Onnx_ver13EEENS2_8OpSchemaEvE3$_0NS_9allocatorIS6_EEFvRNS2_16InferenceContextEEE6targetERKSt9type_info', symObjAddr: 0xB4B8, symBinAddr: 0xD24250, symSize: 0x64 }
  - { offset: 0x513659, size: 0x8, addend: 0x0, symName: '__ZNKSt3__110__function6__funcIZN4onnx11GetOpSchemaINS2_27DequantizeLinear_Onnx_ver13EEENS2_8OpSchemaEvE3$_0NS_9allocatorIS6_EEFvRNS2_16InferenceContextEEE11target_typeEv', symObjAddr: 0xB51C, symBinAddr: 0xD242B4, symSize: 0xC }
  - { offset: 0x51367C, size: 0x8, addend: 0x0, symName: '__ZNSt3__110__function6__funcIZN4onnx11GetOpSchemaINS2_25QuantizeLinear_Onnx_ver10EEENS2_8OpSchemaEvE3$_0NS_9allocatorIS6_EEFvRNS2_16InferenceContextEEED1Ev', symObjAddr: 0xB528, symBinAddr: 0xD242C0, symSize: 0x4 }
  - { offset: 0x5136A7, size: 0x8, addend: 0x0, symName: '__ZNSt3__110__function6__funcIZN4onnx11GetOpSchemaINS2_25QuantizeLinear_Onnx_ver10EEENS2_8OpSchemaEvE3$_0NS_9allocatorIS6_EEFvRNS2_16InferenceContextEEED0Ev', symObjAddr: 0xB52C, symBinAddr: 0xD242C4, symSize: 0x4 }
  - { offset: 0x51375C, size: 0x8, addend: 0x0, symName: '__ZNKSt3__110__function6__funcIZN4onnx11GetOpSchemaINS2_25QuantizeLinear_Onnx_ver10EEENS2_8OpSchemaEvE3$_0NS_9allocatorIS6_EEFvRNS2_16InferenceContextEEE7__cloneEv', symObjAddr: 0xB530, symBinAddr: 0xD242C8, symSize: 0x24 }
  - { offset: 0x51389F, size: 0x8, addend: 0x0, symName: '__ZNKSt3__110__function6__funcIZN4onnx11GetOpSchemaINS2_25QuantizeLinear_Onnx_ver10EEENS2_8OpSchemaEvE3$_0NS_9allocatorIS6_EEFvRNS2_16InferenceContextEEE7__cloneEPNS0_6__baseISB_EE', symObjAddr: 0xB554, symBinAddr: 0xD242EC, symSize: 0x10 }
  - { offset: 0x5138D3, size: 0x8, addend: 0x0, symName: '__ZNKSt3__110__function6__funcIZN4onnx11GetOpSchemaINS2_25QuantizeLinear_Onnx_ver10EEENS2_8OpSchemaEvE3$_0NS_9allocatorIS6_EEFvRNS2_16InferenceContextEEE7__cloneEPNS0_6__baseISB_EE', symObjAddr: 0xB554, symBinAddr: 0xD242EC, symSize: 0x10 }
  - { offset: 0x5138EF, size: 0x8, addend: 0x0, symName: '__ZNKSt3__110__function6__funcIZN4onnx11GetOpSchemaINS2_25QuantizeLinear_Onnx_ver10EEENS2_8OpSchemaEvE3$_0NS_9allocatorIS6_EEFvRNS2_16InferenceContextEEE7__cloneEPNS0_6__baseISB_EE', symObjAddr: 0xB554, symBinAddr: 0xD242EC, symSize: 0x10 }
  - { offset: 0x51390B, size: 0x8, addend: 0x0, symName: '__ZNSt3__110__function6__funcIZN4onnx11GetOpSchemaINS2_25QuantizeLinear_Onnx_ver10EEENS2_8OpSchemaEvE3$_0NS_9allocatorIS6_EEFvRNS2_16InferenceContextEEE7destroyEv', symObjAddr: 0xB564, symBinAddr: 0xD242FC, symSize: 0x4 }
  - { offset: 0x51395A, size: 0x8, addend: 0x0, symName: '__ZNSt3__110__function6__funcIZN4onnx11GetOpSchemaINS2_25QuantizeLinear_Onnx_ver10EEENS2_8OpSchemaEvE3$_0NS_9allocatorIS6_EEFvRNS2_16InferenceContextEEE18destroy_deallocateEv', symObjAddr: 0xB568, symBinAddr: 0xD24300, symSize: 0x4 }
  - { offset: 0x51398D, size: 0x8, addend: 0x0, symName: '__ZNSt3__110__function6__funcIZN4onnx11GetOpSchemaINS2_25QuantizeLinear_Onnx_ver10EEENS2_8OpSchemaEvE3$_0NS_9allocatorIS6_EEFvRNS2_16InferenceContextEEE18destroy_deallocateEv', symObjAddr: 0xB568, symBinAddr: 0xD24300, symSize: 0x4 }
  - { offset: 0x5139AF, size: 0x8, addend: 0x0, symName: '__ZNSt3__110__function6__funcIZN4onnx11GetOpSchemaINS2_25QuantizeLinear_Onnx_ver10EEENS2_8OpSchemaEvE3$_0NS_9allocatorIS6_EEFvRNS2_16InferenceContextEEE18destroy_deallocateEv', symObjAddr: 0xB568, symBinAddr: 0xD24300, symSize: 0x4 }
  - { offset: 0x5139DA, size: 0x8, addend: 0x0, symName: '__ZNSt3__110__function6__funcIZN4onnx11GetOpSchemaINS2_25QuantizeLinear_Onnx_ver10EEENS2_8OpSchemaEvE3$_0NS_9allocatorIS6_EEFvRNS2_16InferenceContextEEE18destroy_deallocateEv', symObjAddr: 0xB568, symBinAddr: 0xD24300, symSize: 0x4 }
  - { offset: 0x513A00, size: 0x8, addend: 0x0, symName: '__ZNSt3__110__function6__funcIZN4onnx11GetOpSchemaINS2_25QuantizeLinear_Onnx_ver10EEENS2_8OpSchemaEvE3$_0NS_9allocatorIS6_EEFvRNS2_16InferenceContextEEE18destroy_deallocateEv', symObjAddr: 0xB568, symBinAddr: 0xD24300, symSize: 0x4 }
  - { offset: 0x513AB6, size: 0x8, addend: 0x0, symName: '__ZNSt3__110__function6__funcIZN4onnx11GetOpSchemaINS2_25QuantizeLinear_Onnx_ver10EEENS2_8OpSchemaEvE3$_0NS_9allocatorIS6_EEFvRNS2_16InferenceContextEEEclESA_', symObjAddr: 0xB56C, symBinAddr: 0xD24304, symSize: 0x140 }
  - { offset: 0x513D3B, size: 0x8, addend: 0x0, symName: '__ZNKSt3__110__function6__funcIZN4onnx11GetOpSchemaINS2_25QuantizeLinear_Onnx_ver10EEENS2_8OpSchemaEvE3$_0NS_9allocatorIS6_EEFvRNS2_16InferenceContextEEE6targetERKSt9type_info', symObjAddr: 0xB6AC, symBinAddr: 0xD24444, symSize: 0x64 }
  - { offset: 0x513DEE, size: 0x8, addend: 0x0, symName: '__ZNKSt3__110__function6__funcIZN4onnx11GetOpSchemaINS2_25QuantizeLinear_Onnx_ver10EEENS2_8OpSchemaEvE3$_0NS_9allocatorIS6_EEFvRNS2_16InferenceContextEEE11target_typeEv', symObjAddr: 0xB710, symBinAddr: 0xD244A8, symSize: 0xC }
  - { offset: 0x513E11, size: 0x8, addend: 0x0, symName: '__ZNSt3__110__function6__funcIZN4onnx11GetOpSchemaINS2_27DequantizeLinear_Onnx_ver10EEENS2_8OpSchemaEvE3$_0NS_9allocatorIS6_EEFvRNS2_16InferenceContextEEED1Ev', symObjAddr: 0xB71C, symBinAddr: 0xD244B4, symSize: 0x4 }
  - { offset: 0x513E3C, size: 0x8, addend: 0x0, symName: '__ZNSt3__110__function6__funcIZN4onnx11GetOpSchemaINS2_27DequantizeLinear_Onnx_ver10EEENS2_8OpSchemaEvE3$_0NS_9allocatorIS6_EEFvRNS2_16InferenceContextEEED0Ev', symObjAddr: 0xB720, symBinAddr: 0xD244B8, symSize: 0x4 }
  - { offset: 0x513EF1, size: 0x8, addend: 0x0, symName: '__ZNKSt3__110__function6__funcIZN4onnx11GetOpSchemaINS2_27DequantizeLinear_Onnx_ver10EEENS2_8OpSchemaEvE3$_0NS_9allocatorIS6_EEFvRNS2_16InferenceContextEEE7__cloneEv', symObjAddr: 0xB724, symBinAddr: 0xD244BC, symSize: 0x24 }
  - { offset: 0x514034, size: 0x8, addend: 0x0, symName: '__ZNKSt3__110__function6__funcIZN4onnx11GetOpSchemaINS2_27DequantizeLinear_Onnx_ver10EEENS2_8OpSchemaEvE3$_0NS_9allocatorIS6_EEFvRNS2_16InferenceContextEEE7__cloneEPNS0_6__baseISB_EE', symObjAddr: 0xB748, symBinAddr: 0xD244E0, symSize: 0x10 }
  - { offset: 0x514068, size: 0x8, addend: 0x0, symName: '__ZNKSt3__110__function6__funcIZN4onnx11GetOpSchemaINS2_27DequantizeLinear_Onnx_ver10EEENS2_8OpSchemaEvE3$_0NS_9allocatorIS6_EEFvRNS2_16InferenceContextEEE7__cloneEPNS0_6__baseISB_EE', symObjAddr: 0xB748, symBinAddr: 0xD244E0, symSize: 0x10 }
  - { offset: 0x514084, size: 0x8, addend: 0x0, symName: '__ZNKSt3__110__function6__funcIZN4onnx11GetOpSchemaINS2_27DequantizeLinear_Onnx_ver10EEENS2_8OpSchemaEvE3$_0NS_9allocatorIS6_EEFvRNS2_16InferenceContextEEE7__cloneEPNS0_6__baseISB_EE', symObjAddr: 0xB748, symBinAddr: 0xD244E0, symSize: 0x10 }
  - { offset: 0x5140A0, size: 0x8, addend: 0x0, symName: '__ZNSt3__110__function6__funcIZN4onnx11GetOpSchemaINS2_27DequantizeLinear_Onnx_ver10EEENS2_8OpSchemaEvE3$_0NS_9allocatorIS6_EEFvRNS2_16InferenceContextEEE7destroyEv', symObjAddr: 0xB758, symBinAddr: 0xD244F0, symSize: 0x4 }
  - { offset: 0x5140EF, size: 0x8, addend: 0x0, symName: '__ZNSt3__110__function6__funcIZN4onnx11GetOpSchemaINS2_27DequantizeLinear_Onnx_ver10EEENS2_8OpSchemaEvE3$_0NS_9allocatorIS6_EEFvRNS2_16InferenceContextEEE18destroy_deallocateEv', symObjAddr: 0xB75C, symBinAddr: 0xD244F4, symSize: 0x4 }
  - { offset: 0x514122, size: 0x8, addend: 0x0, symName: '__ZNSt3__110__function6__funcIZN4onnx11GetOpSchemaINS2_27DequantizeLinear_Onnx_ver10EEENS2_8OpSchemaEvE3$_0NS_9allocatorIS6_EEFvRNS2_16InferenceContextEEE18destroy_deallocateEv', symObjAddr: 0xB75C, symBinAddr: 0xD244F4, symSize: 0x4 }
  - { offset: 0x514144, size: 0x8, addend: 0x0, symName: '__ZNSt3__110__function6__funcIZN4onnx11GetOpSchemaINS2_27DequantizeLinear_Onnx_ver10EEENS2_8OpSchemaEvE3$_0NS_9allocatorIS6_EEFvRNS2_16InferenceContextEEE18destroy_deallocateEv', symObjAddr: 0xB75C, symBinAddr: 0xD244F4, symSize: 0x4 }
  - { offset: 0x51416F, size: 0x8, addend: 0x0, symName: '__ZNSt3__110__function6__funcIZN4onnx11GetOpSchemaINS2_27DequantizeLinear_Onnx_ver10EEENS2_8OpSchemaEvE3$_0NS_9allocatorIS6_EEFvRNS2_16InferenceContextEEE18destroy_deallocateEv', symObjAddr: 0xB75C, symBinAddr: 0xD244F4, symSize: 0x4 }
  - { offset: 0x514195, size: 0x8, addend: 0x0, symName: '__ZNSt3__110__function6__funcIZN4onnx11GetOpSchemaINS2_27DequantizeLinear_Onnx_ver10EEENS2_8OpSchemaEvE3$_0NS_9allocatorIS6_EEFvRNS2_16InferenceContextEEE18destroy_deallocateEv', symObjAddr: 0xB75C, symBinAddr: 0xD244F4, symSize: 0x4 }
  - { offset: 0x514257, size: 0x8, addend: 0x0, symName: '__ZNSt3__110__function6__funcIZN4onnx11GetOpSchemaINS2_27DequantizeLinear_Onnx_ver10EEENS2_8OpSchemaEvE3$_0NS_9allocatorIS6_EEFvRNS2_16InferenceContextEEEclESA_', symObjAddr: 0xB760, symBinAddr: 0xD244F8, symSize: 0x158 }
  - { offset: 0x5145CB, size: 0x8, addend: 0x0, symName: '__ZNKSt3__110__function6__funcIZN4onnx11GetOpSchemaINS2_27DequantizeLinear_Onnx_ver10EEENS2_8OpSchemaEvE3$_0NS_9allocatorIS6_EEFvRNS2_16InferenceContextEEE6targetERKSt9type_info', symObjAddr: 0xB8B8, symBinAddr: 0xD24650, symSize: 0x64 }
  - { offset: 0x51467E, size: 0x8, addend: 0x0, symName: '__ZNKSt3__110__function6__funcIZN4onnx11GetOpSchemaINS2_27DequantizeLinear_Onnx_ver10EEENS2_8OpSchemaEvE3$_0NS_9allocatorIS6_EEFvRNS2_16InferenceContextEEE11target_typeEv', symObjAddr: 0xB91C, symBinAddr: 0xD246B4, symSize: 0xC }
  - { offset: 0x53A8FC, size: 0x8, addend: 0x0, symName: __ZN4onnx17ReduceOpGeneratorEPKcS1_bbS1_RKNSt3__18functionIFbRKNS_24FunctionBodyBuildContextERKNS_8OpSchemaERNS_13FunctionProtoEEEEb, symObjAddr: 0x0, symBinAddr: 0xD2F410, symSize: 0x1A8 }
  - { offset: 0x548976, size: 0x8, addend: 0x0, symName: '__ZNSt3__110__function6__funcIZN4onnx17ReduceOpGeneratorEPKcS4_bbS4_RKNS_8functionIFbRKNS2_24FunctionBodyBuildContextERKNS2_8OpSchemaERNS2_13FunctionProtoEEEEbE3$_0NS_9allocatorISI_EEFvRS9_EED1Ev', symObjAddr: 0x1E0, symBinAddr: 0xD2F5B8, symSize: 0x58 }
  - { offset: 0x548B29, size: 0x8, addend: 0x0, symName: '__ZNSt3__110__function6__funcIZN4onnx17ReduceOpGeneratorEPKcS4_bbS4_RKNS_8functionIFbRKNS2_24FunctionBodyBuildContextERKNS2_8OpSchemaERNS2_13FunctionProtoEEEEbE3$_0NS_9allocatorISI_EEFvRS9_EED0Ev', symObjAddr: 0x238, symBinAddr: 0xD2F610, symSize: 0x58 }
  - { offset: 0x548F75, size: 0x8, addend: 0x0, symName: '__ZNKSt3__110__function6__funcIZN4onnx17ReduceOpGeneratorEPKcS4_bbS4_RKNS_8functionIFbRKNS2_24FunctionBodyBuildContextERKNS2_8OpSchemaERNS2_13FunctionProtoEEEEbE3$_0NS_9allocatorISI_EEFvRS9_EE7__cloneEv', symObjAddr: 0x290, symBinAddr: 0xD2F668, symSize: 0xAC }
  - { offset: 0x54943C, size: 0x8, addend: 0x0, symName: '__ZNKSt3__110__function6__funcIZN4onnx17ReduceOpGeneratorEPKcS4_bbS4_RKNS_8functionIFbRKNS2_24FunctionBodyBuildContextERKNS2_8OpSchemaERNS2_13FunctionProtoEEEEbE3$_0NS_9allocatorISI_EEFvRS9_EE7__cloneEPNS0_6__baseISM_EE', symObjAddr: 0x33C, symBinAddr: 0xD2F714, symSize: 0x98 }
  - { offset: 0x54963A, size: 0x8, addend: 0x0, symName: '__ZNSt3__110__function6__funcIZN4onnx17ReduceOpGeneratorEPKcS4_bbS4_RKNS_8functionIFbRKNS2_24FunctionBodyBuildContextERKNS2_8OpSchemaERNS2_13FunctionProtoEEEEbE3$_0NS_9allocatorISI_EEFvRS9_EE7destroyEv', symObjAddr: 0x3D4, symBinAddr: 0xD2F7AC, symSize: 0x38 }
  - { offset: 0x549663, size: 0x8, addend: 0x0, symName: '__ZNSt3__110__function6__funcIZN4onnx17ReduceOpGeneratorEPKcS4_bbS4_RKNS_8functionIFbRKNS2_24FunctionBodyBuildContextERKNS2_8OpSchemaERNS2_13FunctionProtoEEEEbE3$_0NS_9allocatorISI_EEFvRS9_EE7destroyEv', symObjAddr: 0x3D4, symBinAddr: 0xD2F7AC, symSize: 0x38 }
  - { offset: 0x549681, size: 0x8, addend: 0x0, symName: '__ZNSt3__110__function6__funcIZN4onnx17ReduceOpGeneratorEPKcS4_bbS4_RKNS_8functionIFbRKNS2_24FunctionBodyBuildContextERKNS2_8OpSchemaERNS2_13FunctionProtoEEEEbE3$_0NS_9allocatorISI_EEFvRS9_EE7destroyEv', symObjAddr: 0x3D4, symBinAddr: 0xD2F7AC, symSize: 0x38 }
  - { offset: 0x54969E, size: 0x8, addend: 0x0, symName: '__ZNSt3__110__function6__funcIZN4onnx17ReduceOpGeneratorEPKcS4_bbS4_RKNS_8functionIFbRKNS2_24FunctionBodyBuildContextERKNS2_8OpSchemaERNS2_13FunctionProtoEEEEbE3$_0NS_9allocatorISI_EEFvRS9_EE7destroyEv', symObjAddr: 0x3D4, symBinAddr: 0xD2F7AC, symSize: 0x38 }
  - { offset: 0x5496BB, size: 0x8, addend: 0x0, symName: '__ZNSt3__110__function6__funcIZN4onnx17ReduceOpGeneratorEPKcS4_bbS4_RKNS_8functionIFbRKNS2_24FunctionBodyBuildContextERKNS2_8OpSchemaERNS2_13FunctionProtoEEEEbE3$_0NS_9allocatorISI_EEFvRS9_EE7destroyEv', symObjAddr: 0x3D4, symBinAddr: 0xD2F7AC, symSize: 0x38 }
  - { offset: 0x5496D8, size: 0x8, addend: 0x0, symName: '__ZNSt3__110__function6__funcIZN4onnx17ReduceOpGeneratorEPKcS4_bbS4_RKNS_8functionIFbRKNS2_24FunctionBodyBuildContextERKNS2_8OpSchemaERNS2_13FunctionProtoEEEEbE3$_0NS_9allocatorISI_EEFvRS9_EE7destroyEv', symObjAddr: 0x3D4, symBinAddr: 0xD2F7AC, symSize: 0x38 }
  - { offset: 0x5496F5, size: 0x8, addend: 0x0, symName: '__ZNSt3__110__function6__funcIZN4onnx17ReduceOpGeneratorEPKcS4_bbS4_RKNS_8functionIFbRKNS2_24FunctionBodyBuildContextERKNS2_8OpSchemaERNS2_13FunctionProtoEEEEbE3$_0NS_9allocatorISI_EEFvRS9_EE7destroyEv', symObjAddr: 0x3D4, symBinAddr: 0xD2F7AC, symSize: 0x38 }
  - { offset: 0x5497A9, size: 0x8, addend: 0x0, symName: '__ZNSt3__110__function6__funcIZN4onnx17ReduceOpGeneratorEPKcS4_bbS4_RKNS_8functionIFbRKNS2_24FunctionBodyBuildContextERKNS2_8OpSchemaERNS2_13FunctionProtoEEEEbE3$_0NS_9allocatorISI_EEFvRS9_EE18destroy_deallocateEv', symObjAddr: 0x40C, symBinAddr: 0xD2F7E4, symSize: 0x4C }
  - { offset: 0x54A302, size: 0x8, addend: 0x0, symName: '__ZNSt3__110__function6__funcIZN4onnx17ReduceOpGeneratorEPKcS4_bbS4_RKNS_8functionIFbRKNS2_24FunctionBodyBuildContextERKNS2_8OpSchemaERNS2_13FunctionProtoEEEEbE3$_0NS_9allocatorISI_EEFvRS9_EEclESL_', symObjAddr: 0x458, symBinAddr: 0xD2F830, symSize: 0x5D0 }
  - { offset: 0x54CCE8, size: 0x8, addend: 0x0, symName: '__ZNKSt3__110__function6__funcIZN4onnx17ReduceOpGeneratorEPKcS4_bbS4_RKNS_8functionIFbRKNS2_24FunctionBodyBuildContextERKNS2_8OpSchemaERNS2_13FunctionProtoEEEEbE3$_0NS_9allocatorISI_EEFvRS9_EE6targetERKSt9type_info', symObjAddr: 0xA28, symBinAddr: 0xD2FE00, symSize: 0x64 }
  - { offset: 0x54CDB2, size: 0x8, addend: 0x0, symName: '__ZNKSt3__110__function6__funcIZN4onnx17ReduceOpGeneratorEPKcS4_bbS4_RKNS_8functionIFbRKNS2_24FunctionBodyBuildContextERKNS2_8OpSchemaERNS2_13FunctionProtoEEEEbE3$_0NS_9allocatorISI_EEFvRS9_EE11target_typeEv', symObjAddr: 0xA8C, symBinAddr: 0xD2FE64, symSize: 0xC }
  - { offset: 0x54DDDF, size: 0x8, addend: 0x0, symName: '__ZNSt3__110__function6__funcIZZN4onnx17ReduceOpGeneratorEPKcS4_bbS4_RKNS_8functionIFbRKNS2_24FunctionBodyBuildContextERKNS2_8OpSchemaERNS2_13FunctionProtoEEEEbENK3$_0clERS9_EUlRNS2_16InferenceContextEE_NS_9allocatorISM_EEFvSL_EED1Ev', symObjAddr: 0x15C4, symBinAddr: 0xD2FE70, symSize: 0x4 }
  - { offset: 0x54DE0A, size: 0x8, addend: 0x0, symName: '__ZNSt3__110__function6__funcIZZN4onnx17ReduceOpGeneratorEPKcS4_bbS4_RKNS_8functionIFbRKNS2_24FunctionBodyBuildContextERKNS2_8OpSchemaERNS2_13FunctionProtoEEEEbENK3$_0clERS9_EUlRNS2_16InferenceContextEE_NS_9allocatorISM_EEFvSL_EED0Ev', symObjAddr: 0x15C8, symBinAddr: 0xD2FE74, symSize: 0x4 }
  - { offset: 0x54DEBF, size: 0x8, addend: 0x0, symName: '__ZNKSt3__110__function6__funcIZZN4onnx17ReduceOpGeneratorEPKcS4_bbS4_RKNS_8functionIFbRKNS2_24FunctionBodyBuildContextERKNS2_8OpSchemaERNS2_13FunctionProtoEEEEbENK3$_0clERS9_EUlRNS2_16InferenceContextEE_NS_9allocatorISM_EEFvSL_EE7__cloneEv', symObjAddr: 0x15CC, symBinAddr: 0xD2FE78, symSize: 0x24 }
  - { offset: 0x54E002, size: 0x8, addend: 0x0, symName: '__ZNKSt3__110__function6__funcIZZN4onnx17ReduceOpGeneratorEPKcS4_bbS4_RKNS_8functionIFbRKNS2_24FunctionBodyBuildContextERKNS2_8OpSchemaERNS2_13FunctionProtoEEEEbENK3$_0clERS9_EUlRNS2_16InferenceContextEE_NS_9allocatorISM_EEFvSL_EE7__cloneEPNS0_6__baseISP_EE', symObjAddr: 0x15F0, symBinAddr: 0xD2FE9C, symSize: 0x10 }
  - { offset: 0x54E036, size: 0x8, addend: 0x0, symName: '__ZNKSt3__110__function6__funcIZZN4onnx17ReduceOpGeneratorEPKcS4_bbS4_RKNS_8functionIFbRKNS2_24FunctionBodyBuildContextERKNS2_8OpSchemaERNS2_13FunctionProtoEEEEbENK3$_0clERS9_EUlRNS2_16InferenceContextEE_NS_9allocatorISM_EEFvSL_EE7__cloneEPNS0_6__baseISP_EE', symObjAddr: 0x15F0, symBinAddr: 0xD2FE9C, symSize: 0x10 }
  - { offset: 0x54E052, size: 0x8, addend: 0x0, symName: '__ZNKSt3__110__function6__funcIZZN4onnx17ReduceOpGeneratorEPKcS4_bbS4_RKNS_8functionIFbRKNS2_24FunctionBodyBuildContextERKNS2_8OpSchemaERNS2_13FunctionProtoEEEEbENK3$_0clERS9_EUlRNS2_16InferenceContextEE_NS_9allocatorISM_EEFvSL_EE7__cloneEPNS0_6__baseISP_EE', symObjAddr: 0x15F0, symBinAddr: 0xD2FE9C, symSize: 0x10 }
  - { offset: 0x54E06E, size: 0x8, addend: 0x0, symName: '__ZNSt3__110__function6__funcIZZN4onnx17ReduceOpGeneratorEPKcS4_bbS4_RKNS_8functionIFbRKNS2_24FunctionBodyBuildContextERKNS2_8OpSchemaERNS2_13FunctionProtoEEEEbENK3$_0clERS9_EUlRNS2_16InferenceContextEE_NS_9allocatorISM_EEFvSL_EE7destroyEv', symObjAddr: 0x1600, symBinAddr: 0xD2FEAC, symSize: 0x4 }
  - { offset: 0x54E0BD, size: 0x8, addend: 0x0, symName: '__ZNSt3__110__function6__funcIZZN4onnx17ReduceOpGeneratorEPKcS4_bbS4_RKNS_8functionIFbRKNS2_24FunctionBodyBuildContextERKNS2_8OpSchemaERNS2_13FunctionProtoEEEEbENK3$_0clERS9_EUlRNS2_16InferenceContextEE_NS_9allocatorISM_EEFvSL_EE18destroy_deallocateEv', symObjAddr: 0x1604, symBinAddr: 0xD2FEB0, symSize: 0x4 }
  - { offset: 0x54E0F0, size: 0x8, addend: 0x0, symName: '__ZNSt3__110__function6__funcIZZN4onnx17ReduceOpGeneratorEPKcS4_bbS4_RKNS_8functionIFbRKNS2_24FunctionBodyBuildContextERKNS2_8OpSchemaERNS2_13FunctionProtoEEEEbENK3$_0clERS9_EUlRNS2_16InferenceContextEE_NS_9allocatorISM_EEFvSL_EE18destroy_deallocateEv', symObjAddr: 0x1604, symBinAddr: 0xD2FEB0, symSize: 0x4 }
  - { offset: 0x54E112, size: 0x8, addend: 0x0, symName: '__ZNSt3__110__function6__funcIZZN4onnx17ReduceOpGeneratorEPKcS4_bbS4_RKNS_8functionIFbRKNS2_24FunctionBodyBuildContextERKNS2_8OpSchemaERNS2_13FunctionProtoEEEEbENK3$_0clERS9_EUlRNS2_16InferenceContextEE_NS_9allocatorISM_EEFvSL_EE18destroy_deallocateEv', symObjAddr: 0x1604, symBinAddr: 0xD2FEB0, symSize: 0x4 }
  - { offset: 0x54E13D, size: 0x8, addend: 0x0, symName: '__ZNSt3__110__function6__funcIZZN4onnx17ReduceOpGeneratorEPKcS4_bbS4_RKNS_8functionIFbRKNS2_24FunctionBodyBuildContextERKNS2_8OpSchemaERNS2_13FunctionProtoEEEEbENK3$_0clERS9_EUlRNS2_16InferenceContextEE_NS_9allocatorISM_EEFvSL_EE18destroy_deallocateEv', symObjAddr: 0x1604, symBinAddr: 0xD2FEB0, symSize: 0x4 }
  - { offset: 0x54E163, size: 0x8, addend: 0x0, symName: '__ZNSt3__110__function6__funcIZZN4onnx17ReduceOpGeneratorEPKcS4_bbS4_RKNS_8functionIFbRKNS2_24FunctionBodyBuildContextERKNS2_8OpSchemaERNS2_13FunctionProtoEEEEbENK3$_0clERS9_EUlRNS2_16InferenceContextEE_NS_9allocatorISM_EEFvSL_EE18destroy_deallocateEv', symObjAddr: 0x1604, symBinAddr: 0xD2FEB0, symSize: 0x4 }
  - { offset: 0x54EACF, size: 0x8, addend: 0x0, symName: '__ZNSt3__110__function6__funcIZZN4onnx17ReduceOpGeneratorEPKcS4_bbS4_RKNS_8functionIFbRKNS2_24FunctionBodyBuildContextERKNS2_8OpSchemaERNS2_13FunctionProtoEEEEbENK3$_0clERS9_EUlRNS2_16InferenceContextEE_NS_9allocatorISM_EEFvSL_EEclESL_', symObjAddr: 0x1608, symBinAddr: 0xD2FEB4, symSize: 0x7D4 }
  - { offset: 0x551104, size: 0x8, addend: 0x0, symName: '__ZNKSt3__110__function6__funcIZZN4onnx17ReduceOpGeneratorEPKcS4_bbS4_RKNS_8functionIFbRKNS2_24FunctionBodyBuildContextERKNS2_8OpSchemaERNS2_13FunctionProtoEEEEbENK3$_0clERS9_EUlRNS2_16InferenceContextEE_NS_9allocatorISM_EEFvSL_EE6targetERKSt9type_info', symObjAddr: 0x1DDC, symBinAddr: 0xD30688, symSize: 0x64 }
  - { offset: 0x5511B7, size: 0x8, addend: 0x0, symName: '__ZNKSt3__110__function6__funcIZZN4onnx17ReduceOpGeneratorEPKcS4_bbS4_RKNS_8functionIFbRKNS2_24FunctionBodyBuildContextERKNS2_8OpSchemaERNS2_13FunctionProtoEEEEbENK3$_0clERS9_EUlRNS2_16InferenceContextEE_NS_9allocatorISM_EEFvSL_EE11target_typeEv', symObjAddr: 0x1E40, symBinAddr: 0xD306EC, symSize: 0xC }
  - { offset: 0x553FD6, size: 0x8, addend: 0x0, symName: __ZN4onnx16OpSchemaRegistry21loaded_schema_versionE, symObjAddr: 0x2D800, symBinAddr: 0x1574E60, symSize: 0x0 }
  - { offset: 0x560136, size: 0x8, addend: 0x0, symName: __ZN4onnx14RegisterSchemaERKNS_8OpSchemaEibb, symObjAddr: 0x0, symBinAddr: 0xD38968, symSize: 0xA0 }
  - { offset: 0x560250, size: 0x8, addend: 0x0, symName: __ZN4onnx14RegisterSchemaEONS_8OpSchemaEibb, symObjAddr: 0xA0, symBinAddr: 0xD38A08, symSize: 0xD0 }
  - { offset: 0x56032D, size: 0x8, addend: 0x0, symName: __ZN4onnx16DeregisterSchemaERKNSt3__112basic_stringIcNS0_11char_traitsIcEENS0_9allocatorIcEEEEiS8_, symObjAddr: 0x658, symBinAddr: 0xD38AD8, symSize: 0x4 }
  - { offset: 0x560372, size: 0x8, addend: 0x0, symName: __ZN4onnx16DeregisterSchemaERKNSt3__112basic_stringIcNS0_11char_traitsIcEENS0_9allocatorIcEEEEiS8_, symObjAddr: 0x658, symBinAddr: 0xD38AD8, symSize: 0x4 }
  - { offset: 0x560392, size: 0x8, addend: 0x0, symName: __ZN4onnx10MakeStringIJNSt3__112basic_stringIcNS1_11char_traitsIcEENS1_9allocatorIcEEEEA24_cS7_EEES7_DpRKT_, symObjAddr: 0x1898, symBinAddr: 0xD39CBC, symSize: 0x208 }
  - { offset: 0x560A72, size: 0x8, addend: 0x0, symName: __ZN4onnx10MakeStringIJNSt3__112basic_stringIcNS1_11char_traitsIcEENS1_9allocatorIcEEEEA23_cS7_EEES7_DpRKT_, symObjAddr: 0x1AA0, symBinAddr: 0xD39EC4, symSize: 0x208 }
  - { offset: 0x561152, size: 0x8, addend: 0x0, symName: __ZN4onnx10MakeStringIJNSt3__112basic_stringIcNS1_11char_traitsIcEENS1_9allocatorIcEEEEA11_cS7_A25_cS7_EEES7_DpRKT_, symObjAddr: 0x1610, symBinAddr: 0xD39A6C, symSize: 0x250 }
  - { offset: 0x5619F1, size: 0x8, addend: 0x0, symName: __ZN4onnx10MakeStringIJNSt3__112basic_stringIcNS1_11char_traitsIcEENS1_9allocatorIcEEEEA17_ciA20_ciA7_ciA3_cEEES7_DpRKT_, symObjAddr: 0x4CD0, symBinAddr: 0xD3CC14, symSize: 0x278 }
  - { offset: 0x56240C, size: 0x8, addend: 0x0, symName: __ZN4onnx10MakeStringIJNSt3__112basic_stringIcNS1_11char_traitsIcEENS1_9allocatorIcEEEEA17_ciA29_cEEES7_DpRKT_, symObjAddr: 0x4F48, symBinAddr: 0xD3CE8C, symSize: 0x218 }
  - { offset: 0x562B47, size: 0x8, addend: 0x0, symName: __ZN4onnx10MakeStringIJNSt3__112basic_stringIcNS1_11char_traitsIcEENS1_9allocatorIcEEEEA18_ciA20_ciA7_ciA3_cEEES7_DpRKT_, symObjAddr: 0x5160, symBinAddr: 0xD3D0A4, symSize: 0x278 }
  - { offset: 0x563562, size: 0x8, addend: 0x0, symName: __ZN4onnx10MakeStringIJNSt3__112basic_stringIcNS1_11char_traitsIcEENS1_9allocatorIcEEEEA18_ciA30_cEEES7_DpRKT_, symObjAddr: 0x53D8, symBinAddr: 0xD3D31C, symSize: 0x218 }
  - { offset: 0x564009, size: 0x8, addend: 0x0, symName: __ZN4onnx10MakeStringIJA7_cNSt3__112basic_stringIcNS2_11char_traitsIcEENS2_9allocatorIcEEEEA11_ciA55_cEEES8_DpRKT_, symObjAddr: 0x2E9C, symBinAddr: 0xD3B23C, symSize: 0x234 }
  - { offset: 0x564825, size: 0x8, addend: 0x0, symName: __ZN4onnx10MakeStringIJA7_cNSt3__112basic_stringIcNS2_11char_traitsIcEENS2_9allocatorIcEEEEA12_ciA55_cEEES8_DpRKT_, symObjAddr: 0x3338, symBinAddr: 0xD3B6D8, symSize: 0x234 }
  - { offset: 0x565041, size: 0x8, addend: 0x0, symName: __ZN4onnx10MakeStringIJA12_cNSt3__112basic_stringIcNS2_11char_traitsIcEENS2_9allocatorIcEEEEA44_cEEES8_DpRKT_, symObjAddr: 0x3F18, symBinAddr: 0xD3BFC8, symSize: 0x200 }
  - { offset: 0x56571D, size: 0x8, addend: 0x0, symName: __ZN4onnx10MakeStringIJA21_cNSt3__112basic_stringIcNS2_11char_traitsIcEENS2_9allocatorIcEEEEA14_cEEES8_DpRKT_, symObjAddr: 0x4318, symBinAddr: 0xD3C3C8, symSize: 0x200 }
  - { offset: 0x566239, size: 0x8, addend: 0x0, symName: __ZN4onnx10MakeStringIJA31_cNSt3__112basic_stringIcNS2_11char_traitsIcEENS2_9allocatorIcEEEEA15_cS8_A13_cS8_A2_cEEES8_DpRKT_, symObjAddr: 0x3998, symBinAddr: 0xD3BB38, symSize: 0x290 }
  - { offset: 0x566CAF, size: 0x8, addend: 0x0, symName: __ZN4onnx10MakeStringIJA25_cNSt3__112basic_stringIcNS2_11char_traitsIcEENS2_9allocatorIcEEEEA15_cS8_EEES8_DpRKT_, symObjAddr: 0x376C, symBinAddr: 0xD3B90C, symSize: 0x22C }
  - { offset: 0x567469, size: 0x8, addend: 0x0, symName: __ZN4onnx10MakeStringIJA11_cNSt3__112basic_stringIcNS2_11char_traitsIcEENS2_9allocatorIcEEEEA37_ciEEES8_DpRKT_, symObjAddr: 0x2A1C, symBinAddr: 0xD3ADBC, symSize: 0x218 }
  - { offset: 0x567BA4, size: 0x8, addend: 0x0, symName: __ZN4onnx10MakeStringIJA7_cNSt3__112basic_stringIcNS2_11char_traitsIcEENS2_9allocatorIcEEEEA20_ciA18_cmS9_EEES8_DpRKT_, symObjAddr: 0x2C34, symBinAddr: 0xD3AFD4, symSize: 0x268 }
  - { offset: 0x56851C, size: 0x8, addend: 0x0, symName: __ZN4onnx10MakeStringIJA7_cNSt3__112basic_stringIcNS2_11char_traitsIcEENS2_9allocatorIcEEEEA21_ciA18_cmA20_cEEES8_DpRKT_, symObjAddr: 0x30D0, symBinAddr: 0xD3B470, symSize: 0x268 }
  - { offset: 0x568E94, size: 0x8, addend: 0x0, symName: __ZN4onnx10MakeStringIJA12_cNSt3__112basic_stringIcNS2_11char_traitsIcEENS2_9allocatorIcEEEEA41_cEEES8_DpRKT_, symObjAddr: 0x4118, symBinAddr: 0xD3C1C8, symSize: 0x200 }
  - { offset: 0x569570, size: 0x8, addend: 0x0, symName: __ZN4onnx10MakeStringIJA12_cNSt3__112basic_stringIcNS2_11char_traitsIcEENS2_9allocatorIcEEEEA32_cEEES8_DpRKT_, symObjAddr: 0x3D18, symBinAddr: 0xD3BDC8, symSize: 0x200 }
  - { offset: 0x56B5A7, size: 0x8, addend: 0x0, symName: __ZN4onnx10ReplaceAllERNSt3__112basic_stringIcNS0_11char_traitsIcEENS0_9allocatorIcEEEEPKcS9_, symObjAddr: 0x1E640, symBinAddr: 0xD50CD8, symSize: 0x1D4 }
  - { offset: 0x59BE0B, size: 0x8, addend: 0x0, symName: __ZN4onnx10MakeStringIJA12_cNSt3__112basic_stringIcNS2_11char_traitsIcEENS2_9allocatorIcEEEEA32_cEEES8_DpRKT_, symObjAddr: 0x3D18, symBinAddr: 0xD3BDC8, symSize: 0x200 }
  - { offset: 0x59F30A, size: 0x8, addend: 0x0, symName: __ZNSt3__134__uninitialized_allocator_relocateB8ne190102INS_9allocatorIN4onnx8OpSchema19TypeConstraintParamEEES4_EEvRT_PT0_S9_S9_, symObjAddr: 0x25948, symBinAddr: 0xD51540, symSize: 0x134 }
  - { offset: 0x59F364, size: 0x8, addend: 0x0, symName: __ZNSt3__134__uninitialized_allocator_relocateB8ne190102INS_9allocatorIN4onnx8OpSchema19TypeConstraintParamEEES4_EEvRT_PT0_S9_S9_, symObjAddr: 0x25948, symBinAddr: 0xD51540, symSize: 0x134 }
  - { offset: 0x5B17B7, size: 0x8, addend: 0x0, symName: __ZN4onnx16OpSchemaRegistry8InstanceEv, symObjAddr: 0xA58, symBinAddr: 0xD38EB4, symSize: 0xC }
  - { offset: 0x5B17D9, size: 0x8, addend: 0x0, symName: __ZZN4onnx16OpSchemaRegistry8InstanceEvE8instance, symObjAddr: 0x2D808, symBinAddr: 0x1574E68, symSize: 0x0 }
  - { offset: 0x5B17E4, size: 0x8, addend: 0x0, symName: __ZN4onnx8OpSchema36numeric_types_for_math_reduction_ir4Ev, symObjAddr: 0xCE20, symBinAddr: 0xD423F8, symSize: 0x338 }
  - { offset: 0x5B1808, size: 0x8, addend: 0x0, symName: __MergedGlobals, symObjAddr: 0x4EC938, symBinAddr: 0x1579A30, symSize: 0x0 }
  - { offset: 0x5B1BDE, size: 0x8, addend: 0x0, symName: __ZN4onnx8OpSchema32numeric_types_for_math_reductionEv, symObjAddr: 0xD158, symBinAddr: 0xD42730, symSize: 0x2F4 }
  - { offset: 0x5B1C02, size: 0x8, addend: 0x0, symName: __MergedGlobals, symObjAddr: 0x4EC938, symBinAddr: 0x1579A30, symSize: 0x0 }
  - { offset: 0x5B1FC4, size: 0x8, addend: 0x0, symName: __ZN4onnx8OpSchema21all_numeric_types_ir4Ev, symObjAddr: 0xF370, symBinAddr: 0xD42A24, symSize: 0x450 }
  - { offset: 0x5B1FE8, size: 0x8, addend: 0x0, symName: __MergedGlobals, symObjAddr: 0x4EC938, symBinAddr: 0x1579A30, symSize: 0x0 }
  - { offset: 0x5B240E, size: 0x8, addend: 0x0, symName: __ZN4onnx8OpSchema17all_numeric_typesEv, symObjAddr: 0xF7C0, symBinAddr: 0xD42E74, symSize: 0x40C }
  - { offset: 0x5B2432, size: 0x8, addend: 0x0, symName: __MergedGlobals, symObjAddr: 0x4EC938, symBinAddr: 0x1579A30, symSize: 0x0 }
  - { offset: 0x5B2844, size: 0x8, addend: 0x0, symName: __ZN4onnx8OpSchema16all_tensor_typesEv, symObjAddr: 0xFFD8, symBinAddr: 0xD43280, symSize: 0x524 }
  - { offset: 0x5B2868, size: 0x8, addend: 0x0, symName: __MergedGlobals, symObjAddr: 0x4EC938, symBinAddr: 0x1579A30, symSize: 0x0 }
  - { offset: 0x5B2CCA, size: 0x8, addend: 0x0, symName: __ZN4onnx8OpSchema20all_tensor_types_ir4Ev, symObjAddr: 0x104FC, symBinAddr: 0xD437A4, symSize: 0x568 }
  - { offset: 0x5B2CEE, size: 0x8, addend: 0x0, symName: __MergedGlobals, symObjAddr: 0x4EC938, symBinAddr: 0x1579A30, symSize: 0x0 }
  - { offset: 0x5B3164, size: 0x8, addend: 0x0, symName: __ZN4onnx8OpSchema43all_non_complex_numeric_types_plus_bool_ir4Ev, symObjAddr: 0x10A64, symBinAddr: 0xD43D0C, symSize: 0x498 }
  - { offset: 0x5B3188, size: 0x8, addend: 0x0, symName: __MergedGlobals, symObjAddr: 0x4EC938, symBinAddr: 0x1579A30, symSize: 0x0 }
  - { offset: 0x5B35C2, size: 0x8, addend: 0x0, symName: __ZN4onnx8OpSchema19all_float_types_ir4Ev, symObjAddr: 0x10EFC, symBinAddr: 0xD441A4, symSize: 0x200 }
  - { offset: 0x5B35E6, size: 0x8, addend: 0x0, symName: __MergedGlobals, symObjAddr: 0x4EC938, symBinAddr: 0x1579A30, symSize: 0x0 }
  - { offset: 0x5B39A6, size: 0x8, addend: 0x0, symName: __ZN4onnx8OpSchema30all_float_types_plus_Xint8_ir4Ev, symObjAddr: 0x110FC, symBinAddr: 0xD443A4, symSize: 0x2AC }
  - { offset: 0x5B39CA, size: 0x8, addend: 0x0, symName: __MergedGlobals, symObjAddr: 0x4EC938, symBinAddr: 0x1579A30, symSize: 0x0 }
  - { offset: 0x5B3D78, size: 0x8, addend: 0x0, symName: __ZN4onnx8OpSchema19all_float_types_ir9Ev, symObjAddr: 0x113A8, symBinAddr: 0xD44650, symSize: 0x338 }
  - { offset: 0x5B3D9C, size: 0x8, addend: 0x0, symName: __MergedGlobals, symObjAddr: 0x4EC938, symBinAddr: 0x1579A30, symSize: 0x0 }
  - { offset: 0x5B4172, size: 0x8, addend: 0x0, symName: __ZN4onnx8OpSchema20all_tensor_types_ir9Ev, symObjAddr: 0x116E0, symBinAddr: 0xD44988, symSize: 0x680 }
  - { offset: 0x5B4196, size: 0x8, addend: 0x0, symName: __MergedGlobals, symObjAddr: 0x4EC938, symBinAddr: 0x1579A30, symSize: 0x0 }
  - { offset: 0x5B465C, size: 0x8, addend: 0x0, symName: __ZN4onnx8OpSchema21all_tensor_types_ir10Ev, symObjAddr: 0x11D60, symBinAddr: 0xD45008, symSize: 0x70C }
  - { offset: 0x5B4680, size: 0x8, addend: 0x0, symName: __MergedGlobals, symObjAddr: 0x4EC938, symBinAddr: 0x1579A30, symSize: 0x0 }
  - { offset: 0x5B4B6E, size: 0x8, addend: 0x0, symName: __ZN4onnx8OpSchema33all_non_complex_tensor_types_ir10Ev, symObjAddr: 0x1246C, symBinAddr: 0xD45714, symSize: 0x680 }
  - { offset: 0x5B4B92, size: 0x8, addend: 0x0, symName: __MergedGlobals, symObjAddr: 0x4EC938, symBinAddr: 0x1579A30, symSize: 0x0 }
  - { offset: 0x5B5058, size: 0x8, addend: 0x0, symName: __ZN4onnx8OpSchema21all_tensor_types_ir11Ev, symObjAddr: 0x12AEC, symBinAddr: 0xD45D94, symSize: 0x754 }
  - { offset: 0x5B507C, size: 0x8, addend: 0x0, symName: __MergedGlobals, symObjAddr: 0x4EC938, symBinAddr: 0x1579A30, symSize: 0x0 }
  - { offset: 0x5B557E, size: 0x8, addend: 0x0, symName: __ZN4onnx8OpSchema33all_non_complex_tensor_types_ir11Ev, symObjAddr: 0x13240, symBinAddr: 0xD464E8, symSize: 0x6C8 }
  - { offset: 0x5B55A2, size: 0x8, addend: 0x0, symName: __MergedGlobals, symObjAddr: 0x4EC938, symBinAddr: 0x1579A30, symSize: 0x0 }
  - { offset: 0x5B5A7C, size: 0x8, addend: 0x0, symName: __ZN4onnx8OpSchema21all_tensor_types_ir12Ev, symObjAddr: 0x13908, symBinAddr: 0xD46BB0, symSize: 0x798 }
  - { offset: 0x5B5AA0, size: 0x8, addend: 0x0, symName: __MergedGlobals, symObjAddr: 0x4EC938, symBinAddr: 0x1579A30, symSize: 0x0 }
  - { offset: 0x5B5FB6, size: 0x8, addend: 0x0, symName: __ZN4onnx8OpSchema33all_non_complex_tensor_types_ir12Ev, symObjAddr: 0x140A0, symBinAddr: 0xD47348, symSize: 0x70C }
  - { offset: 0x5B5FDA, size: 0x8, addend: 0x0, symName: __MergedGlobals, symObjAddr: 0x4EC938, symBinAddr: 0x1579A30, symSize: 0x0 }
  - { offset: 0x5B64C8, size: 0x8, addend: 0x0, symName: __ZN4onnx8OpSchema21all_tensor_types_ir13Ev, symObjAddr: 0x147AC, symBinAddr: 0xD47A54, symSize: 0x824 }
  - { offset: 0x5B64EC, size: 0x8, addend: 0x0, symName: __MergedGlobals, symObjAddr: 0x4EC938, symBinAddr: 0x1579A30, symSize: 0x0 }
  - { offset: 0x5B6A2A, size: 0x8, addend: 0x0, symName: __ZN4onnx8OpSchema33all_non_complex_tensor_types_ir13Ev, symObjAddr: 0x14FD0, symBinAddr: 0xD48278, symSize: 0x798 }
  - { offset: 0x5B6A4E, size: 0x8, addend: 0x0, symName: __MergedGlobals, symObjAddr: 0x4EC938, symBinAddr: 0x1579A30, symSize: 0x0 }
  - { offset: 0x5B6F64, size: 0x8, addend: 0x0, symName: __ZN4onnx8OpSchema25all_tensor_sequence_typesEv, symObjAddr: 0x15768, symBinAddr: 0xD48A10, symSize: 0x524 }
  - { offset: 0x5B6F88, size: 0x8, addend: 0x0, symName: __MergedGlobals, symObjAddr: 0x4EC938, symBinAddr: 0x1579A30, symSize: 0x0 }
  - { offset: 0x5B73EA, size: 0x8, addend: 0x0, symName: __ZN4onnx8OpSchema29all_tensor_sequence_types_ir4Ev, symObjAddr: 0x15C8C, symBinAddr: 0xD48F34, symSize: 0x568 }
  - { offset: 0x5B740E, size: 0x8, addend: 0x0, symName: __MergedGlobals, symObjAddr: 0x4EC938, symBinAddr: 0x1579A30, symSize: 0x0 }
  - { offset: 0x5B7884, size: 0x8, addend: 0x0, symName: __ZN4onnx8OpSchema29all_tensor_sequence_types_ir9Ev, symObjAddr: 0x161F4, symBinAddr: 0xD4949C, symSize: 0x680 }
  - { offset: 0x5B78A8, size: 0x8, addend: 0x0, symName: __MergedGlobals, symObjAddr: 0x4EC938, symBinAddr: 0x1579A30, symSize: 0x0 }
  - { offset: 0x5B7D6E, size: 0x8, addend: 0x0, symName: __ZN4onnx8OpSchema30all_tensor_sequence_types_ir10Ev, symObjAddr: 0x16874, symBinAddr: 0xD49B1C, symSize: 0x70C }
  - { offset: 0x5B7D92, size: 0x8, addend: 0x0, symName: __MergedGlobals, symObjAddr: 0x4EC938, symBinAddr: 0x1579A30, symSize: 0x0 }
  - { offset: 0x5B8280, size: 0x8, addend: 0x0, symName: __ZN4onnx8OpSchema30all_tensor_sequence_types_ir11Ev, symObjAddr: 0x16F80, symBinAddr: 0xD4A228, symSize: 0x754 }
  - { offset: 0x5B82A4, size: 0x8, addend: 0x0, symName: __MergedGlobals, symObjAddr: 0x4EC938, symBinAddr: 0x1579A30, symSize: 0x0 }
  - { offset: 0x5B87A6, size: 0x8, addend: 0x0, symName: __ZN4onnx8OpSchema30all_tensor_sequence_types_ir12Ev, symObjAddr: 0x176D4, symBinAddr: 0xD4A97C, symSize: 0x798 }
  - { offset: 0x5B87CA, size: 0x8, addend: 0x0, symName: __MergedGlobals, symObjAddr: 0x4EC938, symBinAddr: 0x1579A30, symSize: 0x0 }
  - { offset: 0x5B8CE0, size: 0x8, addend: 0x0, symName: __ZN4onnx8OpSchema30all_tensor_sequence_types_ir13Ev, symObjAddr: 0x17E6C, symBinAddr: 0xD4B114, symSize: 0x824 }
  - { offset: 0x5B8D04, size: 0x8, addend: 0x0, symName: __MergedGlobals, symObjAddr: 0x4EC938, symBinAddr: 0x1579A30, symSize: 0x0 }
  - { offset: 0x5B9242, size: 0x8, addend: 0x0, symName: __ZN4onnx8OpSchema18all_optional_typesEv, symObjAddr: 0x18690, symBinAddr: 0xD4B938, symSize: 0x93C }
  - { offset: 0x5B9266, size: 0x8, addend: 0x0, symName: __MergedGlobals, symObjAddr: 0x4EC938, symBinAddr: 0x1579A30, symSize: 0x0 }
  - { offset: 0x5B97F4, size: 0x8, addend: 0x0, symName: __ZN4onnx8OpSchema22all_optional_types_ir4Ev, symObjAddr: 0x18FCC, symBinAddr: 0xD4C274, symSize: 0x9C8 }
  - { offset: 0x5B9818, size: 0x8, addend: 0x0, symName: __MergedGlobals, symObjAddr: 0x4EC938, symBinAddr: 0x1579A30, symSize: 0x0 }
  - { offset: 0x5B9DCF, size: 0x8, addend: 0x0, symName: __ZN4onnx8OpSchema22all_optional_types_ir9Ev, symObjAddr: 0x19994, symBinAddr: 0xD4CC3C, symSize: 0xAE0 }
  - { offset: 0x5B9DF3, size: 0x8, addend: 0x0, symName: __MergedGlobals, symObjAddr: 0x4EC938, symBinAddr: 0x1579A30, symSize: 0x0 }
  - { offset: 0x5BA3FA, size: 0x8, addend: 0x0, symName: __ZN4onnx8OpSchema23all_optional_types_ir10Ev, symObjAddr: 0x1A474, symBinAddr: 0xD4D71C, symSize: 0xB6C }
  - { offset: 0x5BA41E, size: 0x8, addend: 0x0, symName: __MergedGlobals, symObjAddr: 0x4EC938, symBinAddr: 0x1579A30, symSize: 0x0 }
  - { offset: 0x5BAA4D, size: 0x8, addend: 0x0, symName: __ZN4onnx8OpSchema23all_optional_types_ir11Ev, symObjAddr: 0x1AFE0, symBinAddr: 0xD4E288, symSize: 0xBB4 }
  - { offset: 0x5BAA71, size: 0x8, addend: 0x0, symName: __MergedGlobals, symObjAddr: 0x4EC938, symBinAddr: 0x1579A30, symSize: 0x0 }
  - { offset: 0x5BB0B4, size: 0x8, addend: 0x0, symName: __ZN4onnx8OpSchema23all_optional_types_ir12Ev, symObjAddr: 0x1BB94, symBinAddr: 0xD4EE3C, symSize: 0xBF8 }
  - { offset: 0x5BB0D8, size: 0x8, addend: 0x0, symName: __MergedGlobals, symObjAddr: 0x4EC938, symBinAddr: 0x1579A30, symSize: 0x0 }
  - { offset: 0x5BB72F, size: 0x8, addend: 0x0, symName: __ZN4onnx8OpSchema23all_optional_types_ir13Ev, symObjAddr: 0x1C78C, symBinAddr: 0xD4FA34, symSize: 0xC84 }
  - { offset: 0x5BB753, size: 0x8, addend: 0x0, symName: __MergedGlobals, symObjAddr: 0x4EC938, symBinAddr: 0x1579A30, symSize: 0x0 }
  - { offset: 0x5BC696, size: 0x8, addend: 0x0, symName: __ZN4onnx16OpSchemaRegistry20DomainToVersionRange8InstanceEv, symObjAddr: 0x1E4F8, symBinAddr: 0xD50BC8, symSize: 0x9C }
  - { offset: 0x5BC6B7, size: 0x8, addend: 0x0, symName: __MergedGlobals, symObjAddr: 0x4EC938, symBinAddr: 0x1579A30, symSize: 0x0 }
  - { offset: 0x5BC6F1, size: 0x8, addend: 0x0, symName: __ZN4onnx16OpSchemaRegistry33GetMapWithoutEnsuringRegistrationEv, symObjAddr: 0x1E598, symBinAddr: 0xD50C68, symSize: 0x38 }
  - { offset: 0x5BC712, size: 0x8, addend: 0x0, symName: __MergedGlobals, symObjAddr: 0x4EC938, symBinAddr: 0x1579A30, symSize: 0x0 }
  - { offset: 0x5BD898, size: 0x8, addend: 0x0, symName: __ZN4onnx8OpSchema10NumOutputsENSt3__113unordered_setIiNS1_4hashIiEENS1_8equal_toIiEENS1_9allocatorIiEEEE, symObjAddr: 0x5E9C, symBinAddr: 0xD3DB7C, symSize: 0x21C }
  - { offset: 0x5C0FFB, size: 0x8, addend: 0x0, symName: __ZN4onnx8OpSchema8FinalizeEv, symObjAddr: 0x1D410, symBinAddr: 0xD506B8, symSize: 0x508 }
  - { offset: 0x5C253B, size: 0x8, addend: 0x0, symName: __ZN4onnx8OpSchema12SinceVersionEi, symObjAddr: 0x55F0, symBinAddr: 0xD3D534, symSize: 0x4BC }
  - { offset: 0x5C56E7, size: 0x8, addend: 0x0, symName: __ZN4onnx16OpSchemaRegistry18OpSchemaDeregisterERKNSt3__112basic_stringIcNS1_11char_traitsIcEENS1_9allocatorIcEEEEiS9_, symObjAddr: 0x65C, symBinAddr: 0xD38ADC, symSize: 0x3B8 }
  - { offset: 0x5C69EC, size: 0x8, addend: 0x0, symName: __ZN4onnx16OpSchemaRegistry18OpSchemaDeregisterERKNSt3__112basic_stringIcNS1_11char_traitsIcEENS1_9allocatorIcEEEEiS9_.cold.1, symObjAddr: 0x2BB6C, symBinAddr: 0x116906C, symSize: 0x48 }
  - { offset: 0x5C6A1A, size: 0x8, addend: 0x0, symName: __ZNK4onnx8OpSchema15FormalParameter8GetTypesEv, symObjAddr: 0xA18, symBinAddr: 0xD38E94, symSize: 0x8 }
  - { offset: 0x5C6A3C, size: 0x8, addend: 0x0, symName: __ZNK4onnx8OpSchema15FormalParameter10GetTypeStrEv, symObjAddr: 0xA28, symBinAddr: 0xD38E9C, symSize: 0x8 }
  - { offset: 0x5C6A5E, size: 0x8, addend: 0x0, symName: __ZNK4onnx8OpSchema15FormalParameter9GetOptionEv, symObjAddr: 0xA38, symBinAddr: 0xD38EA4, symSize: 0x8 }
  - { offset: 0x5C6A80, size: 0x8, addend: 0x0, symName: __ZNK4onnx8OpSchema15FormalParameter16GetIsHomogeneousEv, symObjAddr: 0xA40, symBinAddr: 0xD38EAC, symSize: 0x8 }
  - { offset: 0x5C7295, size: 0x8, addend: 0x0, symName: __ZNK4onnx8OpSchema20CheckInputOutputTypeERNS_16InferenceContextE, symObjAddr: 0xA64, symBinAddr: 0xD38EC0, symSize: 0x6EC }
  - { offset: 0x5C891D, size: 0x8, addend: 0x0, symName: __ZNK4onnx8OpSchema14VerifyInputNumEiNSt3__117basic_string_viewIcNS1_11char_traitsIcEEEE, symObjAddr: 0x1150, symBinAddr: 0xD395AC, symSize: 0x260 }
  - { offset: 0x5C8F37, size: 0x8, addend: 0x0, symName: __ZNK4onnx8OpSchema15VerifyOutputNumEiNSt3__117basic_string_viewIcNS1_11char_traitsIcEEEE, symObjAddr: 0x13B0, symBinAddr: 0xD3980C, symSize: 0x260 }
  - { offset: 0x5C9620, size: 0x8, addend: 0x0, symName: __ZNSt3__112__hash_tableINS_17__hash_value_typeINS_12basic_stringIcNS_11char_traitsIcEENS_9allocatorIcEEEES7_EENS_22__unordered_map_hasherIS7_S8_NS_4hashIS7_EENS_8equal_toIS7_EELb1EEENS_21__unordered_map_equalIS7_S8_SD_SB_Lb1EEENS5_IS8_EEE25__emplace_unique_key_argsIS7_JRKS7_SL_EEENS_4pairINS_15__hash_iteratorIPNS_11__hash_nodeIS8_PvEEEEbEERKT_DpOT0_, symObjAddr: 0x28464, symBinAddr: 0xD521C8, symSize: 0x438 }
  - { offset: 0x5CABF9, size: 0x8, addend: 0x0, symName: __ZNK4onnx8OpSchema16VerifyFailPrefixENSt3__117basic_string_viewIcNS1_11char_traitsIcEEEE, symObjAddr: 0x4580, symBinAddr: 0xD3C5C8, symSize: 0x64C }
  - { offset: 0x5CDA50, size: 0x8, addend: 0x0, symName: __ZNK4onnx8OpSchema6VerifyERKNS_9NodeProtoE, symObjAddr: 0x1D2C, symBinAddr: 0xD3A0CC, symSize: 0xCF0 }
  - { offset: 0x5D2EC5, size: 0x8, addend: 0x0, symName: __ZNSt3__110__function12__value_funcIFbRKN4onnx24FunctionBodyBuildContextERKNS2_8OpSchemaERNS2_13FunctionProtoEEE4swapB8ne190102ERSC_, symObjAddr: 0x2943C, symBinAddr: 0xD526E4, symSize: 0x198 }
  - { offset: 0x5D2FF2, size: 0x8, addend: 0x0, symName: __ZNK4onnx8OpSchema37UpdateFunctionProtoOpsetImportVersionERNS_13FunctionProtoEi, symObjAddr: 0x5AAC, symBinAddr: 0xD3D9F0, symSize: 0x180 }
  - { offset: 0x5D37C5, size: 0x8, addend: 0x0, symName: __ZN4onnx8OpSchema9DeprecateEv, symObjAddr: 0x5C2C, symBinAddr: 0xD3DB70, symSize: 0xC }
  - { offset: 0x5D4178, size: 0x8, addend: 0x0, symName: __ZNSt3__110__function12__value_funcIFbiEE4swapB8ne190102ERS3_, symObjAddr: 0x29ED4, symBinAddr: 0xD529BC, symSize: 0x198 }
  - { offset: 0x5D4ACF, size: 0x8, addend: 0x0, symName: __ZN4onnx8OpSchema29TypeAndShapeInferenceFunctionENSt3__18functionIFvRNS_16InferenceContextEEEE, symObjAddr: 0x6100, symBinAddr: 0xD3DD98, symSize: 0xB4 }
  - { offset: 0x5D4BFC, size: 0x8, addend: 0x0, symName: __ZN4onnx8OpSchema30PartialDataPropagationFunctionENSt3__18functionIFvRNS_22DataPropagationContextEEEE, symObjAddr: 0x61B4, symBinAddr: 0xD3DE4C, symSize: 0xB4 }
  - { offset: 0x5D4CAE, size: 0x8, addend: 0x0, symName: __ZN4onnx8OpSchema15SetSupportLevelENS0_11SupportTypeE, symObjAddr: 0x6268, symBinAddr: 0xD3DF00, symSize: 0x8 }
  - { offset: 0x5D4CE5, size: 0x8, addend: 0x0, symName: __ZN4onnx8OpSchema7SetNameENSt3__112basic_stringIcNS1_11char_traitsIcEENS1_9allocatorIcEEEE, symObjAddr: 0x6270, symBinAddr: 0xD3DF08, symSize: 0x50 }
  - { offset: 0x5D4EA9, size: 0x8, addend: 0x0, symName: __ZN4onnx8OpSchema7SetNameEPKc, symObjAddr: 0x62C0, symBinAddr: 0xD3DF58, symSize: 0x110 }
  - { offset: 0x5D52BA, size: 0x8, addend: 0x0, symName: __ZN4onnx8OpSchema11SetLocationEPKci, symObjAddr: 0x6430, symBinAddr: 0xD3E068, symSize: 0x118 }
  - { offset: 0x5D5681, size: 0x8, addend: 0x0, symName: __ZN4onnx8OpSchema9SetDomainENSt3__112basic_stringIcNS1_11char_traitsIcEENS1_9allocatorIcEEEE, symObjAddr: 0x6548, symBinAddr: 0xD3E180, symSize: 0x50 }
  - { offset: 0x5D5807, size: 0x8, addend: 0x0, symName: __ZN4onnx8OpSchema9SetDomainEPKc, symObjAddr: 0x6598, symBinAddr: 0xD3E1D0, symSize: 0x110 }
  - { offset: 0x5D5C4A, size: 0x8, addend: 0x0, symName: __ZNSt3__112__hash_tableINS_17__hash_value_typeINS_12basic_stringIcNS_11char_traitsIcEENS_9allocatorIcEEEEN4onnx8OpSchema9AttributeEEENS_22__unordered_map_hasherIS7_SB_NS_4hashIS7_EENS_8equal_toIS7_EELb1EEENS_21__unordered_map_equalIS7_SB_SG_SE_Lb1EEENS5_ISB_EEE25__emplace_unique_key_argsIS7_JS7_SA_EEENS_4pairINS_15__hash_iteratorIPNS_11__hash_nodeISB_PvEEEEbEERKT_DpOT0_, symObjAddr: 0x2A36C, symBinAddr: 0xD52E54, symSize: 0x468 }
  - { offset: 0x5D667E, size: 0x8, addend: 0x0, symName: __ZN4onnx8OpSchema4AttrENSt3__112basic_stringIcNS1_11char_traitsIcEENS1_9allocatorIcEEEES7_NS_28AttributeProto_AttributeTypeEb, symObjAddr: 0x676C, symBinAddr: 0xD3E2E0, symSize: 0x1D8 }
  - { offset: 0x5D7026, size: 0x8, addend: 0x0, symName: __ZN4onnx8OpSchema9AttributeD1Ev, symObjAddr: 0x6944, symBinAddr: 0xD3E4B8, symSize: 0x60 }
  - { offset: 0x5D7279, size: 0x8, addend: 0x0, symName: __ZN4onnx8OpSchema4AttrEPKcS2_NS_28AttributeProto_AttributeTypeEb, symObjAddr: 0x69A4, symBinAddr: 0xD3E518, symSize: 0x204 }
  - { offset: 0x5D7DEE, size: 0x8, addend: 0x0, symName: __ZN4onnx8OpSchema4AttrENSt3__112basic_stringIcNS1_11char_traitsIcEENS1_9allocatorIcEEEES7_NS_28AttributeProto_AttributeTypeERKx, symObjAddr: 0x6BA8, symBinAddr: 0xD3E71C, symSize: 0x30C }
  - { offset: 0x5D8A7A, size: 0x8, addend: 0x0, symName: __ZN4onnx8OpSchema4AttrEPKcS2_NS_28AttributeProto_AttributeTypeERKx, symObjAddr: 0x702C, symBinAddr: 0xD3EA28, symSize: 0x204 }
  - { offset: 0x5D94FA, size: 0x8, addend: 0x0, symName: __ZN4onnx8OpSchema4AttrENSt3__112basic_stringIcNS1_11char_traitsIcEENS1_9allocatorIcEEEES7_NS_28AttributeProto_AttributeTypeERKf, symObjAddr: 0x7230, symBinAddr: 0xD3EC2C, symSize: 0x308 }
  - { offset: 0x5DA02D, size: 0x8, addend: 0x0, symName: __ZN4onnx8OpSchema4AttrEPKcS2_NS_28AttributeProto_AttributeTypeERKf, symObjAddr: 0x7538, symBinAddr: 0xD3EF34, symSize: 0x204 }
  - { offset: 0x5DAAC6, size: 0x8, addend: 0x0, symName: __ZN4onnx8OpSchema4AttrENSt3__112basic_stringIcNS1_11char_traitsIcEENS1_9allocatorIcEEEES7_NS_28AttributeProto_AttributeTypeERKS7_, symObjAddr: 0x773C, symBinAddr: 0xD3F138, symSize: 0x330 }
  - { offset: 0x5DB651, size: 0x8, addend: 0x0, symName: __ZN4onnx8OpSchema4AttrEPKcS2_NS_28AttributeProto_AttributeTypeERKNSt3__112basic_stringIcNS4_11char_traitsIcEENS4_9allocatorIcEEEE, symObjAddr: 0x7A6C, symBinAddr: 0xD3F468, symSize: 0x204 }
  - { offset: 0x5DC175, size: 0x8, addend: 0x0, symName: __ZN4onnx8OpSchema4AttrENSt3__112basic_stringIcNS1_11char_traitsIcEENS1_9allocatorIcEEEES7_NS_28AttributeProto_AttributeTypeERKNS1_6vectorIxNS5_IxEEEE, symObjAddr: 0x86C0, symBinAddr: 0xD3F66C, symSize: 0x384 }
  - { offset: 0x5DCF4F, size: 0x8, addend: 0x0, symName: __ZN4onnx8OpSchema4AttrENSt3__112basic_stringIcNS1_11char_traitsIcEENS1_9allocatorIcEEEES7_NS_28AttributeProto_AttributeTypeERKNS1_6vectorIS7_NS5_IS7_EEEE, symObjAddr: 0x8DD0, symBinAddr: 0xD3F9F0, symSize: 0x400 }
  - { offset: 0x5DDD63, size: 0x8, addend: 0x0, symName: __ZN4onnx8OpSchema24AllowUncheckedAttributesEv, symObjAddr: 0x9C38, symBinAddr: 0xD3FDF0, symSize: 0xC }
  - { offset: 0x5DDEDB, size: 0x8, addend: 0x0, symName: __ZN4onnx8OpSchema5InputEiNS0_15FormalParameterE, symObjAddr: 0x9C44, symBinAddr: 0xD3FDFC, symSize: 0x12C }
  - { offset: 0x5DE462, size: 0x8, addend: 0x0, symName: __ZNSt3__16vectorIN4onnx8OpSchema15FormalParameterENS_9allocatorIS3_EEE8__appendEm, symObjAddr: 0x252BC, symBinAddr: 0xD50EB4, symSize: 0x1B0 }
  - { offset: 0x5DEE64, size: 0x8, addend: 0x0, symName: __ZNSt3__112__hash_tableIPKNS_12basic_stringIcNS_11char_traitsIcEENS_9allocatorIcEEEENS_4hashIS8_EENS_8equal_toIS8_EENS4_IS8_EEE13__move_assignERSE_NS_17integral_constantIbLb1EEE, symObjAddr: 0x25634, symBinAddr: 0xD5122C, symSize: 0xEC }
  - { offset: 0x5DF6D5, size: 0x8, addend: 0x0, symName: __ZN4onnx8OpSchema5InputEiNSt3__112basic_stringIcNS1_11char_traitsIcEENS1_9allocatorIcEEEERKS7_S7_NS0_21FormalParameterOptionEbiNS0_23DifferentiationCategoryE, symObjAddr: 0x9D70, symBinAddr: 0xD3FF28, symSize: 0x234 }
  - { offset: 0x5E067D, size: 0x8, addend: 0x0, symName: __ZN4onnx8OpSchema5InputEiPKcS2_S2_NS0_21FormalParameterOptionEbiNS0_23DifferentiationCategoryE, symObjAddr: 0xA040, symBinAddr: 0xD4015C, symSize: 0x338 }
  - { offset: 0x5E1571, size: 0x8, addend: 0x0, symName: __ZN4onnx8OpSchema6OutputEiNS0_15FormalParameterE, symObjAddr: 0xA378, symBinAddr: 0xD40494, symSize: 0x12C }
  - { offset: 0x5E1AF8, size: 0x8, addend: 0x0, symName: __ZN4onnx8OpSchema6OutputEiNSt3__112basic_stringIcNS1_11char_traitsIcEENS1_9allocatorIcEEEERKS7_S7_NS0_21FormalParameterOptionEbiNS0_23DifferentiationCategoryE, symObjAddr: 0xA4A4, symBinAddr: 0xD405C0, symSize: 0x234 }
  - { offset: 0x5E274D, size: 0x8, addend: 0x0, symName: __ZN4onnx8OpSchema6OutputEiPKcS2_S2_NS0_21FormalParameterOptionEbiNS0_23DifferentiationCategoryE, symObjAddr: 0xA6D8, symBinAddr: 0xD407F4, symSize: 0x338 }
  - { offset: 0x5E3A69, size: 0x8, addend: 0x0, symName: __ZN4onnx8OpSchema14TypeConstraintENSt3__112basic_stringIcNS1_11char_traitsIcEENS1_9allocatorIcEEEENS1_6vectorIS7_NS5_IS7_EEEES7_, symObjAddr: 0xAA10, symBinAddr: 0xD40B2C, symSize: 0x2E8 }
  - { offset: 0x5E4AD4, size: 0x8, addend: 0x0, symName: __ZNSt3__112__hash_tableINS_17__hash_value_typeINS_12basic_stringIcNS_11char_traitsIcEENS_9allocatorIcEEEENS_4pairINS_13unordered_setIPKS7_NS_4hashISB_EENS_8equal_toISB_EENS5_ISB_EEEES7_EEEENS_22__unordered_map_hasherIS7_SJ_NSC_IS7_EENSE_IS7_EELb1EEENS_21__unordered_map_equalIS7_SJ_SM_SL_Lb1EEENS5_ISJ_EEE4findIS7_EENS_15__hash_iteratorIPNS_11__hash_nodeISJ_PvEEEERKT_, symObjAddr: 0x2A8C8, symBinAddr: 0xD533B0, symSize: 0x1E8 }
  - { offset: 0x5E4DE2, size: 0x8, addend: 0x0, symName: __ZNSt3__112__hash_tableIPKNS_12basic_stringIcNS_11char_traitsIcEENS_9allocatorIcEEEENS_4hashIS8_EENS_8equal_toIS8_EENS4_IS8_EEE25__emplace_unique_key_argsIS8_JS8_EEENS_4pairINS_15__hash_iteratorIPNS_11__hash_nodeIS8_PvEEEEbEERKT_DpOT0_, symObjAddr: 0x2AAB0, symBinAddr: 0xD53598, symSize: 0x358 }
  - { offset: 0x5E57AE, size: 0x8, addend: 0x0, symName: __ZNSt3__112__hash_tableINS_17__hash_value_typeINS_12basic_stringIcNS_11char_traitsIcEENS_9allocatorIcEEEENS_4pairINS_13unordered_setIPKS7_NS_4hashISB_EENS_8equal_toISB_EENS5_ISB_EEEES7_EEEENS_22__unordered_map_hasherIS7_SJ_NSC_IS7_EENSE_IS7_EELb1EEENS_21__unordered_map_equalIS7_SJ_SM_SL_Lb1EEENS5_ISJ_EEE25__emplace_unique_key_argsIS7_JRS7_SI_EEENS8_INS_15__hash_iteratorIPNS_11__hash_nodeISJ_PvEEEEbEERKT_DpOT0_, symObjAddr: 0x2AE08, symBinAddr: 0xD538F0, symSize: 0x43C }
  - { offset: 0x5E5E84, size: 0x8, addend: 0x0, symName: __ZNSt3__16vectorIN4onnx8OpSchema19TypeConstraintParamENS_9allocatorIS3_EEE24__emplace_back_slow_pathIJNS_12basic_stringIcNS_11char_traitsIcEENS4_IcEEEENS0_ISC_NS4_ISC_EEEESC_EEEPS3_DpOT_, symObjAddr: 0x25720, symBinAddr: 0xD51318, symSize: 0x1F8 }
  - { offset: 0x5E65EA, size: 0x8, addend: 0x0, symName: __ZNSt3__14pairINS_13unordered_setIPKNS_12basic_stringIcNS_11char_traitsIcEENS_9allocatorIcEEEENS_4hashIS9_EENS_8equal_toIS9_EENS5_IS9_EEEES7_ED1Ev, symObjAddr: 0xACF8, symBinAddr: 0xD40E14, symSize: 0x58 }
  - { offset: 0x5E6DE9, size: 0x8, addend: 0x0, symName: __ZN4onnx8OpSchema14TypeConstraintEPKcSt16initializer_listIS2_ES2_, symObjAddr: 0xAD98, symBinAddr: 0xD40E6C, symSize: 0x404 }
  - { offset: 0x5E8349, size: 0x8, addend: 0x0, symName: __ZNSt3__16vectorINS_12basic_stringIcNS_11char_traitsIcEENS_9allocatorIcEEEENS4_IS6_EEE24__emplace_back_slow_pathIJRPKcEEEPS6_DpOT_, symObjAddr: 0x25BD4, symBinAddr: 0xD51754, symSize: 0x1C8 }
  - { offset: 0x5E8EF2, size: 0x8, addend: 0x0, symName: __ZN4onnx8OpSchema16ParseAndSetTypesEPNSt3__16vectorINS0_15FormalParameterENS1_9allocatorIS3_EEEE, symObjAddr: 0xB20C, symBinAddr: 0xD41270, symSize: 0x158 }
  - { offset: 0x5E96AA, size: 0x8, addend: 0x0, symName: __ZNSt3__112__hash_tableIPKNS_12basic_stringIcNS_11char_traitsIcEENS_9allocatorIcEEEENS_4hashIS8_EENS_8equal_toIS8_EENS4_IS8_EEE14__assign_multiINS_21__hash_const_iteratorIPNS_11__hash_nodeIS8_PvEEEEEEvT_SM_, symObjAddr: 0x2B358, symBinAddr: 0xD53E40, symSize: 0x15C }
  - { offset: 0x5E9E53, size: 0x8, addend: 0x0, symName: __ZN4onnx8OpSchema38SetContextDependentFunctionBodyBuilderENSt3__18functionIFbRKNS_24FunctionBodyBuildContextERKS0_RNS_13FunctionProtoEEEEi, symObjAddr: 0xB364, symBinAddr: 0xD413C8, symSize: 0x25C }
  - { offset: 0x5EA894, size: 0x8, addend: 0x0, symName: __ZNK4onnx8OpSchema29BuildContextDependentFunctionERKNS_24FunctionBodyBuildContextERNS_13FunctionProtoEi, symObjAddr: 0xB5C0, symBinAddr: 0xD41624, symSize: 0x348 }
  - { offset: 0x5EB48F, size: 0x8, addend: 0x0, symName: __ZNK4onnx8OpSchema31ValidateReferencedOpsInFunctionEPKNS_13FunctionProtoEiiPNSt3__113unordered_setINS4_12basic_stringIcNS4_11char_traitsIcEENS4_9allocatorIcEEEENS4_4hashISB_EENS4_8equal_toISB_EENS9_ISB_EEEE, symObjAddr: 0xB908, symBinAddr: 0xD4196C, symSize: 0x1F0 }
  - { offset: 0x5EC677, size: 0x8, addend: 0x0, symName: __ZN4onnx8OpSchema12FunctionBodyEPKci, symObjAddr: 0xBAF8, symBinAddr: 0xD41B5C, symSize: 0x398 }
  - { offset: 0x5ED83F, size: 0x8, addend: 0x0, symName: __ZN4onnx8OpSchema12FunctionBodyERKNSt3__16vectorINS_9NodeProtoENS1_9allocatorIS3_EEEEi, symObjAddr: 0xBF30, symBinAddr: 0xD41EF4, symSize: 0x21C }
  - { offset: 0x5EE24B, size: 0x8, addend: 0x0, symName: __ZNK4onnx8OpSchema11GetFunctionEib, symObjAddr: 0xC3E8, symBinAddr: 0xD42110, symSize: 0xFC }
  - { offset: 0x5EE28A, size: 0x8, addend: 0x0, symName: __ZNK4onnx8OpSchema11GetFunctionEib, symObjAddr: 0xC3E8, symBinAddr: 0xD42110, symSize: 0xFC }
  - { offset: 0x5EE5A6, size: 0x8, addend: 0x0, symName: __ZNK4onnx16OpSchemaRegistry9GetSchemaERKNSt3__112basic_stringIcNS1_11char_traitsIcEENS1_9allocatorIcEEEEiS9_, symObjAddr: 0xC4E4, symBinAddr: 0xD4220C, symSize: 0x10 }
  - { offset: 0x5EE683, size: 0x8, addend: 0x0, symName: __ZN4onnx8OpSchema9FillUsingERKNSt3__18functionIFvRS0_EEE, symObjAddr: 0xC4F4, symBinAddr: 0xD4221C, symSize: 0x38 }
  - { offset: 0x5EE899, size: 0x8, addend: 0x0, symName: __ZNK4onnx8OpSchema13BuildFunctionERNS_13FunctionProtoE, symObjAddr: 0xC52C, symBinAddr: 0xD42254, symSize: 0x1A4 }
  - { offset: 0x5EFD04, size: 0x8, addend: 0x0, symName: __ZN4onnx8OpSchema18SetNodeDeterminismENS0_15NodeDeterminismE, symObjAddr: 0x1DBE8, symBinAddr: 0xD50BC0, symSize: 0x8 }
  - { offset: 0x5EFD5A, size: 0x8, addend: 0x0, symName: __ZN4onnx16OpSchemaRegistry20DomainToVersionRangeC2Ev, symObjAddr: 0x263B0, symBinAddr: 0xD5191C, symSize: 0x3C0 }
  - { offset: 0x5F169B, size: 0x8, addend: 0x0, symName: __ZN4onnx16OpSchemaRegistry20DomainToVersionRangeD1Ev, symObjAddr: 0x1E594, symBinAddr: 0xD50C64, symSize: 0x4 }
  - { offset: 0x5F16CA, size: 0x8, addend: 0x0, symName: __ZN4onnx16OpSchemaRegistry20DomainToVersionRangeD1Ev, symObjAddr: 0x1E594, symBinAddr: 0xD50C64, symSize: 0x4 }
  - { offset: 0x5F16DD, size: 0x8, addend: 0x0, symName: __ZN4onnx16OpSchemaRegistry20DomainToVersionRangeD2Ev, symObjAddr: 0x271E8, symBinAddr: 0xD52118, symSize: 0xB0 }
  - { offset: 0x5F20F0, size: 0x8, addend: 0x0, symName: __ZNSt3__113unordered_mapINS_12basic_stringIcNS_11char_traitsIcEENS_9allocatorIcEEEENS0_IS6_NS_3mapIiN4onnx8OpSchemaENS_4lessIiEENS4_INS_4pairIKiS9_EEEEEENS_4hashIS6_EENS_8equal_toIS6_EENS4_INSC_IKS6_SG_EEEEEESI_SK_NS4_INSC_ISL_SO_EEEEED1B8ne190102Ev, symObjAddr: 0x1E5D0, symBinAddr: 0xD50CA0, symSize: 0x38 }
  - { offset: 0x5F277C, size: 0x8, addend: 0x0, symName: __ZN4onnx16OpSchemaRegistryD1Ev, symObjAddr: 0x1E81C, symBinAddr: 0xD50EAC, symSize: 0x4 }
  - { offset: 0x5F27A8, size: 0x8, addend: 0x0, symName: __ZN4onnx16OpSchemaRegistryD0Ev, symObjAddr: 0x1E820, symBinAddr: 0xD50EB0, symSize: 0x4 }
  - { offset: 0x60044C, size: 0x8, addend: 0x0, symName: __ZNSt3__16vectorIN4onnx8OpSchema15FormalParameterENS_9allocatorIS3_EEE26__swap_out_circular_bufferERNS_14__split_bufferIS3_RS5_EE, symObjAddr: 0x2546C, symBinAddr: 0xD51064, symSize: 0x178 }
  - { offset: 0x600942, size: 0x8, addend: 0x0, symName: __ZNSt3__114__split_bufferIN4onnx8OpSchema15FormalParameterERNS_9allocatorIS3_EEED1Ev, symObjAddr: 0x255E4, symBinAddr: 0xD511DC, symSize: 0x50 }
  - { offset: 0x600F26, size: 0x8, addend: 0x0, symName: __ZNSt3__114__split_bufferIN4onnx8OpSchema19TypeConstraintParamERNS_9allocatorIS3_EEED1Ev, symObjAddr: 0x25918, symBinAddr: 0xD51510, symSize: 0x30 }
  - { offset: 0x601010, size: 0x8, addend: 0x0, symName: __ZNSt3__114__split_bufferIN4onnx8OpSchema19TypeConstraintParamERNS_9allocatorIS3_EEE5clearB8ne190102Ev, symObjAddr: 0x25A7C, symBinAddr: 0xD51674, symSize: 0xE0 }
  - { offset: 0x6021F4, size: 0x8, addend: 0x0, symName: __ZNSt3__112__hash_tableINS_17__hash_value_typeINS_12basic_stringIcNS_11char_traitsIcEENS_9allocatorIcEEEENS_4pairIiiEEEENS_22__unordered_map_hasherIS7_SA_NS_4hashIS7_EENS_8equal_toIS7_EELb1EEENS_21__unordered_map_equalIS7_SA_SF_SD_Lb1EEENS5_ISA_EEE25__emplace_unique_key_argsIS7_JRKNS_21piecewise_construct_tENS_5tupleIJOS7_EEENSP_IJEEEEEENS8_INS_15__hash_iteratorIPNS_11__hash_nodeISA_PvEEEEbEERKT_DpOT0_, symObjAddr: 0x26770, symBinAddr: 0xD51CDC, symSize: 0x43C }
  - { offset: 0x603A63, size: 0x8, addend: 0x0, symName: __ZN4onnx16OpSchemaRegistry20DomainToVersionRangeD2Ev, symObjAddr: 0x271E8, symBinAddr: 0xD52118, symSize: 0xB0 }
  - { offset: 0x604A76, size: 0x8, addend: 0x0, symName: __ZNSt3__112__hash_tableINS_17__hash_value_typeINS_12basic_stringIcNS_11char_traitsIcEENS_9allocatorIcEEEES7_EENS_22__unordered_map_hasherIS7_S8_NS_4hashIS7_EENS_8equal_toIS7_EELb1EEENS_21__unordered_map_equalIS7_S8_SD_SB_Lb1EEENS5_IS8_EEE21__construct_node_hashIRKS7_JSL_EEENS_10unique_ptrINS_11__hash_nodeIS8_PvEENS_22__hash_node_destructorINS5_ISP_EEEEEEmOT_DpOT0_, symObjAddr: 0x2889C, symBinAddr: 0xD52600, symSize: 0xE4 }
  - { offset: 0x605B00, size: 0x8, addend: 0x0, symName: __ZNSt3__113unordered_setIiNS_4hashIiEENS_8equal_toIiEENS_9allocatorIiEEEC2ERKS7_, symObjAddr: 0x298D4, symBinAddr: 0xD5287C, symSize: 0x140 }
  - { offset: 0x606C32, size: 0x8, addend: 0x0, symName: '__ZNSt3__110__function6__funcIZN4onnx8OpSchema10NumOutputsENS_13unordered_setIiNS_4hashIiEENS_8equal_toIiEENS_9allocatorIiEEEEE3$_0NS9_ISC_EEFbiEED1Ev', symObjAddr: 0x2A06C, symBinAddr: 0xD52B54, symSize: 0x54 }
  - { offset: 0x607038, size: 0x8, addend: 0x0, symName: '__ZNSt3__110__function6__funcIZN4onnx8OpSchema10NumOutputsENS_13unordered_setIiNS_4hashIiEENS_8equal_toIiEENS_9allocatorIiEEEEE3$_0NS9_ISC_EEFbiEED0Ev', symObjAddr: 0x2A0C0, symBinAddr: 0xD52BA8, symSize: 0x54 }
  - { offset: 0x607757, size: 0x8, addend: 0x0, symName: '__ZNKSt3__110__function6__funcIZN4onnx8OpSchema10NumOutputsENS_13unordered_setIiNS_4hashIiEENS_8equal_toIiEENS_9allocatorIiEEEEE3$_0NS9_ISC_EEFbiEE7__cloneEv', symObjAddr: 0x2A114, symBinAddr: 0xD52BFC, symSize: 0x54 }
  - { offset: 0x607B88, size: 0x8, addend: 0x0, symName: '__ZNKSt3__110__function6__funcIZN4onnx8OpSchema10NumOutputsENS_13unordered_setIiNS_4hashIiEENS_8equal_toIiEENS_9allocatorIiEEEEE3$_0NS9_ISC_EEFbiEE7__cloneEPNS0_6__baseISE_EE', symObjAddr: 0x2A168, symBinAddr: 0xD52C50, symSize: 0x1C }
  - { offset: 0x607CF3, size: 0x8, addend: 0x0, symName: '__ZNSt3__110__function6__funcIZN4onnx8OpSchema10NumOutputsENS_13unordered_setIiNS_4hashIiEENS_8equal_toIiEENS_9allocatorIiEEEEE3$_0NS9_ISC_EEFbiEE7destroyEv', symObjAddr: 0x2A184, symBinAddr: 0xD52C6C, symSize: 0x4C }
  - { offset: 0x60808E, size: 0x8, addend: 0x0, symName: '__ZNSt3__110__function6__funcIZN4onnx8OpSchema10NumOutputsENS_13unordered_setIiNS_4hashIiEENS_8equal_toIiEENS_9allocatorIiEEEEE3$_0NS9_ISC_EEFbiEE18destroy_deallocateEv', symObjAddr: 0x2A1D0, symBinAddr: 0xD52CB8, symSize: 0x48 }
  - { offset: 0x608574, size: 0x8, addend: 0x0, symName: '__ZNSt3__110__function6__funcIZN4onnx8OpSchema10NumOutputsENS_13unordered_setIiNS_4hashIiEENS_8equal_toIiEENS_9allocatorIiEEEEE3$_0NS9_ISC_EEFbiEEclEOi', symObjAddr: 0x2A218, symBinAddr: 0xD52D00, symSize: 0xE4 }
  - { offset: 0x6086AC, size: 0x8, addend: 0x0, symName: '__ZNKSt3__110__function6__funcIZN4onnx8OpSchema10NumOutputsENS_13unordered_setIiNS_4hashIiEENS_8equal_toIiEENS_9allocatorIiEEEEE3$_0NS9_ISC_EEFbiEE6targetERKSt9type_info', symObjAddr: 0x2A2FC, symBinAddr: 0xD52DE4, symSize: 0x64 }
  - { offset: 0x60875F, size: 0x8, addend: 0x0, symName: '__ZNKSt3__110__function6__funcIZN4onnx8OpSchema10NumOutputsENS_13unordered_setIiNS_4hashIiEENS_8equal_toIiEENS_9allocatorIiEEEEE3$_0NS9_ISC_EEFbiEE11target_typeEv', symObjAddr: 0x2A360, symBinAddr: 0xD52E48, symSize: 0xC }
  - { offset: 0x608888, size: 0x8, addend: 0x0, symName: __ZNSt3__14pairIKNS_12basic_stringIcNS_11char_traitsIcEENS_9allocatorIcEEEEN4onnx8OpSchema9AttributeEEC2B8ne190102IS6_SA_Li0EEEOT_OT0_, symObjAddr: 0x2A7D4, symBinAddr: 0xD532BC, symSize: 0xF4 }
  - { offset: 0x608D3B, size: 0x8, addend: 0x0, symName: __ZNSt3__112__hash_tableINS_17__hash_value_typeINS_12basic_stringIcNS_11char_traitsIcEENS_9allocatorIcEEEENS_4pairINS_13unordered_setIPKS7_NS_4hashISB_EENS_8equal_toISB_EENS5_ISB_EEEES7_EEEENS_22__unordered_map_hasherIS7_SJ_NSC_IS7_EENSE_IS7_EELb1EEENS_21__unordered_map_equalIS7_SJ_SM_SL_Lb1EEENS5_ISJ_EEE21__construct_node_hashIRS7_JSI_EEENS_10unique_ptrINS_11__hash_nodeISJ_PvEENS_22__hash_node_destructorINS5_ISX_EEEEEEmOT_DpOT0_, symObjAddr: 0x2B244, symBinAddr: 0xD53D2C, symSize: 0x114 }
  - { offset: 0x60954B, size: 0x8, addend: 0x0, symName: __ZNSt3__112__hash_tableIPKNS_12basic_stringIcNS_11char_traitsIcEENS_9allocatorIcEEEENS_4hashIS8_EENS_8equal_toIS8_EENS4_IS8_EEE19__node_insert_multiEPNS_11__hash_nodeIS8_PvEE, symObjAddr: 0x2B4B4, symBinAddr: 0xD53F9C, symSize: 0x150 }
  - { offset: 0x609842, size: 0x8, addend: 0x0, symName: __ZNSt3__112__hash_tableIPKNS_12basic_stringIcNS_11char_traitsIcEENS_9allocatorIcEEEENS_4hashIS8_EENS_8equal_toIS8_EENS4_IS8_EEE27__node_insert_multi_prepareEmRS8_, symObjAddr: 0x2B604, symBinAddr: 0xD540EC, symSize: 0x27C }
  - { offset: 0x609B33, size: 0x8, addend: 0x0, symName: __ZNSt3__112__hash_tableIPKNS_12basic_stringIcNS_11char_traitsIcEENS_9allocatorIcEEEENS_4hashIS8_EENS_8equal_toIS8_EENS4_IS8_EEE11__do_rehashILb0EEEvm, symObjAddr: 0x2B880, symBinAddr: 0xD54368, symSize: 0x1C8 }
  - { offset: 0x609FB3, size: 0x8, addend: 0x0, symName: __ZNSt3__120__shared_ptr_emplaceIN4onnx13FunctionProtoENS_9allocatorIS2_EEED1Ev, symObjAddr: 0x2BA48, symBinAddr: 0xD54530, symSize: 0x10 }
  - { offset: 0x609FE5, size: 0x8, addend: 0x0, symName: __ZNSt3__120__shared_ptr_emplaceIN4onnx13FunctionProtoENS_9allocatorIS2_EEED1Ev, symObjAddr: 0x2BA48, symBinAddr: 0xD54530, symSize: 0x10 }
  - { offset: 0x60A007, size: 0x8, addend: 0x0, symName: __ZNSt3__120__shared_ptr_emplaceIN4onnx13FunctionProtoENS_9allocatorIS2_EEED1Ev, symObjAddr: 0x2BA48, symBinAddr: 0xD54530, symSize: 0x10 }
  - { offset: 0x60A03D, size: 0x8, addend: 0x0, symName: __ZNSt3__120__shared_ptr_emplaceIN4onnx13FunctionProtoENS_9allocatorIS2_EEED0Ev, symObjAddr: 0x2BA58, symBinAddr: 0xD54540, symSize: 0x20 }
  - { offset: 0x60A10E, size: 0x8, addend: 0x0, symName: __ZNSt3__120__shared_ptr_emplaceIN4onnx13FunctionProtoENS_9allocatorIS2_EEE16__on_zero_sharedEv, symObjAddr: 0x2BA78, symBinAddr: 0xD54560, symSize: 0x8 }
  - { offset: 0x60A137, size: 0x8, addend: 0x0, symName: __ZNSt3__120__shared_ptr_emplaceIN4onnx13FunctionProtoENS_9allocatorIS2_EEE16__on_zero_sharedEv, symObjAddr: 0x2BA78, symBinAddr: 0xD54560, symSize: 0x8 }
  - { offset: 0x60A155, size: 0x8, addend: 0x0, symName: __ZNSt3__120__shared_ptr_emplaceIN4onnx13FunctionProtoENS_9allocatorIS2_EEE16__on_zero_sharedEv, symObjAddr: 0x2BA78, symBinAddr: 0xD54560, symSize: 0x8 }
  - { offset: 0x60A19C, size: 0x8, addend: 0x0, symName: __ZNSt3__120__shared_ptr_emplaceIN4onnx13FunctionProtoENS_9allocatorIS2_EEE21__on_zero_shared_weakEv, symObjAddr: 0x2BA80, symBinAddr: 0xD54568, symSize: 0x4 }
  - { offset: 0x60A1CF, size: 0x8, addend: 0x0, symName: __ZNSt3__120__shared_ptr_emplaceIN4onnx13FunctionProtoENS_9allocatorIS2_EEE21__on_zero_shared_weakEv, symObjAddr: 0x2BA80, symBinAddr: 0xD54568, symSize: 0x4 }
  - { offset: 0x60A1F1, size: 0x8, addend: 0x0, symName: __ZNSt3__120__shared_ptr_emplaceIN4onnx13FunctionProtoENS_9allocatorIS2_EEE21__on_zero_shared_weakEv, symObjAddr: 0x2BA80, symBinAddr: 0xD54568, symSize: 0x4 }
  - { offset: 0x60A213, size: 0x8, addend: 0x0, symName: __ZNSt3__120__shared_ptr_emplaceIN4onnx13FunctionProtoENS_9allocatorIS2_EEE21__on_zero_shared_weakEv, symObjAddr: 0x2BA80, symBinAddr: 0xD54568, symSize: 0x4 }
  - { offset: 0x60A240, size: 0x8, addend: 0x0, symName: __ZNSt3__120__shared_ptr_emplaceIN4onnx13FunctionProtoENS_9allocatorIS2_EEE21__on_zero_shared_weakEv, symObjAddr: 0x2BA80, symBinAddr: 0xD54568, symSize: 0x4 }
  - { offset: 0x60A268, size: 0x8, addend: 0x0, symName: __ZNSt3__120__shared_ptr_emplaceIN4onnx13FunctionProtoENS_9allocatorIS2_EEE21__on_zero_shared_weakEv, symObjAddr: 0x2BA80, symBinAddr: 0xD54568, symSize: 0x4 }
  - { offset: 0x60A294, size: 0x8, addend: 0x0, symName: _OUTLINED_FUNCTION_0, symObjAddr: 0x2BD00, symBinAddr: 0xD5456C, symSize: 0x1C }
  - { offset: 0x60A2AC, size: 0x8, addend: 0x0, symName: _OUTLINED_FUNCTION_3, symObjAddr: 0x2BD2C, symBinAddr: 0xD54588, symSize: 0x8 }
  - { offset: 0x6177A0, size: 0x8, addend: 0x0, symName: __ZN4onnx11GetOpSchemaINS_24SequenceEmpty_Onnx_ver11EEENS_8OpSchemaEv, symObjAddr: 0x0, symBinAddr: 0xD54590, symSize: 0x38C }
  - { offset: 0x618B3D, size: 0x8, addend: 0x0, symName: __ZN4onnx11GetOpSchemaINS_28SequenceConstruct_Onnx_ver11EEENS_8OpSchemaEv, symObjAddr: 0x584, symBinAddr: 0xD5491C, symSize: 0x4FC }
  - { offset: 0x61A8D7, size: 0x8, addend: 0x0, symName: __ZN4onnx11GetOpSchemaINS_25SequenceInsert_Onnx_ver11EEENS_8OpSchemaEv, symObjAddr: 0xA80, symBinAddr: 0xD54E18, symSize: 0x598 }
  - { offset: 0x61C6AB, size: 0x8, addend: 0x0, symName: __ZN4onnx11GetOpSchemaINS_21SequenceAt_Onnx_ver11EEENS_8OpSchemaEv, symObjAddr: 0x1018, symBinAddr: 0xD553B0, symSize: 0x568 }
  - { offset: 0x61E47F, size: 0x8, addend: 0x0, symName: __ZN4onnx11GetOpSchemaINS_24SequenceErase_Onnx_ver11EEENS_8OpSchemaEv, symObjAddr: 0x1580, symBinAddr: 0xD55918, symSize: 0x408 }
  - { offset: 0x61F809, size: 0x8, addend: 0x0, symName: __ZN4onnx11GetOpSchemaINS_25SequenceLength_Onnx_ver11EEENS_8OpSchemaEv, symObjAddr: 0x1988, symBinAddr: 0xD55D20, symSize: 0x3D0 }
  - { offset: 0x620BA5, size: 0x8, addend: 0x0, symName: __ZN4onnx11GetOpSchemaINS_29ConcatFromSequence_Onnx_ver11EEENS_8OpSchemaEv, symObjAddr: 0x1F5C, symBinAddr: 0xD562F4, symSize: 0x54C }
  - { offset: 0x622954, size: 0x8, addend: 0x0, symName: __ZN4onnx11GetOpSchemaINS_26SplitToSequence_Onnx_ver24EEENS_8OpSchemaEv, symObjAddr: 0x1D58, symBinAddr: 0xD560F0, symSize: 0x204 }
  - { offset: 0x623202, size: 0x8, addend: 0x0, symName: __ZN4onnx11GetOpSchemaINS_22SequenceMap_Onnx_ver17EEENS_8OpSchemaEv, symObjAddr: 0x24A8, symBinAddr: 0xD56840, symSize: 0x694 }
  - { offset: 0x6256DC, size: 0x8, addend: 0x0, symName: __ZN4onnxL24BuildSequenceMapBodyFuncERKNS_24FunctionBodyBuildContextERKNS_8OpSchemaERNS_13FunctionProtoE, symObjAddr: 0x2B3C, symBinAddr: 0xD56ED4, symSize: 0x2F1C }
  - { offset: 0x632E9F, size: 0x8, addend: 0x0, symName: __ZN4onnx10MakeStringIJNSt3__112basic_stringIcNS1_11char_traitsIcEENS1_9allocatorIcEEEEA2_ciEEES7_DpRKT_, symObjAddr: 0xA734, symBinAddr: 0xD5A7EC, symSize: 0x1F4 }
  - { offset: 0x633500, size: 0x8, addend: 0x0, symName: __ZN4onnx10MakeStringIJNSt3__112basic_stringIcNS1_11char_traitsIcEENS1_9allocatorIcEEEEA11_cEEES7_DpRKT_, symObjAddr: 0xAB14, symBinAddr: 0xD5ABCC, symSize: 0x1E4 }
  - { offset: 0x633B09, size: 0x8, addend: 0x0, symName: __ZN4onnx10MakeStringIJNSt3__112basic_stringIcNS1_11char_traitsIcEENS1_9allocatorIcEEEEA9_cEEES7_DpRKT_, symObjAddr: 0xACF8, symBinAddr: 0xD5ADB0, symSize: 0x1E4 }
  - { offset: 0x634112, size: 0x8, addend: 0x0, symName: __ZN4onnx10MakeStringIJNSt3__112basic_stringIcNS1_11char_traitsIcEENS1_9allocatorIcEEEEA10_cEEES7_DpRKT_, symObjAddr: 0xAEDC, symBinAddr: 0xD5AF94, symSize: 0x1E4 }
  - { offset: 0x63471B, size: 0x8, addend: 0x0, symName: __ZN4onnx10MakeStringIJNSt3__112basic_stringIcNS1_11char_traitsIcEENS1_9allocatorIcEEEEA2_cS7_EEES7_DpRKT_, symObjAddr: 0xB2C0, symBinAddr: 0xD5B178, symSize: 0x208 }
  - { offset: 0x634DFB, size: 0x8, addend: 0x0, symName: __ZN4onnx10MakeStringIJNSt3__112basic_stringIcNS1_11char_traitsIcEENS1_9allocatorIcEEEEA4_cEEES7_DpRKT_, symObjAddr: 0xB4C8, symBinAddr: 0xD5B380, symSize: 0x1E4 }
  - { offset: 0x635404, size: 0x8, addend: 0x0, symName: __ZN4onnx10MakeStringIJNSt3__112basic_stringIcNS1_11char_traitsIcEENS1_9allocatorIcEEEEA5_cEEES7_DpRKT_, symObjAddr: 0xB6AC, symBinAddr: 0xD5B564, symSize: 0x1E4 }
  - { offset: 0x635A0D, size: 0x8, addend: 0x0, symName: __ZN4onnx10MakeStringIJA13_cNSt3__112basic_stringIcNS2_11char_traitsIcEENS2_9allocatorIcEEEEEEES8_DpRKT_, symObjAddr: 0xB890, symBinAddr: 0xD5B748, symSize: 0x1E4 }
  - { offset: 0x636016, size: 0x8, addend: 0x0, symName: __ZN4onnx10MakeStringIJNSt3__112basic_stringIcNS1_11char_traitsIcEENS1_9allocatorIcEEEEA8_cEEES7_DpRKT_, symObjAddr: 0xBA74, symBinAddr: 0xD5B92C, symSize: 0x1E4 }
  - { offset: 0x63661F, size: 0x8, addend: 0x0, symName: __ZN4onnx10MakeStringIJNSt3__112basic_stringIcNS1_11char_traitsIcEENS1_9allocatorIcEEEEA6_cEEES7_DpRKT_, symObjAddr: 0xBCB0, symBinAddr: 0xD5BB10, symSize: 0x1E4 }
  - { offset: 0x636C5C, size: 0x8, addend: 0x0, symName: __ZN4onnx10MakeStringIJA8_ciA27_cEEENSt3__112basic_stringIcNS3_11char_traitsIcEENS3_9allocatorIcEEEEDpRKT_, symObjAddr: 0xA928, symBinAddr: 0xD5A9E0, symSize: 0x1EC }
  - { offset: 0x6372B9, size: 0x8, addend: 0x0, symName: __ZN4onnx10MakeStringIJA7_ciA27_cEEENSt3__112basic_stringIcNS3_11char_traitsIcEENS3_9allocatorIcEEEEDpRKT_, symObjAddr: 0xA548, symBinAddr: 0xD5A600, symSize: 0x1EC }
  - { offset: 0x637A80, size: 0x8, addend: 0x0, symName: __ZN4onnx10MakeStringIJA7_ciA27_cEEENSt3__112basic_stringIcNS3_11char_traitsIcEENS3_9allocatorIcEEEEDpRKT_, symObjAddr: 0xA548, symBinAddr: 0xD5A600, symSize: 0x1EC }
  - { offset: 0x637A8F, size: 0x8, addend: 0x0, symName: __ZN4onnxL28SequenceMapInferenceFunctionERNS_16InferenceContextE, symObjAddr: 0x5A58, symBinAddr: 0xD59DF0, symSize: 0x810 }
  - { offset: 0x639D07, size: 0x8, addend: 0x0, symName: __ZN4onnx10MakeStringIJA22_cA7_cmA28_cEEENSt3__112basic_stringIcNS4_11char_traitsIcEENS4_9allocatorIcEEEEDpRKT_, symObjAddr: 0xCE94, symBinAddr: 0xD5C008, symSize: 0x210 }
  - { offset: 0x63A43E, size: 0x8, addend: 0x0, symName: __ZN4onnx10MakeStringIJA22_cA7_cmA32_cEEENSt3__112basic_stringIcNS4_11char_traitsIcEENS4_9allocatorIcEEEEDpRKT_, symObjAddr: 0xD0DC, symBinAddr: 0xD5C218, symSize: 0x210 }
  - { offset: 0x63AB75, size: 0x8, addend: 0x0, symName: __ZN4onnx10MakeStringIJA22_cA52_cEEENSt3__112basic_stringIcNS3_11char_traitsIcEENS3_9allocatorIcEEEEDpRKT_, symObjAddr: 0xD2EC, symBinAddr: 0xD5C428, symSize: 0x1DC }
  - { offset: 0x63C196, size: 0x8, addend: 0x0, symName: __ZN4onnx10MakeStringIJA22_cA62_cEEENSt3__112basic_stringIcNS3_11char_traitsIcEENS3_9allocatorIcEEEEDpRKT_, symObjAddr: 0xDC70, symBinAddr: 0xD5C93C, symSize: 0x1DC }
  - { offset: 0x63C8B2, size: 0x8, addend: 0x0, symName: __ZN4onnx10MakeStringIJA22_cA31_cmA33_cEEENSt3__112basic_stringIcNS4_11char_traitsIcEENS4_9allocatorIcEEEEDpRKT_, symObjAddr: 0xE7A4, symBinAddr: 0xD5D470, symSize: 0x210 }
  - { offset: 0x63CFE9, size: 0x8, addend: 0x0, symName: __ZN4onnx10MakeStringIJA22_cA56_cEEENSt3__112basic_stringIcNS3_11char_traitsIcEENS3_9allocatorIcEEEEDpRKT_, symObjAddr: 0xE5C8, symBinAddr: 0xD5D294, symSize: 0x1DC }
  - { offset: 0x63D7AA, size: 0x8, addend: 0x0, symName: __ZN4onnx10MakeStringIJA22_cA80_cEEENSt3__112basic_stringIcNS3_11char_traitsIcEENS3_9allocatorIcEEEEDpRKT_, symObjAddr: 0xF03C, symBinAddr: 0xD5DCF4, symSize: 0x1DC }
  - { offset: 0x63DDAF, size: 0x8, addend: 0x0, symName: __ZN4onnx10MakeStringIJA22_cA77_ciA9_ciEEENSt3__112basic_stringIcNS4_11char_traitsIcEENS4_9allocatorIcEEEEDpRKT_, symObjAddr: 0xF218, symBinAddr: 0xD5DED0, symSize: 0x220 }
  - { offset: 0x63F296, size: 0x8, addend: 0x0, symName: __ZN4onnx10MakeStringIJA23_cA52_ciA3_ciA10_ciEEENSt3__112basic_stringIcNS5_11char_traitsIcEENS5_9allocatorIcEEEEDpRKT_, symObjAddr: 0x106F4, symBinAddr: 0xD5EE18, symSize: 0x254 }
  - { offset: 0x677929, size: 0x8, addend: 0x0, symName: __ZN6google8protobuf8internal20RepeatedPtrFieldBase18MergeFromInnerLoopINS0_16RepeatedPtrFieldIN4onnx14ValueInfoProtoEE11TypeHandlerEEEvPPvSA_ii, symObjAddr: 0xC1D0, symBinAddr: 0xD5BF80, symSize: 0x78 }
  - { offset: 0x678A1E, size: 0x8, addend: 0x0, symName: __ZN4onnx18FunctionBodyHelper5ConstIbEENS0_7NodeDefERKNSt3__112basic_stringIcNS3_11char_traitsIcEENS3_9allocatorIcEEEERKT_, symObjAddr: 0xBE94, symBinAddr: 0xD5BCF4, symSize: 0x254 }
  - { offset: 0x679C31, size: 0x8, addend: 0x0, symName: __ZN6google8protobuf16RepeatedPtrFieldIN4onnx14ValueInfoProtoEED1Ev, symObjAddr: 0xC198, symBinAddr: 0xD5BF48, symSize: 0x38 }
  - { offset: 0x685306, size: 0x8, addend: 0x0, symName: __ZN6google8protobuf8internal18GenericTypeHandlerIN4onnx14ValueInfoProtoEE5MergeERKS4_PS4_, symObjAddr: 0xC248, symBinAddr: 0xD5BFF8, symSize: 0x10 }
  - { offset: 0x685AEC, size: 0x8, addend: 0x0, symName: '__ZNSt3__110__function6__funcIZN4onnx11GetOpSchemaINS2_24SequenceEmpty_Onnx_ver11EEENS2_8OpSchemaEvE3$_0NS_9allocatorIS6_EEFvRNS2_16InferenceContextEEED1Ev', symObjAddr: 0xD938, symBinAddr: 0xD5C604, symSize: 0x4 }
  - { offset: 0x685B17, size: 0x8, addend: 0x0, symName: '__ZNSt3__110__function6__funcIZN4onnx11GetOpSchemaINS2_24SequenceEmpty_Onnx_ver11EEENS2_8OpSchemaEvE3$_0NS_9allocatorIS6_EEFvRNS2_16InferenceContextEEED0Ev', symObjAddr: 0xD93C, symBinAddr: 0xD5C608, symSize: 0x4 }
  - { offset: 0x685BCC, size: 0x8, addend: 0x0, symName: '__ZNKSt3__110__function6__funcIZN4onnx11GetOpSchemaINS2_24SequenceEmpty_Onnx_ver11EEENS2_8OpSchemaEvE3$_0NS_9allocatorIS6_EEFvRNS2_16InferenceContextEEE7__cloneEv', symObjAddr: 0xD940, symBinAddr: 0xD5C60C, symSize: 0x24 }
  - { offset: 0x685D0F, size: 0x8, addend: 0x0, symName: '__ZNKSt3__110__function6__funcIZN4onnx11GetOpSchemaINS2_24SequenceEmpty_Onnx_ver11EEENS2_8OpSchemaEvE3$_0NS_9allocatorIS6_EEFvRNS2_16InferenceContextEEE7__cloneEPNS0_6__baseISB_EE', symObjAddr: 0xD964, symBinAddr: 0xD5C630, symSize: 0x10 }
  - { offset: 0x685D43, size: 0x8, addend: 0x0, symName: '__ZNKSt3__110__function6__funcIZN4onnx11GetOpSchemaINS2_24SequenceEmpty_Onnx_ver11EEENS2_8OpSchemaEvE3$_0NS_9allocatorIS6_EEFvRNS2_16InferenceContextEEE7__cloneEPNS0_6__baseISB_EE', symObjAddr: 0xD964, symBinAddr: 0xD5C630, symSize: 0x10 }
  - { offset: 0x685D5F, size: 0x8, addend: 0x0, symName: '__ZNKSt3__110__function6__funcIZN4onnx11GetOpSchemaINS2_24SequenceEmpty_Onnx_ver11EEENS2_8OpSchemaEvE3$_0NS_9allocatorIS6_EEFvRNS2_16InferenceContextEEE7__cloneEPNS0_6__baseISB_EE', symObjAddr: 0xD964, symBinAddr: 0xD5C630, symSize: 0x10 }
  - { offset: 0x685D7B, size: 0x8, addend: 0x0, symName: '__ZNSt3__110__function6__funcIZN4onnx11GetOpSchemaINS2_24SequenceEmpty_Onnx_ver11EEENS2_8OpSchemaEvE3$_0NS_9allocatorIS6_EEFvRNS2_16InferenceContextEEE7destroyEv', symObjAddr: 0xD974, symBinAddr: 0xD5C640, symSize: 0x4 }
  - { offset: 0x685DCA, size: 0x8, addend: 0x0, symName: '__ZNSt3__110__function6__funcIZN4onnx11GetOpSchemaINS2_24SequenceEmpty_Onnx_ver11EEENS2_8OpSchemaEvE3$_0NS_9allocatorIS6_EEFvRNS2_16InferenceContextEEE18destroy_deallocateEv', symObjAddr: 0xD978, symBinAddr: 0xD5C644, symSize: 0x4 }
  - { offset: 0x685DFD, size: 0x8, addend: 0x0, symName: '__ZNSt3__110__function6__funcIZN4onnx11GetOpSchemaINS2_24SequenceEmpty_Onnx_ver11EEENS2_8OpSchemaEvE3$_0NS_9allocatorIS6_EEFvRNS2_16InferenceContextEEE18destroy_deallocateEv', symObjAddr: 0xD978, symBinAddr: 0xD5C644, symSize: 0x4 }
  - { offset: 0x685E1F, size: 0x8, addend: 0x0, symName: '__ZNSt3__110__function6__funcIZN4onnx11GetOpSchemaINS2_24SequenceEmpty_Onnx_ver11EEENS2_8OpSchemaEvE3$_0NS_9allocatorIS6_EEFvRNS2_16InferenceContextEEE18destroy_deallocateEv', symObjAddr: 0xD978, symBinAddr: 0xD5C644, symSize: 0x4 }
  - { offset: 0x685E4A, size: 0x8, addend: 0x0, symName: '__ZNSt3__110__function6__funcIZN4onnx11GetOpSchemaINS2_24SequenceEmpty_Onnx_ver11EEENS2_8OpSchemaEvE3$_0NS_9allocatorIS6_EEFvRNS2_16InferenceContextEEE18destroy_deallocateEv', symObjAddr: 0xD978, symBinAddr: 0xD5C644, symSize: 0x4 }
  - { offset: 0x685E70, size: 0x8, addend: 0x0, symName: '__ZNSt3__110__function6__funcIZN4onnx11GetOpSchemaINS2_24SequenceEmpty_Onnx_ver11EEENS2_8OpSchemaEvE3$_0NS_9allocatorIS6_EEFvRNS2_16InferenceContextEEE18destroy_deallocateEv', symObjAddr: 0xD978, symBinAddr: 0xD5C644, symSize: 0x4 }
  - { offset: 0x685F6C, size: 0x8, addend: 0x0, symName: '__ZNSt3__110__function6__funcIZN4onnx11GetOpSchemaINS2_24SequenceEmpty_Onnx_ver11EEENS2_8OpSchemaEvE3$_0NS_9allocatorIS6_EEFvRNS2_16InferenceContextEEEclESA_', symObjAddr: 0xD97C, symBinAddr: 0xD5C648, symSize: 0x284 }
  - { offset: 0x6868BF, size: 0x8, addend: 0x0, symName: '__ZNKSt3__110__function6__funcIZN4onnx11GetOpSchemaINS2_24SequenceEmpty_Onnx_ver11EEENS2_8OpSchemaEvE3$_0NS_9allocatorIS6_EEFvRNS2_16InferenceContextEEE6targetERKSt9type_info', symObjAddr: 0xDC00, symBinAddr: 0xD5C8CC, symSize: 0x64 }
  - { offset: 0x686972, size: 0x8, addend: 0x0, symName: '__ZNKSt3__110__function6__funcIZN4onnx11GetOpSchemaINS2_24SequenceEmpty_Onnx_ver11EEENS2_8OpSchemaEvE3$_0NS_9allocatorIS6_EEFvRNS2_16InferenceContextEEE11target_typeEv', symObjAddr: 0xDC64, symBinAddr: 0xD5C930, symSize: 0xC }
  - { offset: 0x6869AE, size: 0x8, addend: 0x0, symName: '__ZNSt3__110__function6__funcIZN4onnx11GetOpSchemaINS2_28SequenceConstruct_Onnx_ver11EEENS2_8OpSchemaEvE3$_0NS_9allocatorIS6_EEFvRNS2_16InferenceContextEEED1Ev', symObjAddr: 0xDE4C, symBinAddr: 0xD5CB18, symSize: 0x4 }
  - { offset: 0x6869D9, size: 0x8, addend: 0x0, symName: '__ZNSt3__110__function6__funcIZN4onnx11GetOpSchemaINS2_28SequenceConstruct_Onnx_ver11EEENS2_8OpSchemaEvE3$_0NS_9allocatorIS6_EEFvRNS2_16InferenceContextEEED0Ev', symObjAddr: 0xDE50, symBinAddr: 0xD5CB1C, symSize: 0x4 }
  - { offset: 0x686A8E, size: 0x8, addend: 0x0, symName: '__ZNKSt3__110__function6__funcIZN4onnx11GetOpSchemaINS2_28SequenceConstruct_Onnx_ver11EEENS2_8OpSchemaEvE3$_0NS_9allocatorIS6_EEFvRNS2_16InferenceContextEEE7__cloneEv', symObjAddr: 0xDE54, symBinAddr: 0xD5CB20, symSize: 0x24 }
  - { offset: 0x686BD1, size: 0x8, addend: 0x0, symName: '__ZNKSt3__110__function6__funcIZN4onnx11GetOpSchemaINS2_28SequenceConstruct_Onnx_ver11EEENS2_8OpSchemaEvE3$_0NS_9allocatorIS6_EEFvRNS2_16InferenceContextEEE7__cloneEPNS0_6__baseISB_EE', symObjAddr: 0xDE78, symBinAddr: 0xD5CB44, symSize: 0x10 }
  - { offset: 0x686C05, size: 0x8, addend: 0x0, symName: '__ZNKSt3__110__function6__funcIZN4onnx11GetOpSchemaINS2_28SequenceConstruct_Onnx_ver11EEENS2_8OpSchemaEvE3$_0NS_9allocatorIS6_EEFvRNS2_16InferenceContextEEE7__cloneEPNS0_6__baseISB_EE', symObjAddr: 0xDE78, symBinAddr: 0xD5CB44, symSize: 0x10 }
  - { offset: 0x686C21, size: 0x8, addend: 0x0, symName: '__ZNKSt3__110__function6__funcIZN4onnx11GetOpSchemaINS2_28SequenceConstruct_Onnx_ver11EEENS2_8OpSchemaEvE3$_0NS_9allocatorIS6_EEFvRNS2_16InferenceContextEEE7__cloneEPNS0_6__baseISB_EE', symObjAddr: 0xDE78, symBinAddr: 0xD5CB44, symSize: 0x10 }
  - { offset: 0x686C3D, size: 0x8, addend: 0x0, symName: '__ZNSt3__110__function6__funcIZN4onnx11GetOpSchemaINS2_28SequenceConstruct_Onnx_ver11EEENS2_8OpSchemaEvE3$_0NS_9allocatorIS6_EEFvRNS2_16InferenceContextEEE7destroyEv', symObjAddr: 0xDE88, symBinAddr: 0xD5CB54, symSize: 0x4 }
  - { offset: 0x686C8C, size: 0x8, addend: 0x0, symName: '__ZNSt3__110__function6__funcIZN4onnx11GetOpSchemaINS2_28SequenceConstruct_Onnx_ver11EEENS2_8OpSchemaEvE3$_0NS_9allocatorIS6_EEFvRNS2_16InferenceContextEEE18destroy_deallocateEv', symObjAddr: 0xDE8C, symBinAddr: 0xD5CB58, symSize: 0x4 }
  - { offset: 0x686CBF, size: 0x8, addend: 0x0, symName: '__ZNSt3__110__function6__funcIZN4onnx11GetOpSchemaINS2_28SequenceConstruct_Onnx_ver11EEENS2_8OpSchemaEvE3$_0NS_9allocatorIS6_EEFvRNS2_16InferenceContextEEE18destroy_deallocateEv', symObjAddr: 0xDE8C, symBinAddr: 0xD5CB58, symSize: 0x4 }
  - { offset: 0x686CE1, size: 0x8, addend: 0x0, symName: '__ZNSt3__110__function6__funcIZN4onnx11GetOpSchemaINS2_28SequenceConstruct_Onnx_ver11EEENS2_8OpSchemaEvE3$_0NS_9allocatorIS6_EEFvRNS2_16InferenceContextEEE18destroy_deallocateEv', symObjAddr: 0xDE8C, symBinAddr: 0xD5CB58, symSize: 0x4 }
  - { offset: 0x686D0C, size: 0x8, addend: 0x0, symName: '__ZNSt3__110__function6__funcIZN4onnx11GetOpSchemaINS2_28SequenceConstruct_Onnx_ver11EEENS2_8OpSchemaEvE3$_0NS_9allocatorIS6_EEFvRNS2_16InferenceContextEEE18destroy_deallocateEv', symObjAddr: 0xDE8C, symBinAddr: 0xD5CB58, symSize: 0x4 }
  - { offset: 0x686D32, size: 0x8, addend: 0x0, symName: '__ZNSt3__110__function6__funcIZN4onnx11GetOpSchemaINS2_28SequenceConstruct_Onnx_ver11EEENS2_8OpSchemaEvE3$_0NS_9allocatorIS6_EEFvRNS2_16InferenceContextEEE18destroy_deallocateEv', symObjAddr: 0xDE8C, symBinAddr: 0xD5CB58, symSize: 0x4 }
  - { offset: 0x687332, size: 0x8, addend: 0x0, symName: '__ZNSt3__110__function6__funcIZN4onnx11GetOpSchemaINS2_28SequenceConstruct_Onnx_ver11EEENS2_8OpSchemaEvE3$_0NS_9allocatorIS6_EEFvRNS2_16InferenceContextEEEclESA_', symObjAddr: 0xDE90, symBinAddr: 0xD5CB5C, symSize: 0x6C8 }
  - { offset: 0x688A04, size: 0x8, addend: 0x0, symName: '__ZNSt3__110__function6__funcIZN4onnx11GetOpSchemaINS2_25SequenceInsert_Onnx_ver11EEENS2_8OpSchemaEvE3$_0NS_9allocatorIS6_EEFvRNS2_16InferenceContextEEED1Ev', symObjAddr: 0xE9C8, symBinAddr: 0xD5D680, symSize: 0x4 }
  - { offset: 0x688A0F, size: 0x8, addend: 0x0, symName: '__ZNKSt3__110__function6__funcIZN4onnx11GetOpSchemaINS2_28SequenceConstruct_Onnx_ver11EEENS2_8OpSchemaEvE3$_0NS_9allocatorIS6_EEFvRNS2_16InferenceContextEEE6targetERKSt9type_info', symObjAddr: 0xE558, symBinAddr: 0xD5D224, symSize: 0x64 }
  - { offset: 0x688AC2, size: 0x8, addend: 0x0, symName: '__ZNKSt3__110__function6__funcIZN4onnx11GetOpSchemaINS2_28SequenceConstruct_Onnx_ver11EEENS2_8OpSchemaEvE3$_0NS_9allocatorIS6_EEFvRNS2_16InferenceContextEEE11target_typeEv', symObjAddr: 0xE5BC, symBinAddr: 0xD5D288, symSize: 0xC }
  - { offset: 0x688B30, size: 0x8, addend: 0x0, symName: '__ZNSt3__110__function6__funcIZN4onnx11GetOpSchemaINS2_25SequenceInsert_Onnx_ver11EEENS2_8OpSchemaEvE3$_0NS_9allocatorIS6_EEFvRNS2_16InferenceContextEEED1Ev', symObjAddr: 0xE9C8, symBinAddr: 0xD5D680, symSize: 0x4 }
  - { offset: 0x688B5B, size: 0x8, addend: 0x0, symName: '__ZNSt3__110__function6__funcIZN4onnx11GetOpSchemaINS2_25SequenceInsert_Onnx_ver11EEENS2_8OpSchemaEvE3$_0NS_9allocatorIS6_EEFvRNS2_16InferenceContextEEED0Ev', symObjAddr: 0xE9CC, symBinAddr: 0xD5D684, symSize: 0x4 }
  - { offset: 0x688C10, size: 0x8, addend: 0x0, symName: '__ZNKSt3__110__function6__funcIZN4onnx11GetOpSchemaINS2_25SequenceInsert_Onnx_ver11EEENS2_8OpSchemaEvE3$_0NS_9allocatorIS6_EEFvRNS2_16InferenceContextEEE7__cloneEv', symObjAddr: 0xE9D0, symBinAddr: 0xD5D688, symSize: 0x24 }
  - { offset: 0x688D53, size: 0x8, addend: 0x0, symName: '__ZNKSt3__110__function6__funcIZN4onnx11GetOpSchemaINS2_25SequenceInsert_Onnx_ver11EEENS2_8OpSchemaEvE3$_0NS_9allocatorIS6_EEFvRNS2_16InferenceContextEEE7__cloneEPNS0_6__baseISB_EE', symObjAddr: 0xE9F4, symBinAddr: 0xD5D6AC, symSize: 0x10 }
  - { offset: 0x688D87, size: 0x8, addend: 0x0, symName: '__ZNKSt3__110__function6__funcIZN4onnx11GetOpSchemaINS2_25SequenceInsert_Onnx_ver11EEENS2_8OpSchemaEvE3$_0NS_9allocatorIS6_EEFvRNS2_16InferenceContextEEE7__cloneEPNS0_6__baseISB_EE', symObjAddr: 0xE9F4, symBinAddr: 0xD5D6AC, symSize: 0x10 }
  - { offset: 0x688DA3, size: 0x8, addend: 0x0, symName: '__ZNKSt3__110__function6__funcIZN4onnx11GetOpSchemaINS2_25SequenceInsert_Onnx_ver11EEENS2_8OpSchemaEvE3$_0NS_9allocatorIS6_EEFvRNS2_16InferenceContextEEE7__cloneEPNS0_6__baseISB_EE', symObjAddr: 0xE9F4, symBinAddr: 0xD5D6AC, symSize: 0x10 }
  - { offset: 0x688DBF, size: 0x8, addend: 0x0, symName: '__ZNSt3__110__function6__funcIZN4onnx11GetOpSchemaINS2_25SequenceInsert_Onnx_ver11EEENS2_8OpSchemaEvE3$_0NS_9allocatorIS6_EEFvRNS2_16InferenceContextEEE7destroyEv', symObjAddr: 0xEA04, symBinAddr: 0xD5D6BC, symSize: 0x4 }
  - { offset: 0x688E0E, size: 0x8, addend: 0x0, symName: '__ZNSt3__110__function6__funcIZN4onnx11GetOpSchemaINS2_25SequenceInsert_Onnx_ver11EEENS2_8OpSchemaEvE3$_0NS_9allocatorIS6_EEFvRNS2_16InferenceContextEEE18destroy_deallocateEv', symObjAddr: 0xEA08, symBinAddr: 0xD5D6C0, symSize: 0x4 }
  - { offset: 0x688E41, size: 0x8, addend: 0x0, symName: '__ZNSt3__110__function6__funcIZN4onnx11GetOpSchemaINS2_25SequenceInsert_Onnx_ver11EEENS2_8OpSchemaEvE3$_0NS_9allocatorIS6_EEFvRNS2_16InferenceContextEEE18destroy_deallocateEv', symObjAddr: 0xEA08, symBinAddr: 0xD5D6C0, symSize: 0x4 }
  - { offset: 0x688E63, size: 0x8, addend: 0x0, symName: '__ZNSt3__110__function6__funcIZN4onnx11GetOpSchemaINS2_25SequenceInsert_Onnx_ver11EEENS2_8OpSchemaEvE3$_0NS_9allocatorIS6_EEFvRNS2_16InferenceContextEEE18destroy_deallocateEv', symObjAddr: 0xEA08, symBinAddr: 0xD5D6C0, symSize: 0x4 }
  - { offset: 0x688E8E, size: 0x8, addend: 0x0, symName: '__ZNSt3__110__function6__funcIZN4onnx11GetOpSchemaINS2_25SequenceInsert_Onnx_ver11EEENS2_8OpSchemaEvE3$_0NS_9allocatorIS6_EEFvRNS2_16InferenceContextEEE18destroy_deallocateEv', symObjAddr: 0xEA08, symBinAddr: 0xD5D6C0, symSize: 0x4 }
  - { offset: 0x688EB4, size: 0x8, addend: 0x0, symName: '__ZNSt3__110__function6__funcIZN4onnx11GetOpSchemaINS2_25SequenceInsert_Onnx_ver11EEENS2_8OpSchemaEvE3$_0NS_9allocatorIS6_EEFvRNS2_16InferenceContextEEE18destroy_deallocateEv', symObjAddr: 0xEA08, symBinAddr: 0xD5D6C0, symSize: 0x4 }
  - { offset: 0x688F99, size: 0x8, addend: 0x0, symName: '__ZNSt3__110__function6__funcIZN4onnx11GetOpSchemaINS2_25SequenceInsert_Onnx_ver11EEENS2_8OpSchemaEvE3$_0NS_9allocatorIS6_EEFvRNS2_16InferenceContextEEEclESA_', symObjAddr: 0xEA0C, symBinAddr: 0xD5D6C4, symSize: 0x5C0 }
  - { offset: 0x689D91, size: 0x8, addend: 0x0, symName: '__ZNKSt3__110__function6__funcIZN4onnx11GetOpSchemaINS2_25SequenceInsert_Onnx_ver11EEENS2_8OpSchemaEvE3$_0NS_9allocatorIS6_EEFvRNS2_16InferenceContextEEE6targetERKSt9type_info', symObjAddr: 0xEFCC, symBinAddr: 0xD5DC84, symSize: 0x64 }
  - { offset: 0x689E44, size: 0x8, addend: 0x0, symName: '__ZNKSt3__110__function6__funcIZN4onnx11GetOpSchemaINS2_25SequenceInsert_Onnx_ver11EEENS2_8OpSchemaEvE3$_0NS_9allocatorIS6_EEFvRNS2_16InferenceContextEEE11target_typeEv', symObjAddr: 0xF030, symBinAddr: 0xD5DCE8, symSize: 0xC }
  - { offset: 0x689E99, size: 0x8, addend: 0x0, symName: '__ZNSt3__110__function6__funcIZN4onnx11GetOpSchemaINS2_21SequenceAt_Onnx_ver11EEENS2_8OpSchemaEvE3$_0NS_9allocatorIS6_EEFvRNS2_16InferenceContextEEED1Ev', symObjAddr: 0xF438, symBinAddr: 0xD5E0F0, symSize: 0x4 }
  - { offset: 0x689EC4, size: 0x8, addend: 0x0, symName: '__ZNSt3__110__function6__funcIZN4onnx11GetOpSchemaINS2_21SequenceAt_Onnx_ver11EEENS2_8OpSchemaEvE3$_0NS_9allocatorIS6_EEFvRNS2_16InferenceContextEEED0Ev', symObjAddr: 0xF43C, symBinAddr: 0xD5E0F4, symSize: 0x4 }
  - { offset: 0x689F79, size: 0x8, addend: 0x0, symName: '__ZNKSt3__110__function6__funcIZN4onnx11GetOpSchemaINS2_21SequenceAt_Onnx_ver11EEENS2_8OpSchemaEvE3$_0NS_9allocatorIS6_EEFvRNS2_16InferenceContextEEE7__cloneEv', symObjAddr: 0xF440, symBinAddr: 0xD5E0F8, symSize: 0x24 }
  - { offset: 0x68A0BC, size: 0x8, addend: 0x0, symName: '__ZNKSt3__110__function6__funcIZN4onnx11GetOpSchemaINS2_21SequenceAt_Onnx_ver11EEENS2_8OpSchemaEvE3$_0NS_9allocatorIS6_EEFvRNS2_16InferenceContextEEE7__cloneEPNS0_6__baseISB_EE', symObjAddr: 0xF464, symBinAddr: 0xD5E11C, symSize: 0x10 }
  - { offset: 0x68A0F0, size: 0x8, addend: 0x0, symName: '__ZNKSt3__110__function6__funcIZN4onnx11GetOpSchemaINS2_21SequenceAt_Onnx_ver11EEENS2_8OpSchemaEvE3$_0NS_9allocatorIS6_EEFvRNS2_16InferenceContextEEE7__cloneEPNS0_6__baseISB_EE', symObjAddr: 0xF464, symBinAddr: 0xD5E11C, symSize: 0x10 }
  - { offset: 0x68A10C, size: 0x8, addend: 0x0, symName: '__ZNKSt3__110__function6__funcIZN4onnx11GetOpSchemaINS2_21SequenceAt_Onnx_ver11EEENS2_8OpSchemaEvE3$_0NS_9allocatorIS6_EEFvRNS2_16InferenceContextEEE7__cloneEPNS0_6__baseISB_EE', symObjAddr: 0xF464, symBinAddr: 0xD5E11C, symSize: 0x10 }
  - { offset: 0x68A128, size: 0x8, addend: 0x0, symName: '__ZNSt3__110__function6__funcIZN4onnx11GetOpSchemaINS2_21SequenceAt_Onnx_ver11EEENS2_8OpSchemaEvE3$_0NS_9allocatorIS6_EEFvRNS2_16InferenceContextEEE7destroyEv', symObjAddr: 0xF474, symBinAddr: 0xD5E12C, symSize: 0x4 }
  - { offset: 0x68A177, size: 0x8, addend: 0x0, symName: '__ZNSt3__110__function6__funcIZN4onnx11GetOpSchemaINS2_21SequenceAt_Onnx_ver11EEENS2_8OpSchemaEvE3$_0NS_9allocatorIS6_EEFvRNS2_16InferenceContextEEE18destroy_deallocateEv', symObjAddr: 0xF478, symBinAddr: 0xD5E130, symSize: 0x4 }
  - { offset: 0x68A1AA, size: 0x8, addend: 0x0, symName: '__ZNSt3__110__function6__funcIZN4onnx11GetOpSchemaINS2_21SequenceAt_Onnx_ver11EEENS2_8OpSchemaEvE3$_0NS_9allocatorIS6_EEFvRNS2_16InferenceContextEEE18destroy_deallocateEv', symObjAddr: 0xF478, symBinAddr: 0xD5E130, symSize: 0x4 }
  - { offset: 0x68A1CC, size: 0x8, addend: 0x0, symName: '__ZNSt3__110__function6__funcIZN4onnx11GetOpSchemaINS2_21SequenceAt_Onnx_ver11EEENS2_8OpSchemaEvE3$_0NS_9allocatorIS6_EEFvRNS2_16InferenceContextEEE18destroy_deallocateEv', symObjAddr: 0xF478, symBinAddr: 0xD5E130, symSize: 0x4 }
  - { offset: 0x68A1F7, size: 0x8, addend: 0x0, symName: '__ZNSt3__110__function6__funcIZN4onnx11GetOpSchemaINS2_21SequenceAt_Onnx_ver11EEENS2_8OpSchemaEvE3$_0NS_9allocatorIS6_EEFvRNS2_16InferenceContextEEE18destroy_deallocateEv', symObjAddr: 0xF478, symBinAddr: 0xD5E130, symSize: 0x4 }
  - { offset: 0x68A21D, size: 0x8, addend: 0x0, symName: '__ZNSt3__110__function6__funcIZN4onnx11GetOpSchemaINS2_21SequenceAt_Onnx_ver11EEENS2_8OpSchemaEvE3$_0NS_9allocatorIS6_EEFvRNS2_16InferenceContextEEE18destroy_deallocateEv', symObjAddr: 0xF478, symBinAddr: 0xD5E130, symSize: 0x4 }
  - { offset: 0x68A2D1, size: 0x8, addend: 0x0, symName: '__ZNSt3__110__function6__funcIZN4onnx11GetOpSchemaINS2_21SequenceAt_Onnx_ver11EEENS2_8OpSchemaEvE3$_0NS_9allocatorIS6_EEFvRNS2_16InferenceContextEEEclESA_', symObjAddr: 0xF47C, symBinAddr: 0xD5E134, symSize: 0x158 }
  - { offset: 0x68A677, size: 0x8, addend: 0x0, symName: '__ZNKSt3__110__function6__funcIZN4onnx11GetOpSchemaINS2_21SequenceAt_Onnx_ver11EEENS2_8OpSchemaEvE3$_0NS_9allocatorIS6_EEFvRNS2_16InferenceContextEEE6targetERKSt9type_info', symObjAddr: 0xF5D4, symBinAddr: 0xD5E28C, symSize: 0x64 }
  - { offset: 0x68A72A, size: 0x8, addend: 0x0, symName: '__ZNKSt3__110__function6__funcIZN4onnx11GetOpSchemaINS2_21SequenceAt_Onnx_ver11EEENS2_8OpSchemaEvE3$_0NS_9allocatorIS6_EEFvRNS2_16InferenceContextEEE11target_typeEv', symObjAddr: 0xF638, symBinAddr: 0xD5E2F0, symSize: 0xC }
  - { offset: 0x68A766, size: 0x8, addend: 0x0, symName: '__ZNSt3__110__function6__funcIZN4onnx11GetOpSchemaINS2_24SequenceErase_Onnx_ver11EEENS2_8OpSchemaEvE3$_0NS_9allocatorIS6_EEFvRNS2_16InferenceContextEEED1Ev', symObjAddr: 0xF820, symBinAddr: 0xD5E2FC, symSize: 0x4 }
  - { offset: 0x68A791, size: 0x8, addend: 0x0, symName: '__ZNSt3__110__function6__funcIZN4onnx11GetOpSchemaINS2_24SequenceErase_Onnx_ver11EEENS2_8OpSchemaEvE3$_0NS_9allocatorIS6_EEFvRNS2_16InferenceContextEEED0Ev', symObjAddr: 0xF824, symBinAddr: 0xD5E300, symSize: 0x4 }
  - { offset: 0x68A846, size: 0x8, addend: 0x0, symName: '__ZNKSt3__110__function6__funcIZN4onnx11GetOpSchemaINS2_24SequenceErase_Onnx_ver11EEENS2_8OpSchemaEvE3$_0NS_9allocatorIS6_EEFvRNS2_16InferenceContextEEE7__cloneEv', symObjAddr: 0xF828, symBinAddr: 0xD5E304, symSize: 0x24 }
  - { offset: 0x68A989, size: 0x8, addend: 0x0, symName: '__ZNKSt3__110__function6__funcIZN4onnx11GetOpSchemaINS2_24SequenceErase_Onnx_ver11EEENS2_8OpSchemaEvE3$_0NS_9allocatorIS6_EEFvRNS2_16InferenceContextEEE7__cloneEPNS0_6__baseISB_EE', symObjAddr: 0xF84C, symBinAddr: 0xD5E328, symSize: 0x10 }
  - { offset: 0x68A9BD, size: 0x8, addend: 0x0, symName: '__ZNKSt3__110__function6__funcIZN4onnx11GetOpSchemaINS2_24SequenceErase_Onnx_ver11EEENS2_8OpSchemaEvE3$_0NS_9allocatorIS6_EEFvRNS2_16InferenceContextEEE7__cloneEPNS0_6__baseISB_EE', symObjAddr: 0xF84C, symBinAddr: 0xD5E328, symSize: 0x10 }
  - { offset: 0x68A9D9, size: 0x8, addend: 0x0, symName: '__ZNKSt3__110__function6__funcIZN4onnx11GetOpSchemaINS2_24SequenceErase_Onnx_ver11EEENS2_8OpSchemaEvE3$_0NS_9allocatorIS6_EEFvRNS2_16InferenceContextEEE7__cloneEPNS0_6__baseISB_EE', symObjAddr: 0xF84C, symBinAddr: 0xD5E328, symSize: 0x10 }
  - { offset: 0x68A9F5, size: 0x8, addend: 0x0, symName: '__ZNSt3__110__function6__funcIZN4onnx11GetOpSchemaINS2_24SequenceErase_Onnx_ver11EEENS2_8OpSchemaEvE3$_0NS_9allocatorIS6_EEFvRNS2_16InferenceContextEEE7destroyEv', symObjAddr: 0xF85C, symBinAddr: 0xD5E338, symSize: 0x4 }
  - { offset: 0x68AA44, size: 0x8, addend: 0x0, symName: '__ZNSt3__110__function6__funcIZN4onnx11GetOpSchemaINS2_24SequenceErase_Onnx_ver11EEENS2_8OpSchemaEvE3$_0NS_9allocatorIS6_EEFvRNS2_16InferenceContextEEE18destroy_deallocateEv', symObjAddr: 0xF860, symBinAddr: 0xD5E33C, symSize: 0x4 }
  - { offset: 0x68AA77, size: 0x8, addend: 0x0, symName: '__ZNSt3__110__function6__funcIZN4onnx11GetOpSchemaINS2_24SequenceErase_Onnx_ver11EEENS2_8OpSchemaEvE3$_0NS_9allocatorIS6_EEFvRNS2_16InferenceContextEEE18destroy_deallocateEv', symObjAddr: 0xF860, symBinAddr: 0xD5E33C, symSize: 0x4 }
  - { offset: 0x68AA99, size: 0x8, addend: 0x0, symName: '__ZNSt3__110__function6__funcIZN4onnx11GetOpSchemaINS2_24SequenceErase_Onnx_ver11EEENS2_8OpSchemaEvE3$_0NS_9allocatorIS6_EEFvRNS2_16InferenceContextEEE18destroy_deallocateEv', symObjAddr: 0xF860, symBinAddr: 0xD5E33C, symSize: 0x4 }
  - { offset: 0x68AAC4, size: 0x8, addend: 0x0, symName: '__ZNSt3__110__function6__funcIZN4onnx11GetOpSchemaINS2_24SequenceErase_Onnx_ver11EEENS2_8OpSchemaEvE3$_0NS_9allocatorIS6_EEFvRNS2_16InferenceContextEEE18destroy_deallocateEv', symObjAddr: 0xF860, symBinAddr: 0xD5E33C, symSize: 0x4 }
  - { offset: 0x68AAEA, size: 0x8, addend: 0x0, symName: '__ZNSt3__110__function6__funcIZN4onnx11GetOpSchemaINS2_24SequenceErase_Onnx_ver11EEENS2_8OpSchemaEvE3$_0NS_9allocatorIS6_EEFvRNS2_16InferenceContextEEE18destroy_deallocateEv', symObjAddr: 0xF860, symBinAddr: 0xD5E33C, symSize: 0x4 }
  - { offset: 0x68AB9E, size: 0x8, addend: 0x0, symName: '__ZNSt3__110__function6__funcIZN4onnx11GetOpSchemaINS2_24SequenceErase_Onnx_ver11EEENS2_8OpSchemaEvE3$_0NS_9allocatorIS6_EEFvRNS2_16InferenceContextEEEclESA_', symObjAddr: 0xF864, symBinAddr: 0xD5E340, symSize: 0x12C }
  - { offset: 0x68AE8B, size: 0x8, addend: 0x0, symName: '__ZNKSt3__110__function6__funcIZN4onnx11GetOpSchemaINS2_24SequenceErase_Onnx_ver11EEENS2_8OpSchemaEvE3$_0NS_9allocatorIS6_EEFvRNS2_16InferenceContextEEE6targetERKSt9type_info', symObjAddr: 0xF990, symBinAddr: 0xD5E46C, symSize: 0x64 }
  - { offset: 0x68AF3E, size: 0x8, addend: 0x0, symName: '__ZNKSt3__110__function6__funcIZN4onnx11GetOpSchemaINS2_24SequenceErase_Onnx_ver11EEENS2_8OpSchemaEvE3$_0NS_9allocatorIS6_EEFvRNS2_16InferenceContextEEE11target_typeEv', symObjAddr: 0xF9F4, symBinAddr: 0xD5E4D0, symSize: 0xC }
  - { offset: 0x68AF61, size: 0x8, addend: 0x0, symName: '__ZNSt3__110__function6__funcIZN4onnx11GetOpSchemaINS2_25SequenceLength_Onnx_ver11EEENS2_8OpSchemaEvE3$_0NS_9allocatorIS6_EEFvRNS2_16InferenceContextEEED1Ev', symObjAddr: 0xFA00, symBinAddr: 0xD5E4DC, symSize: 0x4 }
  - { offset: 0x68AF8C, size: 0x8, addend: 0x0, symName: '__ZNSt3__110__function6__funcIZN4onnx11GetOpSchemaINS2_25SequenceLength_Onnx_ver11EEENS2_8OpSchemaEvE3$_0NS_9allocatorIS6_EEFvRNS2_16InferenceContextEEED0Ev', symObjAddr: 0xFA04, symBinAddr: 0xD5E4E0, symSize: 0x4 }
  - { offset: 0x68B041, size: 0x8, addend: 0x0, symName: '__ZNKSt3__110__function6__funcIZN4onnx11GetOpSchemaINS2_25SequenceLength_Onnx_ver11EEENS2_8OpSchemaEvE3$_0NS_9allocatorIS6_EEFvRNS2_16InferenceContextEEE7__cloneEv', symObjAddr: 0xFA08, symBinAddr: 0xD5E4E4, symSize: 0x24 }
  - { offset: 0x68B184, size: 0x8, addend: 0x0, symName: '__ZNKSt3__110__function6__funcIZN4onnx11GetOpSchemaINS2_25SequenceLength_Onnx_ver11EEENS2_8OpSchemaEvE3$_0NS_9allocatorIS6_EEFvRNS2_16InferenceContextEEE7__cloneEPNS0_6__baseISB_EE', symObjAddr: 0xFA2C, symBinAddr: 0xD5E508, symSize: 0x10 }
  - { offset: 0x68B1B8, size: 0x8, addend: 0x0, symName: '__ZNKSt3__110__function6__funcIZN4onnx11GetOpSchemaINS2_25SequenceLength_Onnx_ver11EEENS2_8OpSchemaEvE3$_0NS_9allocatorIS6_EEFvRNS2_16InferenceContextEEE7__cloneEPNS0_6__baseISB_EE', symObjAddr: 0xFA2C, symBinAddr: 0xD5E508, symSize: 0x10 }
  - { offset: 0x68B1D4, size: 0x8, addend: 0x0, symName: '__ZNKSt3__110__function6__funcIZN4onnx11GetOpSchemaINS2_25SequenceLength_Onnx_ver11EEENS2_8OpSchemaEvE3$_0NS_9allocatorIS6_EEFvRNS2_16InferenceContextEEE7__cloneEPNS0_6__baseISB_EE', symObjAddr: 0xFA2C, symBinAddr: 0xD5E508, symSize: 0x10 }
  - { offset: 0x68B1F0, size: 0x8, addend: 0x0, symName: '__ZNSt3__110__function6__funcIZN4onnx11GetOpSchemaINS2_25SequenceLength_Onnx_ver11EEENS2_8OpSchemaEvE3$_0NS_9allocatorIS6_EEFvRNS2_16InferenceContextEEE7destroyEv', symObjAddr: 0xFA3C, symBinAddr: 0xD5E518, symSize: 0x4 }
  - { offset: 0x68B23F, size: 0x8, addend: 0x0, symName: '__ZNSt3__110__function6__funcIZN4onnx11GetOpSchemaINS2_25SequenceLength_Onnx_ver11EEENS2_8OpSchemaEvE3$_0NS_9allocatorIS6_EEFvRNS2_16InferenceContextEEE18destroy_deallocateEv', symObjAddr: 0xFA40, symBinAddr: 0xD5E51C, symSize: 0x4 }
  - { offset: 0x68B272, size: 0x8, addend: 0x0, symName: '__ZNSt3__110__function6__funcIZN4onnx11GetOpSchemaINS2_25SequenceLength_Onnx_ver11EEENS2_8OpSchemaEvE3$_0NS_9allocatorIS6_EEFvRNS2_16InferenceContextEEE18destroy_deallocateEv', symObjAddr: 0xFA40, symBinAddr: 0xD5E51C, symSize: 0x4 }
  - { offset: 0x68B294, size: 0x8, addend: 0x0, symName: '__ZNSt3__110__function6__funcIZN4onnx11GetOpSchemaINS2_25SequenceLength_Onnx_ver11EEENS2_8OpSchemaEvE3$_0NS_9allocatorIS6_EEFvRNS2_16InferenceContextEEE18destroy_deallocateEv', symObjAddr: 0xFA40, symBinAddr: 0xD5E51C, symSize: 0x4 }
  - { offset: 0x68B2BF, size: 0x8, addend: 0x0, symName: '__ZNSt3__110__function6__funcIZN4onnx11GetOpSchemaINS2_25SequenceLength_Onnx_ver11EEENS2_8OpSchemaEvE3$_0NS_9allocatorIS6_EEFvRNS2_16InferenceContextEEE18destroy_deallocateEv', symObjAddr: 0xFA40, symBinAddr: 0xD5E51C, symSize: 0x4 }
  - { offset: 0x68B2E5, size: 0x8, addend: 0x0, symName: '__ZNSt3__110__function6__funcIZN4onnx11GetOpSchemaINS2_25SequenceLength_Onnx_ver11EEENS2_8OpSchemaEvE3$_0NS_9allocatorIS6_EEFvRNS2_16InferenceContextEEE18destroy_deallocateEv', symObjAddr: 0xFA40, symBinAddr: 0xD5E51C, symSize: 0x4 }
  - { offset: 0x68B399, size: 0x8, addend: 0x0, symName: '__ZNSt3__110__function6__funcIZN4onnx11GetOpSchemaINS2_25SequenceLength_Onnx_ver11EEENS2_8OpSchemaEvE3$_0NS_9allocatorIS6_EEFvRNS2_16InferenceContextEEEclESA_', symObjAddr: 0xFA44, symBinAddr: 0xD5E520, symSize: 0xC8 }
  - { offset: 0x68B69C, size: 0x8, addend: 0x0, symName: '__ZNKSt3__110__function6__funcIZN4onnx11GetOpSchemaINS2_25SequenceLength_Onnx_ver11EEENS2_8OpSchemaEvE3$_0NS_9allocatorIS6_EEFvRNS2_16InferenceContextEEE6targetERKSt9type_info', symObjAddr: 0xFB0C, symBinAddr: 0xD5E5E8, symSize: 0x64 }
  - { offset: 0x68B74F, size: 0x8, addend: 0x0, symName: '__ZNKSt3__110__function6__funcIZN4onnx11GetOpSchemaINS2_25SequenceLength_Onnx_ver11EEENS2_8OpSchemaEvE3$_0NS_9allocatorIS6_EEFvRNS2_16InferenceContextEEE11target_typeEv', symObjAddr: 0xFB70, symBinAddr: 0xD5E64C, symSize: 0xC }
  - { offset: 0x68B772, size: 0x8, addend: 0x0, symName: '__ZNSt3__110__function6__funcIZN4onnx11GetOpSchemaINS2_29ConcatFromSequence_Onnx_ver11EEENS2_8OpSchemaEvE3$_0NS_9allocatorIS6_EEFvRNS2_16InferenceContextEEED1Ev', symObjAddr: 0xFB7C, symBinAddr: 0xD5E658, symSize: 0x4 }
  - { offset: 0x68B79D, size: 0x8, addend: 0x0, symName: '__ZNSt3__110__function6__funcIZN4onnx11GetOpSchemaINS2_29ConcatFromSequence_Onnx_ver11EEENS2_8OpSchemaEvE3$_0NS_9allocatorIS6_EEFvRNS2_16InferenceContextEEED0Ev', symObjAddr: 0xFB80, symBinAddr: 0xD5E65C, symSize: 0x4 }
  - { offset: 0x68B852, size: 0x8, addend: 0x0, symName: '__ZNKSt3__110__function6__funcIZN4onnx11GetOpSchemaINS2_29ConcatFromSequence_Onnx_ver11EEENS2_8OpSchemaEvE3$_0NS_9allocatorIS6_EEFvRNS2_16InferenceContextEEE7__cloneEv', symObjAddr: 0xFB84, symBinAddr: 0xD5E660, symSize: 0x24 }
  - { offset: 0x68B995, size: 0x8, addend: 0x0, symName: '__ZNKSt3__110__function6__funcIZN4onnx11GetOpSchemaINS2_29ConcatFromSequence_Onnx_ver11EEENS2_8OpSchemaEvE3$_0NS_9allocatorIS6_EEFvRNS2_16InferenceContextEEE7__cloneEPNS0_6__baseISB_EE', symObjAddr: 0xFBA8, symBinAddr: 0xD5E684, symSize: 0x10 }
  - { offset: 0x68B9C9, size: 0x8, addend: 0x0, symName: '__ZNKSt3__110__function6__funcIZN4onnx11GetOpSchemaINS2_29ConcatFromSequence_Onnx_ver11EEENS2_8OpSchemaEvE3$_0NS_9allocatorIS6_EEFvRNS2_16InferenceContextEEE7__cloneEPNS0_6__baseISB_EE', symObjAddr: 0xFBA8, symBinAddr: 0xD5E684, symSize: 0x10 }
  - { offset: 0x68B9E5, size: 0x8, addend: 0x0, symName: '__ZNKSt3__110__function6__funcIZN4onnx11GetOpSchemaINS2_29ConcatFromSequence_Onnx_ver11EEENS2_8OpSchemaEvE3$_0NS_9allocatorIS6_EEFvRNS2_16InferenceContextEEE7__cloneEPNS0_6__baseISB_EE', symObjAddr: 0xFBA8, symBinAddr: 0xD5E684, symSize: 0x10 }
  - { offset: 0x68BA01, size: 0x8, addend: 0x0, symName: '__ZNSt3__110__function6__funcIZN4onnx11GetOpSchemaINS2_29ConcatFromSequence_Onnx_ver11EEENS2_8OpSchemaEvE3$_0NS_9allocatorIS6_EEFvRNS2_16InferenceContextEEE7destroyEv', symObjAddr: 0xFBB8, symBinAddr: 0xD5E694, symSize: 0x4 }
  - { offset: 0x68BA50, size: 0x8, addend: 0x0, symName: '__ZNSt3__110__function6__funcIZN4onnx11GetOpSchemaINS2_29ConcatFromSequence_Onnx_ver11EEENS2_8OpSchemaEvE3$_0NS_9allocatorIS6_EEFvRNS2_16InferenceContextEEE18destroy_deallocateEv', symObjAddr: 0xFBBC, symBinAddr: 0xD5E698, symSize: 0x4 }
  - { offset: 0x68BA83, size: 0x8, addend: 0x0, symName: '__ZNSt3__110__function6__funcIZN4onnx11GetOpSchemaINS2_29ConcatFromSequence_Onnx_ver11EEENS2_8OpSchemaEvE3$_0NS_9allocatorIS6_EEFvRNS2_16InferenceContextEEE18destroy_deallocateEv', symObjAddr: 0xFBBC, symBinAddr: 0xD5E698, symSize: 0x4 }
  - { offset: 0x68BAA5, size: 0x8, addend: 0x0, symName: '__ZNSt3__110__function6__funcIZN4onnx11GetOpSchemaINS2_29ConcatFromSequence_Onnx_ver11EEENS2_8OpSchemaEvE3$_0NS_9allocatorIS6_EEFvRNS2_16InferenceContextEEE18destroy_deallocateEv', symObjAddr: 0xFBBC, symBinAddr: 0xD5E698, symSize: 0x4 }
  - { offset: 0x68BAD0, size: 0x8, addend: 0x0, symName: '__ZNSt3__110__function6__funcIZN4onnx11GetOpSchemaINS2_29ConcatFromSequence_Onnx_ver11EEENS2_8OpSchemaEvE3$_0NS_9allocatorIS6_EEFvRNS2_16InferenceContextEEE18destroy_deallocateEv', symObjAddr: 0xFBBC, symBinAddr: 0xD5E698, symSize: 0x4 }
  - { offset: 0x68BAF6, size: 0x8, addend: 0x0, symName: '__ZNSt3__110__function6__funcIZN4onnx11GetOpSchemaINS2_29ConcatFromSequence_Onnx_ver11EEENS2_8OpSchemaEvE3$_0NS_9allocatorIS6_EEFvRNS2_16InferenceContextEEE18destroy_deallocateEv', symObjAddr: 0xFBBC, symBinAddr: 0xD5E698, symSize: 0x4 }
  - { offset: 0x68BE52, size: 0x8, addend: 0x0, symName: '__ZNSt3__110__function6__funcIZN4onnx11GetOpSchemaINS2_29ConcatFromSequence_Onnx_ver11EEENS2_8OpSchemaEvE3$_0NS_9allocatorIS6_EEFvRNS2_16InferenceContextEEEclESA_', symObjAddr: 0xFBC0, symBinAddr: 0xD5E69C, symSize: 0x70C }
  - { offset: 0x68D377, size: 0x8, addend: 0x0, symName: '__ZNKSt3__110__function6__funcIZN4onnx11GetOpSchemaINS2_29ConcatFromSequence_Onnx_ver11EEENS2_8OpSchemaEvE3$_0NS_9allocatorIS6_EEFvRNS2_16InferenceContextEEE6targetERKSt9type_info', symObjAddr: 0x102CC, symBinAddr: 0xD5EDA8, symSize: 0x64 }
  - { offset: 0x68D42A, size: 0x8, addend: 0x0, symName: '__ZNKSt3__110__function6__funcIZN4onnx11GetOpSchemaINS2_29ConcatFromSequence_Onnx_ver11EEENS2_8OpSchemaEvE3$_0NS_9allocatorIS6_EEFvRNS2_16InferenceContextEEE11target_typeEv', symObjAddr: 0x10330, symBinAddr: 0xD5EE0C, symSize: 0xC }
  - { offset: 0x6A8146, size: 0x8, addend: 0x0, symName: __ZN4onnx4defs8sequence5utils26SplitToSequenceOpGeneratorERKNSt3__16vectorINS3_12basic_stringIcNS3_11char_traitsIcEENS3_9allocatorIcEEEENS8_ISA_EEEESE_, symObjAddr: 0x0, symBinAddr: 0xD5F270, symSize: 0x1FC }
  - { offset: 0x6B4649, size: 0x8, addend: 0x0, symName: __ZN4onnx10MakeStringIJA23_cA41_ciA8_ciEEENSt3__112basic_stringIcNS4_11char_traitsIcEENS4_9allocatorIcEEEEDpRKT_, symObjAddr: 0x232C, symBinAddr: 0xD60C10, symSize: 0x220 }
  - { offset: 0x6B5522, size: 0x8, addend: 0x0, symName: __ZN4onnx10MakeStringIJA23_cA78_cxA22_cxEEENSt3__112basic_stringIcNS4_11char_traitsIcEENS4_9allocatorIcEEEEDpRKT_, symObjAddr: 0x31BC, symBinAddr: 0xD60E30, symSize: 0x220 }
  - { offset: 0x6C3417, size: 0x8, addend: 0x0, symName: '__ZZN4onnx4defs8sequence5utils26SplitToSequenceOpGeneratorERKNSt3__16vectorINS3_12basic_stringIcNS3_11char_traitsIcEENS3_9allocatorIcEEEENS8_ISA_EEEESE_EN3$_0D1Ev', symObjAddr: 0x26C, symBinAddr: 0xD5F46C, symSize: 0xB8 }
  - { offset: 0x6C4142, size: 0x8, addend: 0x0, symName: '__ZNSt3__110__function6__funcIZN4onnx4defs8sequence5utils26SplitToSequenceOpGeneratorERKNS_6vectorINS_12basic_stringIcNS_11char_traitsIcEENS_9allocatorIcEEEENSA_ISC_EEEESG_E3$_0NSA_ISH_EEFvRNS2_8OpSchemaEEED1Ev', symObjAddr: 0x6CC, symBinAddr: 0xD5F524, symSize: 0xC4 }
  - { offset: 0x6C41F5, size: 0x8, addend: 0x0, symName: '__ZNSt3__110__function6__funcIZN4onnx4defs8sequence5utils26SplitToSequenceOpGeneratorERKNS_6vectorINS_12basic_stringIcNS_11char_traitsIcEENS_9allocatorIcEEEENSA_ISC_EEEESG_E3$_0NSA_ISH_EEFvRNS2_8OpSchemaEEED1Ev', symObjAddr: 0x6CC, symBinAddr: 0xD5F524, symSize: 0xC4 }
  - { offset: 0x6C47FB, size: 0x8, addend: 0x0, symName: '__ZNSt3__110__function6__funcIZN4onnx4defs8sequence5utils26SplitToSequenceOpGeneratorERKNS_6vectorINS_12basic_stringIcNS_11char_traitsIcEENS_9allocatorIcEEEENSA_ISC_EEEESG_E3$_0NSA_ISH_EEFvRNS2_8OpSchemaEEED0Ev', symObjAddr: 0x790, symBinAddr: 0xD5F5E8, symSize: 0xC4 }
  - { offset: 0x6C509A, size: 0x8, addend: 0x0, symName: '__ZNKSt3__110__function6__funcIZN4onnx4defs8sequence5utils26SplitToSequenceOpGeneratorERKNS_6vectorINS_12basic_stringIcNS_11char_traitsIcEENS_9allocatorIcEEEENSA_ISC_EEEESG_E3$_0NSA_ISH_EEFvRNS2_8OpSchemaEEE7__cloneEv', symObjAddr: 0x854, symBinAddr: 0xD5F6AC, symSize: 0xBC }
  - { offset: 0x6C55DF, size: 0x8, addend: 0x0, symName: '__ZNKSt3__110__function6__funcIZN4onnx4defs8sequence5utils26SplitToSequenceOpGeneratorERKNS_6vectorINS_12basic_stringIcNS_11char_traitsIcEENS_9allocatorIcEEEENSA_ISC_EEEESG_E3$_0NSA_ISH_EEFvRNS2_8OpSchemaEEE7__cloneEPNS0_6__baseISL_EE', symObjAddr: 0x910, symBinAddr: 0xD5F768, symSize: 0x94 }
  - { offset: 0x6C5854, size: 0x8, addend: 0x0, symName: '__ZNSt3__110__function6__funcIZN4onnx4defs8sequence5utils26SplitToSequenceOpGeneratorERKNS_6vectorINS_12basic_stringIcNS_11char_traitsIcEENS_9allocatorIcEEEENSA_ISC_EEEESG_E3$_0NSA_ISH_EEFvRNS2_8OpSchemaEEE7destroyEv', symObjAddr: 0x9A4, symBinAddr: 0xD5F7FC, symSize: 0xD0 }
  - { offset: 0x6C5DEF, size: 0x8, addend: 0x0, symName: '__ZNSt3__110__function6__funcIZN4onnx4defs8sequence5utils26SplitToSequenceOpGeneratorERKNS_6vectorINS_12basic_stringIcNS_11char_traitsIcEENS_9allocatorIcEEEENSA_ISC_EEEESG_E3$_0NSA_ISH_EEFvRNS2_8OpSchemaEEE18destroy_deallocateEv', symObjAddr: 0xA74, symBinAddr: 0xD5F8CC, symSize: 0xB8 }
  - { offset: 0x6C67E0, size: 0x8, addend: 0x0, symName: '__ZNSt3__110__function6__funcIZN4onnx4defs8sequence5utils26SplitToSequenceOpGeneratorERKNS_6vectorINS_12basic_stringIcNS_11char_traitsIcEENS_9allocatorIcEEEENSA_ISC_EEEESG_E3$_0NSA_ISH_EEFvRNS2_8OpSchemaEEEclESK_', symObjAddr: 0xB2C, symBinAddr: 0xD5F984, symSize: 0x4C8 }
  - { offset: 0x6C8264, size: 0x8, addend: 0x0, symName: '__ZNKSt3__110__function6__funcIZN4onnx4defs8sequence5utils26SplitToSequenceOpGeneratorERKNS_6vectorINS_12basic_stringIcNS_11char_traitsIcEENS_9allocatorIcEEEENSA_ISC_EEEESG_E3$_0NSA_ISH_EEFvRNS2_8OpSchemaEEE6targetERKSt9type_info', symObjAddr: 0xFF4, symBinAddr: 0xD5FE4C, symSize: 0x64 }
  - { offset: 0x6C832E, size: 0x8, addend: 0x0, symName: '__ZNKSt3__110__function6__funcIZN4onnx4defs8sequence5utils26SplitToSequenceOpGeneratorERKNS_6vectorINS_12basic_stringIcNS_11char_traitsIcEENS_9allocatorIcEEEENSA_ISC_EEEESG_E3$_0NSA_ISH_EEFvRNS2_8OpSchemaEEE11target_typeEv', symObjAddr: 0x1058, symBinAddr: 0xD5FEB0, symSize: 0xC }
  - { offset: 0x6C862C, size: 0x8, addend: 0x0, symName: '__ZNSt3__110__function6__funcIZZN4onnx4defs8sequence5utils26SplitToSequenceOpGeneratorERKNS_6vectorINS_12basic_stringIcNS_11char_traitsIcEENS_9allocatorIcEEEENSA_ISC_EEEESG_ENK3$_0clERNS2_8OpSchemaEEUlRNS2_16InferenceContextEE_NSA_ISM_EEFvSL_EED1Ev', symObjAddr: 0x13C4, symBinAddr: 0xD5FEBC, symSize: 0x4 }
  - { offset: 0x6C88E2, size: 0x8, addend: 0x0, symName: '__ZNSt3__110__function6__funcIZZN4onnx4defs8sequence5utils26SplitToSequenceOpGeneratorERKNS_6vectorINS_12basic_stringIcNS_11char_traitsIcEENS_9allocatorIcEEEENSA_ISC_EEEESG_ENK3$_0clERNS2_8OpSchemaEEUlRNS2_16InferenceContextEE_NSA_ISM_EEFvSL_EED1Ev', symObjAddr: 0x13C4, symBinAddr: 0xD5FEBC, symSize: 0x4 }
  - { offset: 0x6C890D, size: 0x8, addend: 0x0, symName: '__ZNSt3__110__function6__funcIZZN4onnx4defs8sequence5utils26SplitToSequenceOpGeneratorERKNS_6vectorINS_12basic_stringIcNS_11char_traitsIcEENS_9allocatorIcEEEENSA_ISC_EEEESG_ENK3$_0clERNS2_8OpSchemaEEUlRNS2_16InferenceContextEE_NSA_ISM_EEFvSL_EED0Ev', symObjAddr: 0x13C8, symBinAddr: 0xD5FEC0, symSize: 0x4 }
  - { offset: 0x6C89C2, size: 0x8, addend: 0x0, symName: '__ZNKSt3__110__function6__funcIZZN4onnx4defs8sequence5utils26SplitToSequenceOpGeneratorERKNS_6vectorINS_12basic_stringIcNS_11char_traitsIcEENS_9allocatorIcEEEENSA_ISC_EEEESG_ENK3$_0clERNS2_8OpSchemaEEUlRNS2_16InferenceContextEE_NSA_ISM_EEFvSL_EE7__cloneEv', symObjAddr: 0x13CC, symBinAddr: 0xD5FEC4, symSize: 0x24 }
  - { offset: 0x6C8B05, size: 0x8, addend: 0x0, symName: '__ZNKSt3__110__function6__funcIZZN4onnx4defs8sequence5utils26SplitToSequenceOpGeneratorERKNS_6vectorINS_12basic_stringIcNS_11char_traitsIcEENS_9allocatorIcEEEENSA_ISC_EEEESG_ENK3$_0clERNS2_8OpSchemaEEUlRNS2_16InferenceContextEE_NSA_ISM_EEFvSL_EE7__cloneEPNS0_6__baseISO_EE', symObjAddr: 0x13F0, symBinAddr: 0xD5FEE8, symSize: 0x10 }
  - { offset: 0x6C8B39, size: 0x8, addend: 0x0, symName: '__ZNKSt3__110__function6__funcIZZN4onnx4defs8sequence5utils26SplitToSequenceOpGeneratorERKNS_6vectorINS_12basic_stringIcNS_11char_traitsIcEENS_9allocatorIcEEEENSA_ISC_EEEESG_ENK3$_0clERNS2_8OpSchemaEEUlRNS2_16InferenceContextEE_NSA_ISM_EEFvSL_EE7__cloneEPNS0_6__baseISO_EE', symObjAddr: 0x13F0, symBinAddr: 0xD5FEE8, symSize: 0x10 }
  - { offset: 0x6C8B55, size: 0x8, addend: 0x0, symName: '__ZNKSt3__110__function6__funcIZZN4onnx4defs8sequence5utils26SplitToSequenceOpGeneratorERKNS_6vectorINS_12basic_stringIcNS_11char_traitsIcEENS_9allocatorIcEEEENSA_ISC_EEEESG_ENK3$_0clERNS2_8OpSchemaEEUlRNS2_16InferenceContextEE_NSA_ISM_EEFvSL_EE7__cloneEPNS0_6__baseISO_EE', symObjAddr: 0x13F0, symBinAddr: 0xD5FEE8, symSize: 0x10 }
  - { offset: 0x6C8B71, size: 0x8, addend: 0x0, symName: '__ZNSt3__110__function6__funcIZZN4onnx4defs8sequence5utils26SplitToSequenceOpGeneratorERKNS_6vectorINS_12basic_stringIcNS_11char_traitsIcEENS_9allocatorIcEEEENSA_ISC_EEEESG_ENK3$_0clERNS2_8OpSchemaEEUlRNS2_16InferenceContextEE_NSA_ISM_EEFvSL_EE7destroyEv', symObjAddr: 0x1400, symBinAddr: 0xD5FEF8, symSize: 0x4 }
  - { offset: 0x6C8BC0, size: 0x8, addend: 0x0, symName: '__ZNSt3__110__function6__funcIZZN4onnx4defs8sequence5utils26SplitToSequenceOpGeneratorERKNS_6vectorINS_12basic_stringIcNS_11char_traitsIcEENS_9allocatorIcEEEENSA_ISC_EEEESG_ENK3$_0clERNS2_8OpSchemaEEUlRNS2_16InferenceContextEE_NSA_ISM_EEFvSL_EE18destroy_deallocateEv', symObjAddr: 0x1404, symBinAddr: 0xD5FEFC, symSize: 0x4 }
  - { offset: 0x6C8BF3, size: 0x8, addend: 0x0, symName: '__ZNSt3__110__function6__funcIZZN4onnx4defs8sequence5utils26SplitToSequenceOpGeneratorERKNS_6vectorINS_12basic_stringIcNS_11char_traitsIcEENS_9allocatorIcEEEENSA_ISC_EEEESG_ENK3$_0clERNS2_8OpSchemaEEUlRNS2_16InferenceContextEE_NSA_ISM_EEFvSL_EE18destroy_deallocateEv', symObjAddr: 0x1404, symBinAddr: 0xD5FEFC, symSize: 0x4 }
  - { offset: 0x6C8C15, size: 0x8, addend: 0x0, symName: '__ZNSt3__110__function6__funcIZZN4onnx4defs8sequence5utils26SplitToSequenceOpGeneratorERKNS_6vectorINS_12basic_stringIcNS_11char_traitsIcEENS_9allocatorIcEEEENSA_ISC_EEEESG_ENK3$_0clERNS2_8OpSchemaEEUlRNS2_16InferenceContextEE_NSA_ISM_EEFvSL_EE18destroy_deallocateEv', symObjAddr: 0x1404, symBinAddr: 0xD5FEFC, symSize: 0x4 }
  - { offset: 0x6C8C40, size: 0x8, addend: 0x0, symName: '__ZNSt3__110__function6__funcIZZN4onnx4defs8sequence5utils26SplitToSequenceOpGeneratorERKNS_6vectorINS_12basic_stringIcNS_11char_traitsIcEENS_9allocatorIcEEEENSA_ISC_EEEESG_ENK3$_0clERNS2_8OpSchemaEEUlRNS2_16InferenceContextEE_NSA_ISM_EEFvSL_EE18destroy_deallocateEv', symObjAddr: 0x1404, symBinAddr: 0xD5FEFC, symSize: 0x4 }
  - { offset: 0x6C8C66, size: 0x8, addend: 0x0, symName: '__ZNSt3__110__function6__funcIZZN4onnx4defs8sequence5utils26SplitToSequenceOpGeneratorERKNS_6vectorINS_12basic_stringIcNS_11char_traitsIcEENS_9allocatorIcEEEENSA_ISC_EEEESG_ENK3$_0clERNS2_8OpSchemaEEUlRNS2_16InferenceContextEE_NSA_ISM_EEFvSL_EE18destroy_deallocateEv', symObjAddr: 0x1404, symBinAddr: 0xD5FEFC, symSize: 0x4 }
  - { offset: 0x6C998E, size: 0x8, addend: 0x0, symName: '__ZNSt3__110__function6__funcIZZN4onnx4defs8sequence5utils26SplitToSequenceOpGeneratorERKNS_6vectorINS_12basic_stringIcNS_11char_traitsIcEENS_9allocatorIcEEEENSA_ISC_EEEESG_ENK3$_0clERNS2_8OpSchemaEEUlRNS2_16InferenceContextEE_NSA_ISM_EEFvSL_EEclESL_', symObjAddr: 0x1408, symBinAddr: 0xD5FF00, symSize: 0xCA0 }
  - { offset: 0x6CC73D, size: 0x8, addend: 0x0, symName: __ZNSt3__16vectorIxNS_9allocatorIxEEE18__insert_with_sizeB8ne190102INS_11__wrap_iterIPKiEES8_EENS5_IPxEENS5_IPKxEET_T0_l, symObjAddr: 0x36DC, symBinAddr: 0xD61050, symSize: 0x40C }
  - { offset: 0x6CD02F, size: 0x8, addend: 0x0, symName: '__ZNKSt3__110__function6__funcIZZN4onnx4defs8sequence5utils26SplitToSequenceOpGeneratorERKNS_6vectorINS_12basic_stringIcNS_11char_traitsIcEENS_9allocatorIcEEEENSA_ISC_EEEESG_ENK3$_0clERNS2_8OpSchemaEEUlRNS2_16InferenceContextEE_NSA_ISM_EEFvSL_EE6targetERKSt9type_info', symObjAddr: 0x20A8, symBinAddr: 0xD60BA0, symSize: 0x64 }
  - { offset: 0x6CD0E2, size: 0x8, addend: 0x0, symName: '__ZNKSt3__110__function6__funcIZZN4onnx4defs8sequence5utils26SplitToSequenceOpGeneratorERKNS_6vectorINS_12basic_stringIcNS_11char_traitsIcEENS_9allocatorIcEEEENSA_ISC_EEEESG_ENK3$_0clERNS2_8OpSchemaEEUlRNS2_16InferenceContextEE_NSA_ISM_EEFvSL_EE11target_typeEv', symObjAddr: 0x210C, symBinAddr: 0xD60C04, symSize: 0xC }
  - { offset: 0x6CDFEF, size: 0x8, addend: 0x0, symName: __ZNSt3__16vectorIxNS_9allocatorIxEEE18__insert_with_sizeB8ne190102INS_11__wrap_iterIPKiEES8_EENS5_IPxEENS5_IPKxEET_T0_l, symObjAddr: 0x36DC, symBinAddr: 0xD61050, symSize: 0x40C }
  - { offset: 0x6DA64C, size: 0x8, addend: 0x0, symName: __ZN4onnx40propagateElemTypeFromTensorInputToOutputERNS_16InferenceContextEmm, symObjAddr: 0x0, symBinAddr: 0xD6145C, symSize: 0x3B4 }
  - { offset: 0x6DAF7B, size: 0x8, addend: 0x0, symName: __ZN4onnx10MakeStringIJA22_cA20_cEEENSt3__112basic_stringIcNS3_11char_traitsIcEENS3_9allocatorIcEEEEDpRKT_, symObjAddr: 0x3B4, symBinAddr: 0xD61810, symSize: 0x1DC }
  - { offset: 0x6DB580, size: 0x8, addend: 0x0, symName: __ZN4onnx10MakeStringIJA22_cA23_cmA9_cEEENSt3__112basic_stringIcNS4_11char_traitsIcEENS4_9allocatorIcEEEEDpRKT_, symObjAddr: 0x7E8, symBinAddr: 0xD61C0C, symSize: 0x210 }
  - { offset: 0x6DBCB7, size: 0x8, addend: 0x0, symName: __ZN4onnx10MakeStringIJA22_cA7_cmA54_cNS_9TypeProto9ValueCaseEEEENSt3__112basic_stringIcNS6_11char_traitsIcEENS6_9allocatorIcEEEEDpRKT_, symObjAddr: 0x5C8, symBinAddr: 0xD619EC, symSize: 0x220 }
  - { offset: 0x6DC454, size: 0x8, addend: 0x0, symName: __ZN4onnx10MakeStringIJA22_cA8_cmA54_cNS_9TypeProto9ValueCaseEEEENSt3__112basic_stringIcNS6_11char_traitsIcEENS6_9allocatorIcEEEEDpRKT_, symObjAddr: 0x9F8, symBinAddr: 0xD61E1C, symSize: 0x220 }
  - { offset: 0x6E2ECF, size: 0x8, addend: 0x0, symName: __ZN4onnx34propagateElemTypeFromInputToOutputERNS_16InferenceContextEmm, symObjAddr: 0xC18, symBinAddr: 0xD6203C, symSize: 0x98C }
  - { offset: 0x6E47DF, size: 0x8, addend: 0x0, symName: __ZN4onnx10MakeStringIJA22_cA7_cmA43_cEEENSt3__112basic_stringIcNS4_11char_traitsIcEENS4_9allocatorIcEEEEDpRKT_, symObjAddr: 0x15A4, symBinAddr: 0xD629C8, symSize: 0x210 }
  - { offset: 0x6E4F16, size: 0x8, addend: 0x0, symName: __ZN4onnx10MakeStringIJA22_cA7_cmA27_cEEENSt3__112basic_stringIcNS4_11char_traitsIcEENS4_9allocatorIcEEEEDpRKT_, symObjAddr: 0x5C2C, symBinAddr: 0xD66198, symSize: 0x210 }
  - { offset: 0x6E5AC3, size: 0x8, addend: 0x0, symName: __ZN4onnx10MakeStringIJA22_cA32_cmA9_cEEENSt3__112basic_stringIcNS4_11char_traitsIcEENS4_9allocatorIcEEEEDpRKT_, symObjAddr: 0x5418, symBinAddr: 0xD65F88, symSize: 0x210 }
  - { offset: 0x6E61FA, size: 0x8, addend: 0x0, symName: __ZN4onnx10MakeStringIJA22_cA25_cmA9_cEEENSt3__112basic_stringIcNS4_11char_traitsIcEENS4_9allocatorIcEEEEDpRKT_, symObjAddr: 0x5E3C, symBinAddr: 0xD663A8, symSize: 0x210 }
  - { offset: 0x6E6A54, size: 0x8, addend: 0x0, symName: __ZN4onnx16mergeInShapeInfoERKNS_16TensorShapeProtoERNS_16TypeProto_TensorE, symObjAddr: 0x17B4, symBinAddr: 0xD62BD8, symSize: 0x84 }
  - { offset: 0x6E6BAB, size: 0x8, addend: 0x0, symName: __ZN4onnxL16mergeInShapeInfoERKNS_16TensorShapeProtoERS0_, symObjAddr: 0x1838, symBinAddr: 0xD62C5C, symSize: 0x158 }
  - { offset: 0x6E734A, size: 0x8, addend: 0x0, symName: __ZN4onnx10MakeStringIJA23_cA71_ciA11_ciEEENSt3__112basic_stringIcNS4_11char_traitsIcEENS4_9allocatorIcEEEEDpRKT_, symObjAddr: 0x604C, symBinAddr: 0xD665B8, symSize: 0x220 }
  - { offset: 0x6E7B0A, size: 0x8, addend: 0x0, symName: __ZN4onnx16mergeInShapeInfoERKNS_16TypeProto_TensorERS0_, symObjAddr: 0x1A14, symBinAddr: 0xD62DB4, symSize: 0xA4 }
  - { offset: 0x6E7D16, size: 0x8, addend: 0x0, symName: __ZN4onnx14UnionShapeInfoERKNS_16TensorShapeProtoERNS_16TypeProto_TensorE, symObjAddr: 0x1B5C, symBinAddr: 0xD62E58, symSize: 0x54 }
  - { offset: 0x6E7D51, size: 0x8, addend: 0x0, symName: __ZN4onnx14UnionShapeInfoERKNS_16TensorShapeProtoERNS_16TypeProto_TensorE, symObjAddr: 0x1B5C, symBinAddr: 0xD62E58, symSize: 0x54 }
  - { offset: 0x6E7D77, size: 0x8, addend: 0x0, symName: __ZN4onnx14UnionShapeInfoERKNS_16TensorShapeProtoERNS_16TypeProto_TensorE, symObjAddr: 0x1B5C, symBinAddr: 0xD62E58, symSize: 0x54 }
  - { offset: 0x6E7D92, size: 0x8, addend: 0x0, symName: __ZN4onnx14UnionShapeInfoERKNS_16TensorShapeProtoERNS_16TypeProto_TensorE, symObjAddr: 0x1B5C, symBinAddr: 0xD62E58, symSize: 0x54 }
  - { offset: 0x6E7EF1, size: 0x8, addend: 0x0, symName: __ZN4onnxL14UnionShapeInfoERKNS_16TensorShapeProtoERS0_, symObjAddr: 0x7330, symBinAddr: 0xD66DD0, symSize: 0x1A8 }
  - { offset: 0x6E85F9, size: 0x8, addend: 0x0, symName: __ZN4onnx13UnionTypeInfoERKNS_9TypeProtoERS0_, symObjAddr: 0x1C04, symBinAddr: 0xD62EAC, symSize: 0x8E4 }
  - { offset: 0x6E9EAA, size: 0x8, addend: 0x0, symName: __ZN4onnx10MakeStringIJA22_cA36_cEEENSt3__112basic_stringIcNS3_11char_traitsIcEENS3_9allocatorIcEEEEDpRKT_, symObjAddr: 0x2FBC, symBinAddr: 0xD64264, symSize: 0x1DC }
  - { offset: 0x6EA4AF, size: 0x8, addend: 0x0, symName: __ZN4onnx10MakeStringIJA22_cA32_cA11_cNSt3__112basic_stringIcNS4_11char_traitsIcEENS4_9allocatorIcEEEES3_SA_EEESA_DpRKT_, symObjAddr: 0x272C, symBinAddr: 0xD639D4, symSize: 0x26C }
  - { offset: 0x6EAE32, size: 0x8, addend: 0x0, symName: __ZN4onnx10MakeStringIJA22_cA17_cA11_cNS_9TypeProto9ValueCaseES3_S5_EEENSt3__112basic_stringIcNS6_11char_traitsIcEENS6_9allocatorIcEEEEDpRKT_, symObjAddr: 0x24E8, symBinAddr: 0xD63790, symSize: 0x244 }
  - { offset: 0x6EB6B7, size: 0x8, addend: 0x0, symName: __ZN4onnx10MakeStringIJA22_cA43_cEEENSt3__112basic_stringIcNS3_11char_traitsIcEENS3_9allocatorIcEEEEDpRKT_, symObjAddr: 0x2C04, symBinAddr: 0xD63EAC, symSize: 0x1DC }
  - { offset: 0x6EBCBC, size: 0x8, addend: 0x0, symName: __ZN4onnx10MakeStringIJA22_cA34_cEEENSt3__112basic_stringIcNS3_11char_traitsIcEENS3_9allocatorIcEEEEDpRKT_, symObjAddr: 0x2DE0, symBinAddr: 0xD64088, symSize: 0x1DC }
  - { offset: 0x6EC2C1, size: 0x8, addend: 0x0, symName: __ZN4onnx10MakeStringIJA22_cA39_cA11_cNSt3__112basic_stringIcNS4_11char_traitsIcEENS4_9allocatorIcEEEES3_SA_EEESA_DpRKT_, symObjAddr: 0x2998, symBinAddr: 0xD63C40, symSize: 0x26C }
  - { offset: 0x6ED3F4, size: 0x8, addend: 0x0, symName: __ZN4onnx31propagateElemTypeWithValidationEPKNS_9TypeProtoEPS0_, symObjAddr: 0x3198, symBinAddr: 0xD64440, symSize: 0x904 }
  - { offset: 0x6EEBC7, size: 0x8, addend: 0x0, symName: __ZN4onnx10MakeStringIJA22_cA23_ciA41_ciEEENSt3__112basic_stringIcNS4_11char_traitsIcEENS4_9allocatorIcEEEEDpRKT_, symObjAddr: 0x6A74, symBinAddr: 0xD669C4, symSize: 0x220 }
  - { offset: 0x6EF702, size: 0x8, addend: 0x0, symName: __ZN4onnx10MakeStringIJA22_cA79_cNS_9TypeProto9ValueCaseEEEENSt3__112basic_stringIcNS5_11char_traitsIcEENS5_9allocatorIcEEEEDpRKT_, symObjAddr: 0x3A9C, symBinAddr: 0xD64D44, symSize: 0x1EC }
  - { offset: 0x6EFD5F, size: 0x8, addend: 0x0, symName: __ZN4onnx10MakeStringIJA22_cA62_cNS_9TypeProto9ValueCaseEEEENSt3__112basic_stringIcNS5_11char_traitsIcEENS5_9allocatorIcEEEEDpRKT_, symObjAddr: 0x6888, symBinAddr: 0xD667D8, symSize: 0x1EC }
  - { offset: 0x6F03BC, size: 0x8, addend: 0x0, symName: __ZN4onnx10MakeStringIJA22_cA46_cNS_9TypeProto9ValueCaseEEEENSt3__112basic_stringIcNS5_11char_traitsIcEENS5_9allocatorIcEEEEDpRKT_, symObjAddr: 0x6C94, symBinAddr: 0xD66BE4, symSize: 0x1EC }
  - { offset: 0x6F0ADA, size: 0x8, addend: 0x0, symName: __ZN4onnx13getShapeInputERKNS_16InferenceContextEmRb, symObjAddr: 0x3C88, symBinAddr: 0xD64F30, symSize: 0xC }
  - { offset: 0x6F0B57, size: 0x8, addend: 0x0, symName: __ZN4onnx13getShapeInputERKNS_16InferenceContextEmbRb, symObjAddr: 0x3C94, symBinAddr: 0xD64F3C, symSize: 0x4B8 }
  - { offset: 0x6F1CE3, size: 0x8, addend: 0x0, symName: __ZN4onnx10MakeStringIJA23_cA51_cEEENSt3__112basic_stringIcNS3_11char_traitsIcEENS3_9allocatorIcEEEEDpRKT_, symObjAddr: 0x45EC, symBinAddr: 0xD653F4, symSize: 0x1DC }
  - { offset: 0x6F32C0, size: 0x8, addend: 0x0, symName: __ZN4onnx34getAttributeProtoElemTypeAndLengthEPKNS_14AttributeProtoE, symObjAddr: 0x47C8, symBinAddr: 0xD655D0, symSize: 0x198 }
  - { offset: 0x6F38C9, size: 0x8, addend: 0x0, symName: __ZN4onnx10MakeStringIJA22_cA11_cNSt3__112basic_stringIcNS3_11char_traitsIcEENS3_9allocatorIcEEEEA37_ciA2_cEEES9_DpRKT_, symObjAddr: 0x4960, symBinAddr: 0xD65768, symSize: 0x258 }
  - { offset: 0x6F443B, size: 0x8, addend: 0x0, symName: __ZN4onnx32getAttributeElementTypeAndLengthERKNS_16InferenceContextERKSt16initializer_listINSt3__112basic_stringIcNS4_11char_traitsIcEENS4_9allocatorIcEEEEE, symObjAddr: 0x4BB8, symBinAddr: 0xD659C0, symSize: 0x1B8 }
  - { offset: 0x6F4857, size: 0x8, addend: 0x0, symName: __ZN4onnx9stringifyISt16initializer_listINSt3__112basic_stringIcNS2_11char_traitsIcEENS2_9allocatorIcEEEEEEES8_RKT_, symObjAddr: 0x4F70, symBinAddr: 0xD65D78, symSize: 0x210 }
  - { offset: 0x6F4E3C, size: 0x8, addend: 0x0, symName: __ZN4onnx10MakeStringIJA23_cA47_cNSt3__112basic_stringIcNS3_11char_traitsIcEENS3_9allocatorIcEEEEEEES9_DpRKT_, symObjAddr: 0x4D70, symBinAddr: 0xD65B78, symSize: 0x200 }
  - { offset: 0x7048B0, size: 0x8, addend: 0x0, symName: __ZN4onnx13Transpose_docE, symObjAddr: 0x3F398, symBinAddr: 0x1574E70, symSize: 0x0 }
  - { offset: 0x710080, size: 0x8, addend: 0x0, symName: __ZN4onnx11GetOpSchemaINS_15Cast_Onnx_ver25EEENS_8OpSchemaEv, symObjAddr: 0x0, symBinAddr: 0xD66F78, symSize: 0x670 }
  - { offset: 0x7123C8, size: 0x8, addend: 0x0, symName: __ZN4onnx11GetOpSchemaINS_19CastLike_Onnx_ver25EEENS_8OpSchemaEv, symObjAddr: 0x868, symBinAddr: 0xD675E8, symSize: 0x698 }
  - { offset: 0x71471E, size: 0x8, addend: 0x0, symName: __ZN4onnx11GetOpSchemaINS_18Reshape_Onnx_ver25EEENS_8OpSchemaEv, symObjAddr: 0xF00, symBinAddr: 0xD67C80, symSize: 0x418 }
  - { offset: 0x715AE2, size: 0x8, addend: 0x0, symName: __ZN4onnx11GetOpSchemaINS_16Shape_Onnx_ver25EEENS_8OpSchemaEv, symObjAddr: 0x1318, symBinAddr: 0xD68098, symSize: 0x4A0 }
  - { offset: 0x7170B7, size: 0x8, addend: 0x0, symName: __ZN4onnx11GetOpSchemaINS_15Size_Onnx_ver25EEENS_8OpSchemaEv, symObjAddr: 0x17B8, symBinAddr: 0xD68538, symSize: 0x450 }
  - { offset: 0x718689, size: 0x8, addend: 0x0, symName: __ZN4onnx11GetOpSchemaINS_17Concat_Onnx_ver13EEENS_8OpSchemaEv, symObjAddr: 0x1C08, symBinAddr: 0xD68988, symSize: 0x43C }
  - { offset: 0x719C41, size: 0x8, addend: 0x0, symName: __ZN4onnx11GetOpSchemaINS_16Split_Onnx_ver18EEENS_8OpSchemaEv, symObjAddr: 0x2044, symBinAddr: 0xD68DC4, symSize: 0x428 }
  - { offset: 0x71AFF8, size: 0x8, addend: 0x0, symName: __ZN4onnx11GetOpSchemaINS_16Slice_Onnx_ver13EEENS_8OpSchemaEv, symObjAddr: 0x246C, symBinAddr: 0xD691EC, symSize: 0x528 }
  - { offset: 0x71C5C0, size: 0x8, addend: 0x0, symName: __ZN4onnx11GetOpSchemaINS_20Transpose_Onnx_ver25EEENS_8OpSchemaEv, symObjAddr: 0x2994, symBinAddr: 0xD69714, symSize: 0x3C8 }
  - { offset: 0x71D96D, size: 0x8, addend: 0x0, symName: __ZN4onnx11GetOpSchemaINS_18Scatter_Onnx_ver11EEENS_8OpSchemaEv, symObjAddr: 0x2D5C, symBinAddr: 0xD69ADC, symSize: 0x480 }
  - { offset: 0x71ED1A, size: 0x8, addend: 0x0, symName: __ZN4onnx11GetOpSchemaINS_20ScatterND_Onnx_ver18EEENS_8OpSchemaEv, symObjAddr: 0x31DC, symBinAddr: 0xD69F5C, symSize: 0x4A0 }
  - { offset: 0x7203ED, size: 0x8, addend: 0x0, symName: __ZN4onnx11GetOpSchemaINS_26ScatterElements_Onnx_ver18EEENS_8OpSchemaEv, symObjAddr: 0x367C, symBinAddr: 0xD6A3FC, symSize: 0x504 }
  - { offset: 0x721AA8, size: 0x8, addend: 0x0, symName: __ZN4onnx11GetOpSchemaINS_17Gather_Onnx_ver13EEENS_8OpSchemaEv, symObjAddr: 0x3B80, symBinAddr: 0xD6A900, symSize: 0x4D0 }
  - { offset: 0x72308F, size: 0x8, addend: 0x0, symName: __ZN4onnx11GetOpSchemaINS_25GatherElements_Onnx_ver13EEENS_8OpSchemaEv, symObjAddr: 0x4050, symBinAddr: 0xD6ADD0, symSize: 0x454 }
  - { offset: 0x724463, size: 0x8, addend: 0x0, symName: __ZN4onnx11GetOpSchemaINS_18Squeeze_Onnx_ver25EEENS_8OpSchemaEv, symObjAddr: 0x44A4, symBinAddr: 0xD6B224, symSize: 0x45C }
  - { offset: 0x725A04, size: 0x8, addend: 0x0, symName: __ZN4onnx11GetOpSchemaINS_20Unsqueeze_Onnx_ver25EEENS_8OpSchemaEv, symObjAddr: 0x4900, symBinAddr: 0xD6B680, symSize: 0x45C }
  - { offset: 0x726FA5, size: 0x8, addend: 0x0, symName: __ZN4onnx11GetOpSchemaINS_23SpaceToDepth_Onnx_ver13EEENS_8OpSchemaEv, symObjAddr: 0x4D5C, symBinAddr: 0xD6BADC, symSize: 0x3C8 }
  - { offset: 0x72834A, size: 0x8, addend: 0x0, symName: __ZN4onnx11GetOpSchemaINS_23DepthToSpace_Onnx_ver13EEENS_8OpSchemaEv, symObjAddr: 0x5124, symBinAddr: 0xD6BEA4, symSize: 0x44C }
  - { offset: 0x729A00, size: 0x8, addend: 0x0, symName: __ZN4onnx11GetOpSchemaINS_15Tile_Onnx_ver13EEENS_8OpSchemaEv, symObjAddr: 0x5570, symBinAddr: 0xD6C2F0, symSize: 0x414 }
  - { offset: 0x72ADBF, size: 0x8, addend: 0x0, symName: __ZN4onnx11GetOpSchemaINS_19Upsample_Onnx_ver10EEENS_8OpSchemaEv, symObjAddr: 0x5984, symBinAddr: 0xD6C704, symSize: 0x46C }
  - { offset: 0x72C48A, size: 0x8, addend: 0x0, symName: __ZN4onnx11GetOpSchemaINS_17Resize_Onnx_ver19EEENS_8OpSchemaEv, symObjAddr: 0x5DF0, symBinAddr: 0xD6CB70, symSize: 0x770 }
  - { offset: 0x72E50A, size: 0x8, addend: 0x0, symName: __ZN4onnx11GetOpSchemaINS_21GridSample_Onnx_ver22EEENS_8OpSchemaEv, symObjAddr: 0x6560, symBinAddr: 0xD6D2E0, symSize: 0x66C }
  - { offset: 0x73091F, size: 0x8, addend: 0x0, symName: __ZN4onnx11GetOpSchemaINS_21AffineGrid_Onnx_ver20EEENS_8OpSchemaEv, symObjAddr: 0x6BCC, symBinAddr: 0xD6D94C, symSize: 0x440 }
  - { offset: 0x731CD9, size: 0x8, addend: 0x0, symName: __ZN4onnx11GetOpSchemaINS_19Compress_Onnx_ver11EEENS_8OpSchemaEv, symObjAddr: 0x7620, symBinAddr: 0xD6E29C, symSize: 0x430 }
  - { offset: 0x733098, size: 0x8, addend: 0x0, symName: __ZN4onnx11GetOpSchemaINS_17OneHot_Onnx_ver11EEENS_8OpSchemaEv, symObjAddr: 0x7A50, symBinAddr: 0xD6E6CC, symSize: 0x708 }
  - { offset: 0x73589D, size: 0x8, addend: 0x0, symName: __ZN4onnx11GetOpSchemaINS_16IsNaN_Onnx_ver20EEENS_8OpSchemaEv, symObjAddr: 0x8158, symBinAddr: 0xD6EDD4, symSize: 0x3D8 }
  - { offset: 0x736C71, size: 0x8, addend: 0x0, symName: __ZN4onnx11GetOpSchemaINS_16IsInf_Onnx_ver20EEENS_8OpSchemaEv, symObjAddr: 0x8530, symBinAddr: 0xD6F1AC, symSize: 0x448 }
  - { offset: 0x73806F, size: 0x8, addend: 0x0, symName: __ZN4onnx11GetOpSchemaINS_16Where_Onnx_ver16EEENS_8OpSchemaEv, symObjAddr: 0x8978, symBinAddr: 0xD6F5F4, symSize: 0x5D8 }
  - { offset: 0x739FA2, size: 0x8, addend: 0x0, symName: __ZN4onnx11GetOpSchemaINS_18NonZero_Onnx_ver13EEENS_8OpSchemaEv, symObjAddr: 0x8F50, symBinAddr: 0xD6FBCC, symSize: 0x3A8 }
  - { offset: 0x73B33C, size: 0x8, addend: 0x0, symName: __ZN4onnx11GetOpSchemaINS_26ReverseSequence_Onnx_ver10EEENS_8OpSchemaEv, symObjAddr: 0x92F8, symBinAddr: 0xD6FF74, symSize: 0x440 }
  - { offset: 0x73C6F4, size: 0x8, addend: 0x0, symName: __ZN4onnx11GetOpSchemaINS_17Unique_Onnx_ver11EEENS_8OpSchemaEv, symObjAddr: 0x9738, symBinAddr: 0xD703B4, symSize: 0x480 }
  - { offset: 0x73DAB5, size: 0x8, addend: 0x0, symName: __ZN4onnx11GetOpSchemaINS_19GatherND_Onnx_ver13EEENS_8OpSchemaEv, symObjAddr: 0x9BB8, symBinAddr: 0xD70834, symSize: 0x41C }
  - { offset: 0x73EE89, size: 0x8, addend: 0x0, symName: __ZN4onnx11GetOpSchemaINS_16Trilu_Onnx_ver14EEENS_8OpSchemaEv, symObjAddr: 0xA278, symBinAddr: 0xD70EF4, symSize: 0x418 }
  - { offset: 0x74025D, size: 0x8, addend: 0x0, symName: __ZN4onnx11GetOpSchemaINS_24CenterCropPad_Onnx_ver18EEENS_8OpSchemaEv, symObjAddr: 0xA690, symBinAddr: 0xD7130C, symSize: 0x4C0 }
  - { offset: 0x74182C, size: 0x8, addend: 0x0, symName: __ZN4onnx11GetOpSchemaINS_24TensorScatter_Onnx_ver24EEENS_8OpSchemaEv, symObjAddr: 0xAB50, symBinAddr: 0xD717CC, symSize: 0x4DC }
  - { offset: 0x742F06, size: 0x8, addend: 0x0, symName: __ZN4onnx11GetOpSchemaINS_19Identity_Onnx_ver25EEENS_8OpSchemaEv, symObjAddr: 0x700C, symBinAddr: 0xD6DD8C, symSize: 0x510 }
  - { offset: 0x744F2A, size: 0x8, addend: 0x0, symName: __ZN4onnx11GetOpSchemaINS_14Pad_Onnx_ver25EEENS_8OpSchemaEv, symObjAddr: 0x9FD4, symBinAddr: 0xD70C50, symSize: 0x2A4 }
  - { offset: 0x7499B8, size: 0x8, addend: 0x0, symName: __ZN4onnx10MakeStringIJA20_cxA37_cEEENSt3__112basic_stringIcNS3_11char_traitsIcEENS3_9allocatorIcEEEEDpRKT_, symObjAddr: 0x11C6C, symBinAddr: 0xD723E0, symSize: 0x1EC }
  - { offset: 0x74A15E, size: 0x8, addend: 0x0, symName: __ZN4onnx10MakeStringIJA23_cA26_cxEEENSt3__112basic_stringIcNS3_11char_traitsIcEENS3_9allocatorIcEEEEDpRKT_, symObjAddr: 0x12BE0, symBinAddr: 0xD72F58, symSize: 0x1EC }
  - { offset: 0x74BBD5, size: 0x8, addend: 0x0, symName: __ZN4onnx10MakeStringIJA23_cA49_cmA11_ciA5_ciEEENSt3__112basic_stringIcNS5_11char_traitsIcEENS5_9allocatorIcEEEEDpRKT_, symObjAddr: 0x14AE4, symBinAddr: 0xD7456C, symSize: 0x254 }
  - { offset: 0x74D7EC, size: 0x8, addend: 0x0, symName: __ZN4onnx10axisIsZeroERNS_22DataPropagationContextEb, symObjAddr: 0x153E8, symBinAddr: 0xD74A30, symSize: 0x264 }
  - { offset: 0x74E06D, size: 0x8, addend: 0x0, symName: __ZN4onnx10MakeStringIJA23_cA38_cxA41_ciA2_cEEENSt3__112basic_stringIcNS5_11char_traitsIcEENS5_9allocatorIcEEEEDpRKT_, symObjAddr: 0x169E8, symBinAddr: 0xD76030, symSize: 0x244 }
  - { offset: 0x74E8F2, size: 0x8, addend: 0x0, symName: __ZN4onnx10MakeStringIJA22_cA41_ciA8_ciEEENSt3__112basic_stringIcNS4_11char_traitsIcEENS4_9allocatorIcEEEEDpRKT_, symObjAddr: 0x163A8, symBinAddr: 0xD759F0, symSize: 0x220 }
  - { offset: 0x74F08F, size: 0x8, addend: 0x0, symName: __ZN4onnx10MakeStringIJA23_cA58_cEEENSt3__112basic_stringIcNS3_11char_traitsIcEENS3_9allocatorIcEEEEDpRKT_, symObjAddr: 0x165C8, symBinAddr: 0xD75C10, symSize: 0x1DC }
  - { offset: 0x74FA32, size: 0x8, addend: 0x0, symName: __ZN4onnx10MakeStringIJA23_cA36_cmA16_cmA2_cEEENSt3__112basic_stringIcNS5_11char_traitsIcEENS5_9allocatorIcEEEEDpRKT_, symObjAddr: 0x167A4, symBinAddr: 0xD75DEC, symSize: 0x244 }
  - { offset: 0x750D7A, size: 0x8, addend: 0x0, symName: __ZN4onnx14checkAxesRangeINSt3__16vectorIxNS1_9allocatorIxEEEEEEvRT_i, symObjAddr: 0x186B4, symBinAddr: 0xD7759C, symSize: 0x15C }
  - { offset: 0x751060, size: 0x8, addend: 0x0, symName: __ZN4onnx18checkDuplicateAxesINSt3__16vectorIxNS1_9allocatorIxEEEEEEvRT_i, symObjAddr: 0x18810, symBinAddr: 0xD776F8, symSize: 0x22C }
  - { offset: 0x7517CD, size: 0x8, addend: 0x0, symName: __ZN4onnxL18processSliceInputsExRxS0_x, symObjAddr: 0x18A3C, symBinAddr: 0xD77924, symSize: 0x148 }
  - { offset: 0x751EBB, size: 0x8, addend: 0x0, symName: __ZN4onnx10MakeStringIJA23_cA71_cEEENSt3__112basic_stringIcNS3_11char_traitsIcEENS3_9allocatorIcEEEEDpRKT_, symObjAddr: 0x18B84, symBinAddr: 0xD77A6C, symSize: 0x1DC }
  - { offset: 0x752502, size: 0x8, addend: 0x0, symName: __ZN4onnx10MakeStringIJA23_cA24_cxA19_ciA3_ciA2_cEEENSt3__112basic_stringIcNS6_11char_traitsIcEENS6_9allocatorIcEEEEDpRKT_, symObjAddr: 0x19458, symBinAddr: 0xD77C48, symSize: 0x270 }
  - { offset: 0x752F19, size: 0x8, addend: 0x0, symName: __ZN4onnx10MakeStringIJA23_cA6_cxA32_cEEENSt3__112basic_stringIcNS4_11char_traitsIcEENS4_9allocatorIcEEEEDpRKT_, symObjAddr: 0x196C8, symBinAddr: 0xD77EB8, symSize: 0x210 }
  - { offset: 0x753F20, size: 0x8, addend: 0x0, symName: __ZN4onnx10MakeStringIJA23_cA53_ciA7_ciA3_cEEENSt3__112basic_stringIcNS5_11char_traitsIcEENS5_9allocatorIcEEEEDpRKT_, symObjAddr: 0x19FEC, symBinAddr: 0xD78600, symSize: 0x244 }
  - { offset: 0x755148, size: 0x8, addend: 0x0, symName: __ZN4onnx46appendSingleDimCopiedFromInputTypeToOutputTypeERNS_16InferenceContextEmmm, symObjAddr: 0x1B5C4, symBinAddr: 0xD794D8, symSize: 0x4DC }
  - { offset: 0x755E46, size: 0x8, addend: 0x0, symName: __ZN4onnx10MakeStringIJA22_cA50_cxEEENSt3__112basic_stringIcNS3_11char_traitsIcEENS3_9allocatorIcEEEEDpRKT_, symObjAddr: 0x1AF3C, symBinAddr: 0xD792EC, symSize: 0x1EC }
  - { offset: 0x7564A3, size: 0x8, addend: 0x0, symName: __ZN4onnx10MakeStringIJA22_cNSt3__112basic_stringIcNS2_11char_traitsIcEENS2_9allocatorIcEEEEEEES8_DpRKT_, symObjAddr: 0x1ABE4, symBinAddr: 0xD79108, symSize: 0x1E4 }
  - { offset: 0x75770A, size: 0x8, addend: 0x0, symName: __ZN4onnx10MakeStringIJA22_cA8_cmS2_NS_9TypeProto9ValueCaseEA33_cmA7_cS4_A5_cNSt3__112basic_stringIcNS8_11char_traitsIcEENS8_9allocatorIcEEEEA2_cEEESE_DpRKT_, symObjAddr: 0x1BF50, symBinAddr: 0xD799B4, symSize: 0x238 }
  - { offset: 0x757F4F, size: 0x8, addend: 0x0, symName: __ZN4onnx10MakeStringIJA22_cA7_cmA13_cmA51_cNSt3__112basic_stringIcNS5_11char_traitsIcEENS5_9allocatorIcEEEEA2_cEEESB_DpRKT_, symObjAddr: 0x1C188, symBinAddr: 0xD79BEC, symSize: 0x1F8 }
  - { offset: 0x758ADC, size: 0x8, addend: 0x0, symName: __ZN4onnx18MakeStringInternalIA8_cJNS_9TypeProto9ValueCaseEA33_cmA7_cS3_A5_cNSt3__112basic_stringIcNS7_11char_traitsIcEENS7_9allocatorIcEEEEA2_cEEEvRNS7_18basic_stringstreamIcSA_SC_EERKT_DpRKT0_, symObjAddr: 0x1C380, symBinAddr: 0xD79DE4, symSize: 0x114 }
  - { offset: 0x759169, size: 0x8, addend: 0x0, symName: __ZN4onnx18MakeStringInternalIA22_cJA7_cmA13_cmA51_cNSt3__112basic_stringIcNS5_11char_traitsIcEENS5_9allocatorIcEEEEA2_cEEEvRNS5_18basic_stringstreamIcS8_SA_EERKT_DpRKT0_, symObjAddr: 0x1C494, symBinAddr: 0xD79EF8, symSize: 0x108 }
  - { offset: 0x75A004, size: 0x8, addend: 0x0, symName: __ZN4onnx24GatherOp13DataPropagatorERNS_22DataPropagationContextE, symObjAddr: 0x1D438, symBinAddr: 0xD7ACC0, symSize: 0x14C }
  - { offset: 0x75A30F, size: 0x8, addend: 0x0, symName: __ZN4onnx27appendDimToTensorShapeProtoERNS_16TensorShapeProtoEPKS0_i, symObjAddr: 0x1D584, symBinAddr: 0xD7AE0C, symSize: 0x16C }
  - { offset: 0x75AB2E, size: 0x8, addend: 0x0, symName: __ZN4onnx10MakeStringIJA23_cA20_ciS1_xEEENSt3__112basic_stringIcNS3_11char_traitsIcEENS3_9allocatorIcEEEEDpRKT_, symObjAddr: 0x1E178, symBinAddr: 0xD7B824, symSize: 0x220 }
  - { offset: 0x75B8C7, size: 0x8, addend: 0x0, symName: __ZN4onnx10MakeStringIJA23_cA27_cEEENSt3__112basic_stringIcNS3_11char_traitsIcEENS3_9allocatorIcEEEEDpRKT_, symObjAddr: 0x1F64C, symBinAddr: 0xD7CCF8, symSize: 0x1DC }
  - { offset: 0x75D1B2, size: 0x8, addend: 0x0, symName: __ZN4onnx10MakeStringIJA23_cA131_cEEENSt3__112basic_stringIcNS3_11char_traitsIcEENS3_9allocatorIcEEEEDpRKT_, symObjAddr: 0x21058, symBinAddr: 0xD7DD18, symSize: 0x1DC }
  - { offset: 0x75DBAC, size: 0x8, addend: 0x0, symName: __ZN4onnx10MakeStringIJA23_cA27_ciA35_cEEENSt3__112basic_stringIcNS4_11char_traitsIcEENS4_9allocatorIcEEEEDpRKT_, symObjAddr: 0x21CC8, symBinAddr: 0xD7E750, symSize: 0x210 }
  - { offset: 0x75F3AF, size: 0x8, addend: 0x0, symName: __ZN4onnx10MakeStringIJA22_cA45_cEEENSt3__112basic_stringIcNS3_11char_traitsIcEENS3_9allocatorIcEEEEDpRKT_, symObjAddr: 0x237FC, symBinAddr: 0xD7F9C4, symSize: 0x1DC }
  - { offset: 0x76185D, size: 0x8, addend: 0x0, symName: __ZN4onnx10MakeStringIJA23_cA88_cEEENSt3__112basic_stringIcNS3_11char_traitsIcEENS3_9allocatorIcEEEEDpRKT_, symObjAddr: 0x26600, symBinAddr: 0xD81BAC, symSize: 0x1DC }
  - { offset: 0x7626E8, size: 0x8, addend: 0x0, symName: __ZN4onnx10MakeStringIJA22_cA37_cEEENSt3__112basic_stringIcNS3_11char_traitsIcEENS3_9allocatorIcEEEEDpRKT_, symObjAddr: 0x278CC, symBinAddr: 0xD82AC0, symSize: 0x1DC }
  - { offset: 0x762CED, size: 0x8, addend: 0x0, symName: __ZN4onnx10MakeStringIJA23_cA38_cmS2_mA3_cEEENSt3__112basic_stringIcNS4_11char_traitsIcEENS4_9allocatorIcEEEEDpRKT_, symObjAddr: 0x27AA8, symBinAddr: 0xD82C9C, symSize: 0x244 }
  - { offset: 0x763B6E, size: 0x8, addend: 0x0, symName: __ZN4onnx10MakeStringIJA23_cA64_ciA15_ciEEENSt3__112basic_stringIcNS4_11char_traitsIcEENS4_9allocatorIcEEEEDpRKT_, symObjAddr: 0x28D58, symBinAddr: 0xD838F4, symSize: 0x220 }
  - { offset: 0x76430B, size: 0x8, addend: 0x0, symName: __ZN4onnx10MakeStringIJA23_cA6_cxA27_ciEEENSt3__112basic_stringIcNS4_11char_traitsIcEENS4_9allocatorIcEEEEDpRKT_, symObjAddr: 0x28F78, symBinAddr: 0xD83B14, symSize: 0x220 }
  - { offset: 0x7C5808, size: 0x8, addend: 0x0, symName: '__ZNSt3__110__function6__funcIZN4onnx11GetOpSchemaINS2_15Cast_Onnx_ver25EEENS2_8OpSchemaEvE3$_0NS_9allocatorIS6_EEFvRNS2_16InferenceContextEEED1Ev', symObjAddr: 0x100F0, symBinAddr: 0xD71CA8, symSize: 0x4 }
  - { offset: 0x7C5833, size: 0x8, addend: 0x0, symName: '__ZNSt3__110__function6__funcIZN4onnx11GetOpSchemaINS2_15Cast_Onnx_ver25EEENS2_8OpSchemaEvE3$_0NS_9allocatorIS6_EEFvRNS2_16InferenceContextEEED0Ev', symObjAddr: 0x100F4, symBinAddr: 0xD71CAC, symSize: 0x4 }
  - { offset: 0x7C58E8, size: 0x8, addend: 0x0, symName: '__ZNKSt3__110__function6__funcIZN4onnx11GetOpSchemaINS2_15Cast_Onnx_ver25EEENS2_8OpSchemaEvE3$_0NS_9allocatorIS6_EEFvRNS2_16InferenceContextEEE7__cloneEv', symObjAddr: 0x100F8, symBinAddr: 0xD71CB0, symSize: 0x24 }
  - { offset: 0x7C5A2B, size: 0x8, addend: 0x0, symName: '__ZNKSt3__110__function6__funcIZN4onnx11GetOpSchemaINS2_15Cast_Onnx_ver25EEENS2_8OpSchemaEvE3$_0NS_9allocatorIS6_EEFvRNS2_16InferenceContextEEE7__cloneEPNS0_6__baseISB_EE', symObjAddr: 0x1011C, symBinAddr: 0xD71CD4, symSize: 0x10 }
  - { offset: 0x7C5A5F, size: 0x8, addend: 0x0, symName: '__ZNKSt3__110__function6__funcIZN4onnx11GetOpSchemaINS2_15Cast_Onnx_ver25EEENS2_8OpSchemaEvE3$_0NS_9allocatorIS6_EEFvRNS2_16InferenceContextEEE7__cloneEPNS0_6__baseISB_EE', symObjAddr: 0x1011C, symBinAddr: 0xD71CD4, symSize: 0x10 }
  - { offset: 0x7C5A7B, size: 0x8, addend: 0x0, symName: '__ZNKSt3__110__function6__funcIZN4onnx11GetOpSchemaINS2_15Cast_Onnx_ver25EEENS2_8OpSchemaEvE3$_0NS_9allocatorIS6_EEFvRNS2_16InferenceContextEEE7__cloneEPNS0_6__baseISB_EE', symObjAddr: 0x1011C, symBinAddr: 0xD71CD4, symSize: 0x10 }
  - { offset: 0x7C5A97, size: 0x8, addend: 0x0, symName: '__ZNSt3__110__function6__funcIZN4onnx11GetOpSchemaINS2_15Cast_Onnx_ver25EEENS2_8OpSchemaEvE3$_0NS_9allocatorIS6_EEFvRNS2_16InferenceContextEEE7destroyEv', symObjAddr: 0x1012C, symBinAddr: 0xD71CE4, symSize: 0x4 }
  - { offset: 0x7C5AE6, size: 0x8, addend: 0x0, symName: '__ZNSt3__110__function6__funcIZN4onnx11GetOpSchemaINS2_15Cast_Onnx_ver25EEENS2_8OpSchemaEvE3$_0NS_9allocatorIS6_EEFvRNS2_16InferenceContextEEE18destroy_deallocateEv', symObjAddr: 0x10130, symBinAddr: 0xD71CE8, symSize: 0x4 }
  - { offset: 0x7C5B19, size: 0x8, addend: 0x0, symName: '__ZNSt3__110__function6__funcIZN4onnx11GetOpSchemaINS2_15Cast_Onnx_ver25EEENS2_8OpSchemaEvE3$_0NS_9allocatorIS6_EEFvRNS2_16InferenceContextEEE18destroy_deallocateEv', symObjAddr: 0x10130, symBinAddr: 0xD71CE8, symSize: 0x4 }
  - { offset: 0x7C5B3B, size: 0x8, addend: 0x0, symName: '__ZNSt3__110__function6__funcIZN4onnx11GetOpSchemaINS2_15Cast_Onnx_ver25EEENS2_8OpSchemaEvE3$_0NS_9allocatorIS6_EEFvRNS2_16InferenceContextEEE18destroy_deallocateEv', symObjAddr: 0x10130, symBinAddr: 0xD71CE8, symSize: 0x4 }
  - { offset: 0x7C5B66, size: 0x8, addend: 0x0, symName: '__ZNSt3__110__function6__funcIZN4onnx11GetOpSchemaINS2_15Cast_Onnx_ver25EEENS2_8OpSchemaEvE3$_0NS_9allocatorIS6_EEFvRNS2_16InferenceContextEEE18destroy_deallocateEv', symObjAddr: 0x10130, symBinAddr: 0xD71CE8, symSize: 0x4 }
  - { offset: 0x7C5B8C, size: 0x8, addend: 0x0, symName: '__ZNSt3__110__function6__funcIZN4onnx11GetOpSchemaINS2_15Cast_Onnx_ver25EEENS2_8OpSchemaEvE3$_0NS_9allocatorIS6_EEFvRNS2_16InferenceContextEEE18destroy_deallocateEv', symObjAddr: 0x10130, symBinAddr: 0xD71CE8, symSize: 0x4 }
  - { offset: 0x7C5C35, size: 0x8, addend: 0x0, symName: '__ZNSt3__110__function6__funcIZN4onnx11GetOpSchemaINS2_15Cast_Onnx_ver25EEENS2_8OpSchemaEvE3$_0NS_9allocatorIS6_EEFvRNS2_16InferenceContextEEEclESA_', symObjAddr: 0x10134, symBinAddr: 0xD71CEC, symSize: 0x188 }
  - { offset: 0x7C61B0, size: 0x8, addend: 0x0, symName: '__ZNKSt3__110__function6__funcIZN4onnx11GetOpSchemaINS2_15Cast_Onnx_ver25EEENS2_8OpSchemaEvE3$_0NS_9allocatorIS6_EEFvRNS2_16InferenceContextEEE6targetERKSt9type_info', symObjAddr: 0x102BC, symBinAddr: 0xD71E74, symSize: 0x64 }
  - { offset: 0x7C6263, size: 0x8, addend: 0x0, symName: '__ZNKSt3__110__function6__funcIZN4onnx11GetOpSchemaINS2_15Cast_Onnx_ver25EEENS2_8OpSchemaEvE3$_0NS_9allocatorIS6_EEFvRNS2_16InferenceContextEEE11target_typeEv', symObjAddr: 0x10320, symBinAddr: 0xD71ED8, symSize: 0xC }
  - { offset: 0x7C6421, size: 0x8, addend: 0x0, symName: '__ZNSt3__110__function6__funcIZN4onnx11GetOpSchemaINS2_15Cast_Onnx_ver25EEENS2_8OpSchemaEvE3$_1NS_9allocatorIS6_EEFvRNS2_22DataPropagationContextEEED1Ev', symObjAddr: 0x11538, symBinAddr: 0xD71EE4, symSize: 0x4 }
  - { offset: 0x7C644C, size: 0x8, addend: 0x0, symName: '__ZNSt3__110__function6__funcIZN4onnx11GetOpSchemaINS2_15Cast_Onnx_ver25EEENS2_8OpSchemaEvE3$_1NS_9allocatorIS6_EEFvRNS2_22DataPropagationContextEEED0Ev', symObjAddr: 0x1153C, symBinAddr: 0xD71EE8, symSize: 0x4 }
  - { offset: 0x7C6501, size: 0x8, addend: 0x0, symName: '__ZNKSt3__110__function6__funcIZN4onnx11GetOpSchemaINS2_15Cast_Onnx_ver25EEENS2_8OpSchemaEvE3$_1NS_9allocatorIS6_EEFvRNS2_22DataPropagationContextEEE7__cloneEv', symObjAddr: 0x11540, symBinAddr: 0xD71EEC, symSize: 0x24 }
  - { offset: 0x7C6644, size: 0x8, addend: 0x0, symName: '__ZNKSt3__110__function6__funcIZN4onnx11GetOpSchemaINS2_15Cast_Onnx_ver25EEENS2_8OpSchemaEvE3$_1NS_9allocatorIS6_EEFvRNS2_22DataPropagationContextEEE7__cloneEPNS0_6__baseISB_EE', symObjAddr: 0x11564, symBinAddr: 0xD71F10, symSize: 0x10 }
  - { offset: 0x7C6678, size: 0x8, addend: 0x0, symName: '__ZNKSt3__110__function6__funcIZN4onnx11GetOpSchemaINS2_15Cast_Onnx_ver25EEENS2_8OpSchemaEvE3$_1NS_9allocatorIS6_EEFvRNS2_22DataPropagationContextEEE7__cloneEPNS0_6__baseISB_EE', symObjAddr: 0x11564, symBinAddr: 0xD71F10, symSize: 0x10 }
  - { offset: 0x7C6694, size: 0x8, addend: 0x0, symName: '__ZNKSt3__110__function6__funcIZN4onnx11GetOpSchemaINS2_15Cast_Onnx_ver25EEENS2_8OpSchemaEvE3$_1NS_9allocatorIS6_EEFvRNS2_22DataPropagationContextEEE7__cloneEPNS0_6__baseISB_EE', symObjAddr: 0x11564, symBinAddr: 0xD71F10, symSize: 0x10 }
  - { offset: 0x7C66B0, size: 0x8, addend: 0x0, symName: '__ZNSt3__110__function6__funcIZN4onnx11GetOpSchemaINS2_15Cast_Onnx_ver25EEENS2_8OpSchemaEvE3$_1NS_9allocatorIS6_EEFvRNS2_22DataPropagationContextEEE7destroyEv', symObjAddr: 0x11574, symBinAddr: 0xD71F20, symSize: 0x4 }
  - { offset: 0x7C66FF, size: 0x8, addend: 0x0, symName: '__ZNSt3__110__function6__funcIZN4onnx11GetOpSchemaINS2_15Cast_Onnx_ver25EEENS2_8OpSchemaEvE3$_1NS_9allocatorIS6_EEFvRNS2_22DataPropagationContextEEE18destroy_deallocateEv', symObjAddr: 0x11578, symBinAddr: 0xD71F24, symSize: 0x4 }
  - { offset: 0x7C6732, size: 0x8, addend: 0x0, symName: '__ZNSt3__110__function6__funcIZN4onnx11GetOpSchemaINS2_15Cast_Onnx_ver25EEENS2_8OpSchemaEvE3$_1NS_9allocatorIS6_EEFvRNS2_22DataPropagationContextEEE18destroy_deallocateEv', symObjAddr: 0x11578, symBinAddr: 0xD71F24, symSize: 0x4 }
  - { offset: 0x7C6754, size: 0x8, addend: 0x0, symName: '__ZNSt3__110__function6__funcIZN4onnx11GetOpSchemaINS2_15Cast_Onnx_ver25EEENS2_8OpSchemaEvE3$_1NS_9allocatorIS6_EEFvRNS2_22DataPropagationContextEEE18destroy_deallocateEv', symObjAddr: 0x11578, symBinAddr: 0xD71F24, symSize: 0x4 }
  - { offset: 0x7C677F, size: 0x8, addend: 0x0, symName: '__ZNSt3__110__function6__funcIZN4onnx11GetOpSchemaINS2_15Cast_Onnx_ver25EEENS2_8OpSchemaEvE3$_1NS_9allocatorIS6_EEFvRNS2_22DataPropagationContextEEE18destroy_deallocateEv', symObjAddr: 0x11578, symBinAddr: 0xD71F24, symSize: 0x4 }
  - { offset: 0x7C67A5, size: 0x8, addend: 0x0, symName: '__ZNSt3__110__function6__funcIZN4onnx11GetOpSchemaINS2_15Cast_Onnx_ver25EEENS2_8OpSchemaEvE3$_1NS_9allocatorIS6_EEFvRNS2_22DataPropagationContextEEE18destroy_deallocateEv', symObjAddr: 0x11578, symBinAddr: 0xD71F24, symSize: 0x4 }
  - { offset: 0x7C6868, size: 0x8, addend: 0x0, symName: '__ZNSt3__110__function6__funcIZN4onnx11GetOpSchemaINS2_15Cast_Onnx_ver25EEENS2_8OpSchemaEvE3$_1NS_9allocatorIS6_EEFvRNS2_22DataPropagationContextEEEclESA_', symObjAddr: 0x1157C, symBinAddr: 0xD71F28, symSize: 0xC0 }
  - { offset: 0x7C6985, size: 0x8, addend: 0x0, symName: '__ZNKSt3__110__function6__funcIZN4onnx11GetOpSchemaINS2_15Cast_Onnx_ver25EEENS2_8OpSchemaEvE3$_1NS_9allocatorIS6_EEFvRNS2_22DataPropagationContextEEE6targetERKSt9type_info', symObjAddr: 0x1163C, symBinAddr: 0xD71FE8, symSize: 0x64 }
  - { offset: 0x7C6A38, size: 0x8, addend: 0x0, symName: '__ZNKSt3__110__function6__funcIZN4onnx11GetOpSchemaINS2_15Cast_Onnx_ver25EEENS2_8OpSchemaEvE3$_1NS_9allocatorIS6_EEFvRNS2_22DataPropagationContextEEE11target_typeEv', symObjAddr: 0x116A0, symBinAddr: 0xD7204C, symSize: 0xC }
  - { offset: 0x7C6A5B, size: 0x8, addend: 0x0, symName: '__ZNSt3__110__function6__funcIZN4onnx11GetOpSchemaINS2_19CastLike_Onnx_ver25EEENS2_8OpSchemaEvE3$_0NS_9allocatorIS6_EEFvRNS2_16InferenceContextEEED1Ev', symObjAddr: 0x116AC, symBinAddr: 0xD72058, symSize: 0x4 }
  - { offset: 0x7C6A86, size: 0x8, addend: 0x0, symName: '__ZNSt3__110__function6__funcIZN4onnx11GetOpSchemaINS2_19CastLike_Onnx_ver25EEENS2_8OpSchemaEvE3$_0NS_9allocatorIS6_EEFvRNS2_16InferenceContextEEED0Ev', symObjAddr: 0x116B0, symBinAddr: 0xD7205C, symSize: 0x4 }
  - { offset: 0x7C6B3B, size: 0x8, addend: 0x0, symName: '__ZNKSt3__110__function6__funcIZN4onnx11GetOpSchemaINS2_19CastLike_Onnx_ver25EEENS2_8OpSchemaEvE3$_0NS_9allocatorIS6_EEFvRNS2_16InferenceContextEEE7__cloneEv', symObjAddr: 0x116B4, symBinAddr: 0xD72060, symSize: 0x24 }
  - { offset: 0x7C6C7E, size: 0x8, addend: 0x0, symName: '__ZNKSt3__110__function6__funcIZN4onnx11GetOpSchemaINS2_19CastLike_Onnx_ver25EEENS2_8OpSchemaEvE3$_0NS_9allocatorIS6_EEFvRNS2_16InferenceContextEEE7__cloneEPNS0_6__baseISB_EE', symObjAddr: 0x116D8, symBinAddr: 0xD72084, symSize: 0x10 }
  - { offset: 0x7C6CB2, size: 0x8, addend: 0x0, symName: '__ZNKSt3__110__function6__funcIZN4onnx11GetOpSchemaINS2_19CastLike_Onnx_ver25EEENS2_8OpSchemaEvE3$_0NS_9allocatorIS6_EEFvRNS2_16InferenceContextEEE7__cloneEPNS0_6__baseISB_EE', symObjAddr: 0x116D8, symBinAddr: 0xD72084, symSize: 0x10 }
  - { offset: 0x7C6CCE, size: 0x8, addend: 0x0, symName: '__ZNKSt3__110__function6__funcIZN4onnx11GetOpSchemaINS2_19CastLike_Onnx_ver25EEENS2_8OpSchemaEvE3$_0NS_9allocatorIS6_EEFvRNS2_16InferenceContextEEE7__cloneEPNS0_6__baseISB_EE', symObjAddr: 0x116D8, symBinAddr: 0xD72084, symSize: 0x10 }
  - { offset: 0x7C6CEA, size: 0x8, addend: 0x0, symName: '__ZNSt3__110__function6__funcIZN4onnx11GetOpSchemaINS2_19CastLike_Onnx_ver25EEENS2_8OpSchemaEvE3$_0NS_9allocatorIS6_EEFvRNS2_16InferenceContextEEE7destroyEv', symObjAddr: 0x116E8, symBinAddr: 0xD72094, symSize: 0x4 }
  - { offset: 0x7C6D39, size: 0x8, addend: 0x0, symName: '__ZNSt3__110__function6__funcIZN4onnx11GetOpSchemaINS2_19CastLike_Onnx_ver25EEENS2_8OpSchemaEvE3$_0NS_9allocatorIS6_EEFvRNS2_16InferenceContextEEE18destroy_deallocateEv', symObjAddr: 0x116EC, symBinAddr: 0xD72098, symSize: 0x4 }
  - { offset: 0x7C6D6C, size: 0x8, addend: 0x0, symName: '__ZNSt3__110__function6__funcIZN4onnx11GetOpSchemaINS2_19CastLike_Onnx_ver25EEENS2_8OpSchemaEvE3$_0NS_9allocatorIS6_EEFvRNS2_16InferenceContextEEE18destroy_deallocateEv', symObjAddr: 0x116EC, symBinAddr: 0xD72098, symSize: 0x4 }
  - { offset: 0x7C6D8E, size: 0x8, addend: 0x0, symName: '__ZNSt3__110__function6__funcIZN4onnx11GetOpSchemaINS2_19CastLike_Onnx_ver25EEENS2_8OpSchemaEvE3$_0NS_9allocatorIS6_EEFvRNS2_16InferenceContextEEE18destroy_deallocateEv', symObjAddr: 0x116EC, symBinAddr: 0xD72098, symSize: 0x4 }
  - { offset: 0x7C6DB9, size: 0x8, addend: 0x0, symName: '__ZNSt3__110__function6__funcIZN4onnx11GetOpSchemaINS2_19CastLike_Onnx_ver25EEENS2_8OpSchemaEvE3$_0NS_9allocatorIS6_EEFvRNS2_16InferenceContextEEE18destroy_deallocateEv', symObjAddr: 0x116EC, symBinAddr: 0xD72098, symSize: 0x4 }
  - { offset: 0x7C6DDF, size: 0x8, addend: 0x0, symName: '__ZNSt3__110__function6__funcIZN4onnx11GetOpSchemaINS2_19CastLike_Onnx_ver25EEENS2_8OpSchemaEvE3$_0NS_9allocatorIS6_EEFvRNS2_16InferenceContextEEE18destroy_deallocateEv', symObjAddr: 0x116EC, symBinAddr: 0xD72098, symSize: 0x4 }
  - { offset: 0x7C6E88, size: 0x8, addend: 0x0, symName: '__ZNSt3__110__function6__funcIZN4onnx11GetOpSchemaINS2_19CastLike_Onnx_ver25EEENS2_8OpSchemaEvE3$_0NS_9allocatorIS6_EEFvRNS2_16InferenceContextEEEclESA_', symObjAddr: 0x116F0, symBinAddr: 0xD7209C, symSize: 0x108 }
  - { offset: 0x7C70A5, size: 0x8, addend: 0x0, symName: '__ZNKSt3__110__function6__funcIZN4onnx11GetOpSchemaINS2_19CastLike_Onnx_ver25EEENS2_8OpSchemaEvE3$_0NS_9allocatorIS6_EEFvRNS2_16InferenceContextEEE6targetERKSt9type_info', symObjAddr: 0x117F8, symBinAddr: 0xD721A4, symSize: 0x64 }
  - { offset: 0x7C7158, size: 0x8, addend: 0x0, symName: '__ZNKSt3__110__function6__funcIZN4onnx11GetOpSchemaINS2_19CastLike_Onnx_ver25EEENS2_8OpSchemaEvE3$_0NS_9allocatorIS6_EEFvRNS2_16InferenceContextEEE11target_typeEv', symObjAddr: 0x1185C, symBinAddr: 0xD72208, symSize: 0xC }
  - { offset: 0x7C717B, size: 0x8, addend: 0x0, symName: '__ZNSt3__110__function6__funcIZN4onnx11GetOpSchemaINS2_19CastLike_Onnx_ver25EEENS2_8OpSchemaEvE3$_1NS_9allocatorIS6_EEFbRKNS2_24FunctionBodyBuildContextERKS5_RNS2_13FunctionProtoEEED1Ev', symObjAddr: 0x11868, symBinAddr: 0xD72214, symSize: 0x4 }
  - { offset: 0x7C71A6, size: 0x8, addend: 0x0, symName: '__ZNSt3__110__function6__funcIZN4onnx11GetOpSchemaINS2_19CastLike_Onnx_ver25EEENS2_8OpSchemaEvE3$_1NS_9allocatorIS6_EEFbRKNS2_24FunctionBodyBuildContextERKS5_RNS2_13FunctionProtoEEED0Ev', symObjAddr: 0x1186C, symBinAddr: 0xD72218, symSize: 0x4 }
  - { offset: 0x7C725B, size: 0x8, addend: 0x0, symName: '__ZNKSt3__110__function6__funcIZN4onnx11GetOpSchemaINS2_19CastLike_Onnx_ver25EEENS2_8OpSchemaEvE3$_1NS_9allocatorIS6_EEFbRKNS2_24FunctionBodyBuildContextERKS5_RNS2_13FunctionProtoEEE7__cloneEv', symObjAddr: 0x11870, symBinAddr: 0xD7221C, symSize: 0x24 }
  - { offset: 0x7C739E, size: 0x8, addend: 0x0, symName: '__ZNKSt3__110__function6__funcIZN4onnx11GetOpSchemaINS2_19CastLike_Onnx_ver25EEENS2_8OpSchemaEvE3$_1NS_9allocatorIS6_EEFbRKNS2_24FunctionBodyBuildContextERKS5_RNS2_13FunctionProtoEEE7__cloneEPNS0_6__baseISG_EE', symObjAddr: 0x11894, symBinAddr: 0xD72240, symSize: 0x10 }
  - { offset: 0x7C73D2, size: 0x8, addend: 0x0, symName: '__ZNKSt3__110__function6__funcIZN4onnx11GetOpSchemaINS2_19CastLike_Onnx_ver25EEENS2_8OpSchemaEvE3$_1NS_9allocatorIS6_EEFbRKNS2_24FunctionBodyBuildContextERKS5_RNS2_13FunctionProtoEEE7__cloneEPNS0_6__baseISG_EE', symObjAddr: 0x11894, symBinAddr: 0xD72240, symSize: 0x10 }
  - { offset: 0x7C73EE, size: 0x8, addend: 0x0, symName: '__ZNKSt3__110__function6__funcIZN4onnx11GetOpSchemaINS2_19CastLike_Onnx_ver25EEENS2_8OpSchemaEvE3$_1NS_9allocatorIS6_EEFbRKNS2_24FunctionBodyBuildContextERKS5_RNS2_13FunctionProtoEEE7__cloneEPNS0_6__baseISG_EE', symObjAddr: 0x11894, symBinAddr: 0xD72240, symSize: 0x10 }
  - { offset: 0x7C740A, size: 0x8, addend: 0x0, symName: '__ZNSt3__110__function6__funcIZN4onnx11GetOpSchemaINS2_19CastLike_Onnx_ver25EEENS2_8OpSchemaEvE3$_1NS_9allocatorIS6_EEFbRKNS2_24FunctionBodyBuildContextERKS5_RNS2_13FunctionProtoEEE7destroyEv', symObjAddr: 0x118A4, symBinAddr: 0xD72250, symSize: 0x4 }
  - { offset: 0x7C7459, size: 0x8, addend: 0x0, symName: '__ZNSt3__110__function6__funcIZN4onnx11GetOpSchemaINS2_19CastLike_Onnx_ver25EEENS2_8OpSchemaEvE3$_1NS_9allocatorIS6_EEFbRKNS2_24FunctionBodyBuildContextERKS5_RNS2_13FunctionProtoEEE18destroy_deallocateEv', symObjAddr: 0x118A8, symBinAddr: 0xD72254, symSize: 0x4 }
  - { offset: 0x7C748C, size: 0x8, addend: 0x0, symName: '__ZNSt3__110__function6__funcIZN4onnx11GetOpSchemaINS2_19CastLike_Onnx_ver25EEENS2_8OpSchemaEvE3$_1NS_9allocatorIS6_EEFbRKNS2_24FunctionBodyBuildContextERKS5_RNS2_13FunctionProtoEEE18destroy_deallocateEv', symObjAddr: 0x118A8, symBinAddr: 0xD72254, symSize: 0x4 }
  - { offset: 0x7C74AE, size: 0x8, addend: 0x0, symName: '__ZNSt3__110__function6__funcIZN4onnx11GetOpSchemaINS2_19CastLike_Onnx_ver25EEENS2_8OpSchemaEvE3$_1NS_9allocatorIS6_EEFbRKNS2_24FunctionBodyBuildContextERKS5_RNS2_13FunctionProtoEEE18destroy_deallocateEv', symObjAddr: 0x118A8, symBinAddr: 0xD72254, symSize: 0x4 }
  - { offset: 0x7C74D9, size: 0x8, addend: 0x0, symName: '__ZNSt3__110__function6__funcIZN4onnx11GetOpSchemaINS2_19CastLike_Onnx_ver25EEENS2_8OpSchemaEvE3$_1NS_9allocatorIS6_EEFbRKNS2_24FunctionBodyBuildContextERKS5_RNS2_13FunctionProtoEEE18destroy_deallocateEv', symObjAddr: 0x118A8, symBinAddr: 0xD72254, symSize: 0x4 }
  - { offset: 0x7C74FF, size: 0x8, addend: 0x0, symName: '__ZNSt3__110__function6__funcIZN4onnx11GetOpSchemaINS2_19CastLike_Onnx_ver25EEENS2_8OpSchemaEvE3$_1NS_9allocatorIS6_EEFbRKNS2_24FunctionBodyBuildContextERKS5_RNS2_13FunctionProtoEEE18destroy_deallocateEv', symObjAddr: 0x118A8, symBinAddr: 0xD72254, symSize: 0x4 }
  - { offset: 0x7C76CA, size: 0x8, addend: 0x0, symName: '__ZNSt3__110__function6__funcIZN4onnx11GetOpSchemaINS2_19CastLike_Onnx_ver25EEENS2_8OpSchemaEvE3$_1NS_9allocatorIS6_EEFbRKNS2_24FunctionBodyBuildContextERKS5_RNS2_13FunctionProtoEEEclESB_SD_SF_', symObjAddr: 0x118AC, symBinAddr: 0xD72258, symSize: 0x118 }
  - { offset: 0x7C7E99, size: 0x8, addend: 0x0, symName: '__ZNKSt3__110__function6__funcIZN4onnx11GetOpSchemaINS2_19CastLike_Onnx_ver25EEENS2_8OpSchemaEvE3$_1NS_9allocatorIS6_EEFbRKNS2_24FunctionBodyBuildContextERKS5_RNS2_13FunctionProtoEEE6targetERKSt9type_info', symObjAddr: 0x119C4, symBinAddr: 0xD72370, symSize: 0x64 }
  - { offset: 0x7C7F4C, size: 0x8, addend: 0x0, symName: '__ZNKSt3__110__function6__funcIZN4onnx11GetOpSchemaINS2_19CastLike_Onnx_ver25EEENS2_8OpSchemaEvE3$_1NS_9allocatorIS6_EEFbRKNS2_24FunctionBodyBuildContextERKS5_RNS2_13FunctionProtoEEE11target_typeEv', symObjAddr: 0x11A28, symBinAddr: 0xD723D4, symSize: 0xC }
  - { offset: 0x7C8343, size: 0x8, addend: 0x0, symName: '__ZNSt3__110__function6__funcIZN4onnx11GetOpSchemaINS2_18Reshape_Onnx_ver25EEENS2_8OpSchemaEvE3$_0NS_9allocatorIS6_EEFvRNS2_16InferenceContextEEED1Ev', symObjAddr: 0x11E9C, symBinAddr: 0xD725CC, symSize: 0x4 }
  - { offset: 0x7C836E, size: 0x8, addend: 0x0, symName: '__ZNSt3__110__function6__funcIZN4onnx11GetOpSchemaINS2_18Reshape_Onnx_ver25EEENS2_8OpSchemaEvE3$_0NS_9allocatorIS6_EEFvRNS2_16InferenceContextEEED0Ev', symObjAddr: 0x11EA0, symBinAddr: 0xD725D0, symSize: 0x4 }
  - { offset: 0x7C8423, size: 0x8, addend: 0x0, symName: '__ZNKSt3__110__function6__funcIZN4onnx11GetOpSchemaINS2_18Reshape_Onnx_ver25EEENS2_8OpSchemaEvE3$_0NS_9allocatorIS6_EEFvRNS2_16InferenceContextEEE7__cloneEv', symObjAddr: 0x11EA4, symBinAddr: 0xD725D4, symSize: 0x24 }
  - { offset: 0x7C8566, size: 0x8, addend: 0x0, symName: '__ZNKSt3__110__function6__funcIZN4onnx11GetOpSchemaINS2_18Reshape_Onnx_ver25EEENS2_8OpSchemaEvE3$_0NS_9allocatorIS6_EEFvRNS2_16InferenceContextEEE7__cloneEPNS0_6__baseISB_EE', symObjAddr: 0x11EC8, symBinAddr: 0xD725F8, symSize: 0x10 }
  - { offset: 0x7C859A, size: 0x8, addend: 0x0, symName: '__ZNKSt3__110__function6__funcIZN4onnx11GetOpSchemaINS2_18Reshape_Onnx_ver25EEENS2_8OpSchemaEvE3$_0NS_9allocatorIS6_EEFvRNS2_16InferenceContextEEE7__cloneEPNS0_6__baseISB_EE', symObjAddr: 0x11EC8, symBinAddr: 0xD725F8, symSize: 0x10 }
  - { offset: 0x7C85B6, size: 0x8, addend: 0x0, symName: '__ZNKSt3__110__function6__funcIZN4onnx11GetOpSchemaINS2_18Reshape_Onnx_ver25EEENS2_8OpSchemaEvE3$_0NS_9allocatorIS6_EEFvRNS2_16InferenceContextEEE7__cloneEPNS0_6__baseISB_EE', symObjAddr: 0x11EC8, symBinAddr: 0xD725F8, symSize: 0x10 }
  - { offset: 0x7C85D2, size: 0x8, addend: 0x0, symName: '__ZNSt3__110__function6__funcIZN4onnx11GetOpSchemaINS2_18Reshape_Onnx_ver25EEENS2_8OpSchemaEvE3$_0NS_9allocatorIS6_EEFvRNS2_16InferenceContextEEE7destroyEv', symObjAddr: 0x11ED8, symBinAddr: 0xD72608, symSize: 0x4 }
  - { offset: 0x7C8621, size: 0x8, addend: 0x0, symName: '__ZNSt3__110__function6__funcIZN4onnx11GetOpSchemaINS2_18Reshape_Onnx_ver25EEENS2_8OpSchemaEvE3$_0NS_9allocatorIS6_EEFvRNS2_16InferenceContextEEE18destroy_deallocateEv', symObjAddr: 0x11EDC, symBinAddr: 0xD7260C, symSize: 0x4 }
  - { offset: 0x7C8654, size: 0x8, addend: 0x0, symName: '__ZNSt3__110__function6__funcIZN4onnx11GetOpSchemaINS2_18Reshape_Onnx_ver25EEENS2_8OpSchemaEvE3$_0NS_9allocatorIS6_EEFvRNS2_16InferenceContextEEE18destroy_deallocateEv', symObjAddr: 0x11EDC, symBinAddr: 0xD7260C, symSize: 0x4 }
  - { offset: 0x7C8676, size: 0x8, addend: 0x0, symName: '__ZNSt3__110__function6__funcIZN4onnx11GetOpSchemaINS2_18Reshape_Onnx_ver25EEENS2_8OpSchemaEvE3$_0NS_9allocatorIS6_EEFvRNS2_16InferenceContextEEE18destroy_deallocateEv', symObjAddr: 0x11EDC, symBinAddr: 0xD7260C, symSize: 0x4 }
  - { offset: 0x7C86A1, size: 0x8, addend: 0x0, symName: '__ZNSt3__110__function6__funcIZN4onnx11GetOpSchemaINS2_18Reshape_Onnx_ver25EEENS2_8OpSchemaEvE3$_0NS_9allocatorIS6_EEFvRNS2_16InferenceContextEEE18destroy_deallocateEv', symObjAddr: 0x11EDC, symBinAddr: 0xD7260C, symSize: 0x4 }
  - { offset: 0x7C86C7, size: 0x8, addend: 0x0, symName: '__ZNSt3__110__function6__funcIZN4onnx11GetOpSchemaINS2_18Reshape_Onnx_ver25EEENS2_8OpSchemaEvE3$_0NS_9allocatorIS6_EEFvRNS2_16InferenceContextEEE18destroy_deallocateEv', symObjAddr: 0x11EDC, symBinAddr: 0xD7260C, symSize: 0x4 }
  - { offset: 0x7C8EB9, size: 0x8, addend: 0x0, symName: '__ZNSt3__110__function6__funcIZN4onnx11GetOpSchemaINS2_18Reshape_Onnx_ver25EEENS2_8OpSchemaEvE3$_0NS_9allocatorIS6_EEFvRNS2_16InferenceContextEEEclESA_', symObjAddr: 0x11EE0, symBinAddr: 0xD72610, symSize: 0x8D8 }
  - { offset: 0x7CACD6, size: 0x8, addend: 0x0, symName: '__ZNSt3__110__function6__funcIZN4onnx11GetOpSchemaINS2_16Shape_Onnx_ver25EEENS2_8OpSchemaEvE3$_0NS_9allocatorIS6_EEFvRNS2_16InferenceContextEEED1Ev', symObjAddr: 0x13304, symBinAddr: 0xD73144, symSize: 0x4 }
  - { offset: 0x7CACE1, size: 0x8, addend: 0x0, symName: '__ZNKSt3__110__function6__funcIZN4onnx11GetOpSchemaINS2_18Reshape_Onnx_ver25EEENS2_8OpSchemaEvE3$_0NS_9allocatorIS6_EEFvRNS2_16InferenceContextEEE6targetERKSt9type_info', symObjAddr: 0x127B8, symBinAddr: 0xD72EE8, symSize: 0x64 }
  - { offset: 0x7CAD94, size: 0x8, addend: 0x0, symName: '__ZNKSt3__110__function6__funcIZN4onnx11GetOpSchemaINS2_18Reshape_Onnx_ver25EEENS2_8OpSchemaEvE3$_0NS_9allocatorIS6_EEFvRNS2_16InferenceContextEEE11target_typeEv', symObjAddr: 0x1281C, symBinAddr: 0xD72F4C, symSize: 0xC }
  - { offset: 0x7CAED2, size: 0x8, addend: 0x0, symName: '__ZNSt3__110__function6__funcIZN4onnx11GetOpSchemaINS2_16Shape_Onnx_ver25EEENS2_8OpSchemaEvE3$_0NS_9allocatorIS6_EEFvRNS2_16InferenceContextEEED1Ev', symObjAddr: 0x13304, symBinAddr: 0xD73144, symSize: 0x4 }
  - { offset: 0x7CAEFD, size: 0x8, addend: 0x0, symName: '__ZNSt3__110__function6__funcIZN4onnx11GetOpSchemaINS2_16Shape_Onnx_ver25EEENS2_8OpSchemaEvE3$_0NS_9allocatorIS6_EEFvRNS2_16InferenceContextEEED0Ev', symObjAddr: 0x13308, symBinAddr: 0xD73148, symSize: 0x4 }
  - { offset: 0x7CAFB2, size: 0x8, addend: 0x0, symName: '__ZNKSt3__110__function6__funcIZN4onnx11GetOpSchemaINS2_16Shape_Onnx_ver25EEENS2_8OpSchemaEvE3$_0NS_9allocatorIS6_EEFvRNS2_16InferenceContextEEE7__cloneEv', symObjAddr: 0x1330C, symBinAddr: 0xD7314C, symSize: 0x24 }
  - { offset: 0x7CB0F5, size: 0x8, addend: 0x0, symName: '__ZNKSt3__110__function6__funcIZN4onnx11GetOpSchemaINS2_16Shape_Onnx_ver25EEENS2_8OpSchemaEvE3$_0NS_9allocatorIS6_EEFvRNS2_16InferenceContextEEE7__cloneEPNS0_6__baseISB_EE', symObjAddr: 0x13330, symBinAddr: 0xD73170, symSize: 0x10 }
  - { offset: 0x7CB129, size: 0x8, addend: 0x0, symName: '__ZNKSt3__110__function6__funcIZN4onnx11GetOpSchemaINS2_16Shape_Onnx_ver25EEENS2_8OpSchemaEvE3$_0NS_9allocatorIS6_EEFvRNS2_16InferenceContextEEE7__cloneEPNS0_6__baseISB_EE', symObjAddr: 0x13330, symBinAddr: 0xD73170, symSize: 0x10 }
  - { offset: 0x7CB145, size: 0x8, addend: 0x0, symName: '__ZNKSt3__110__function6__funcIZN4onnx11GetOpSchemaINS2_16Shape_Onnx_ver25EEENS2_8OpSchemaEvE3$_0NS_9allocatorIS6_EEFvRNS2_16InferenceContextEEE7__cloneEPNS0_6__baseISB_EE', symObjAddr: 0x13330, symBinAddr: 0xD73170, symSize: 0x10 }
  - { offset: 0x7CB161, size: 0x8, addend: 0x0, symName: '__ZNSt3__110__function6__funcIZN4onnx11GetOpSchemaINS2_16Shape_Onnx_ver25EEENS2_8OpSchemaEvE3$_0NS_9allocatorIS6_EEFvRNS2_16InferenceContextEEE7destroyEv', symObjAddr: 0x13340, symBinAddr: 0xD73180, symSize: 0x4 }
  - { offset: 0x7CB1B0, size: 0x8, addend: 0x0, symName: '__ZNSt3__110__function6__funcIZN4onnx11GetOpSchemaINS2_16Shape_Onnx_ver25EEENS2_8OpSchemaEvE3$_0NS_9allocatorIS6_EEFvRNS2_16InferenceContextEEE18destroy_deallocateEv', symObjAddr: 0x13344, symBinAddr: 0xD73184, symSize: 0x4 }
  - { offset: 0x7CB1E3, size: 0x8, addend: 0x0, symName: '__ZNSt3__110__function6__funcIZN4onnx11GetOpSchemaINS2_16Shape_Onnx_ver25EEENS2_8OpSchemaEvE3$_0NS_9allocatorIS6_EEFvRNS2_16InferenceContextEEE18destroy_deallocateEv', symObjAddr: 0x13344, symBinAddr: 0xD73184, symSize: 0x4 }
  - { offset: 0x7CB205, size: 0x8, addend: 0x0, symName: '__ZNSt3__110__function6__funcIZN4onnx11GetOpSchemaINS2_16Shape_Onnx_ver25EEENS2_8OpSchemaEvE3$_0NS_9allocatorIS6_EEFvRNS2_16InferenceContextEEE18destroy_deallocateEv', symObjAddr: 0x13344, symBinAddr: 0xD73184, symSize: 0x4 }
  - { offset: 0x7CB230, size: 0x8, addend: 0x0, symName: '__ZNSt3__110__function6__funcIZN4onnx11GetOpSchemaINS2_16Shape_Onnx_ver25EEENS2_8OpSchemaEvE3$_0NS_9allocatorIS6_EEFvRNS2_16InferenceContextEEE18destroy_deallocateEv', symObjAddr: 0x13344, symBinAddr: 0xD73184, symSize: 0x4 }
  - { offset: 0x7CB256, size: 0x8, addend: 0x0, symName: '__ZNSt3__110__function6__funcIZN4onnx11GetOpSchemaINS2_16Shape_Onnx_ver25EEENS2_8OpSchemaEvE3$_0NS_9allocatorIS6_EEFvRNS2_16InferenceContextEEE18destroy_deallocateEv', symObjAddr: 0x13344, symBinAddr: 0xD73184, symSize: 0x4 }
  - { offset: 0x7CB3C0, size: 0x8, addend: 0x0, symName: '__ZNSt3__110__function6__funcIZN4onnx11GetOpSchemaINS2_16Shape_Onnx_ver25EEENS2_8OpSchemaEvE3$_0NS_9allocatorIS6_EEFvRNS2_16InferenceContextEEEclESA_', symObjAddr: 0x13348, symBinAddr: 0xD73188, symSize: 0x3F0 }
  - { offset: 0x7CC118, size: 0x8, addend: 0x0, symName: '__ZNKSt3__110__function6__funcIZN4onnx11GetOpSchemaINS2_16Shape_Onnx_ver25EEENS2_8OpSchemaEvE3$_0NS_9allocatorIS6_EEFvRNS2_16InferenceContextEEE6targetERKSt9type_info', symObjAddr: 0x13738, symBinAddr: 0xD73578, symSize: 0x64 }
  - { offset: 0x7CC1CB, size: 0x8, addend: 0x0, symName: '__ZNKSt3__110__function6__funcIZN4onnx11GetOpSchemaINS2_16Shape_Onnx_ver25EEENS2_8OpSchemaEvE3$_0NS_9allocatorIS6_EEFvRNS2_16InferenceContextEEE11target_typeEv', symObjAddr: 0x1379C, symBinAddr: 0xD735DC, symSize: 0xC }
  - { offset: 0x7CC1EE, size: 0x8, addend: 0x0, symName: '__ZNSt3__110__function6__funcIZN4onnx11GetOpSchemaINS2_16Shape_Onnx_ver25EEENS2_8OpSchemaEvE3$_1NS_9allocatorIS6_EEFvRNS2_22DataPropagationContextEEED1Ev', symObjAddr: 0x137A8, symBinAddr: 0xD735E8, symSize: 0x4 }
  - { offset: 0x7CC219, size: 0x8, addend: 0x0, symName: '__ZNSt3__110__function6__funcIZN4onnx11GetOpSchemaINS2_16Shape_Onnx_ver25EEENS2_8OpSchemaEvE3$_1NS_9allocatorIS6_EEFvRNS2_22DataPropagationContextEEED0Ev', symObjAddr: 0x137AC, symBinAddr: 0xD735EC, symSize: 0x4 }
  - { offset: 0x7CC2CE, size: 0x8, addend: 0x0, symName: '__ZNKSt3__110__function6__funcIZN4onnx11GetOpSchemaINS2_16Shape_Onnx_ver25EEENS2_8OpSchemaEvE3$_1NS_9allocatorIS6_EEFvRNS2_22DataPropagationContextEEE7__cloneEv', symObjAddr: 0x137B0, symBinAddr: 0xD735F0, symSize: 0x24 }
  - { offset: 0x7CC411, size: 0x8, addend: 0x0, symName: '__ZNKSt3__110__function6__funcIZN4onnx11GetOpSchemaINS2_16Shape_Onnx_ver25EEENS2_8OpSchemaEvE3$_1NS_9allocatorIS6_EEFvRNS2_22DataPropagationContextEEE7__cloneEPNS0_6__baseISB_EE', symObjAddr: 0x137D4, symBinAddr: 0xD73614, symSize: 0x10 }
  - { offset: 0x7CC445, size: 0x8, addend: 0x0, symName: '__ZNKSt3__110__function6__funcIZN4onnx11GetOpSchemaINS2_16Shape_Onnx_ver25EEENS2_8OpSchemaEvE3$_1NS_9allocatorIS6_EEFvRNS2_22DataPropagationContextEEE7__cloneEPNS0_6__baseISB_EE', symObjAddr: 0x137D4, symBinAddr: 0xD73614, symSize: 0x10 }
  - { offset: 0x7CC461, size: 0x8, addend: 0x0, symName: '__ZNKSt3__110__function6__funcIZN4onnx11GetOpSchemaINS2_16Shape_Onnx_ver25EEENS2_8OpSchemaEvE3$_1NS_9allocatorIS6_EEFvRNS2_22DataPropagationContextEEE7__cloneEPNS0_6__baseISB_EE', symObjAddr: 0x137D4, symBinAddr: 0xD73614, symSize: 0x10 }
  - { offset: 0x7CC47D, size: 0x8, addend: 0x0, symName: '__ZNSt3__110__function6__funcIZN4onnx11GetOpSchemaINS2_16Shape_Onnx_ver25EEENS2_8OpSchemaEvE3$_1NS_9allocatorIS6_EEFvRNS2_22DataPropagationContextEEE7destroyEv', symObjAddr: 0x137E4, symBinAddr: 0xD73624, symSize: 0x4 }
  - { offset: 0x7CC4CC, size: 0x8, addend: 0x0, symName: '__ZNSt3__110__function6__funcIZN4onnx11GetOpSchemaINS2_16Shape_Onnx_ver25EEENS2_8OpSchemaEvE3$_1NS_9allocatorIS6_EEFvRNS2_22DataPropagationContextEEE18destroy_deallocateEv', symObjAddr: 0x137E8, symBinAddr: 0xD73628, symSize: 0x4 }
  - { offset: 0x7CC4FF, size: 0x8, addend: 0x0, symName: '__ZNSt3__110__function6__funcIZN4onnx11GetOpSchemaINS2_16Shape_Onnx_ver25EEENS2_8OpSchemaEvE3$_1NS_9allocatorIS6_EEFvRNS2_22DataPropagationContextEEE18destroy_deallocateEv', symObjAddr: 0x137E8, symBinAddr: 0xD73628, symSize: 0x4 }
  - { offset: 0x7CC521, size: 0x8, addend: 0x0, symName: '__ZNSt3__110__function6__funcIZN4onnx11GetOpSchemaINS2_16Shape_Onnx_ver25EEENS2_8OpSchemaEvE3$_1NS_9allocatorIS6_EEFvRNS2_22DataPropagationContextEEE18destroy_deallocateEv', symObjAddr: 0x137E8, symBinAddr: 0xD73628, symSize: 0x4 }
  - { offset: 0x7CC54C, size: 0x8, addend: 0x0, symName: '__ZNSt3__110__function6__funcIZN4onnx11GetOpSchemaINS2_16Shape_Onnx_ver25EEENS2_8OpSchemaEvE3$_1NS_9allocatorIS6_EEFvRNS2_22DataPropagationContextEEE18destroy_deallocateEv', symObjAddr: 0x137E8, symBinAddr: 0xD73628, symSize: 0x4 }
  - { offset: 0x7CC572, size: 0x8, addend: 0x0, symName: '__ZNSt3__110__function6__funcIZN4onnx11GetOpSchemaINS2_16Shape_Onnx_ver25EEENS2_8OpSchemaEvE3$_1NS_9allocatorIS6_EEFvRNS2_22DataPropagationContextEEE18destroy_deallocateEv', symObjAddr: 0x137E8, symBinAddr: 0xD73628, symSize: 0x4 }
  - { offset: 0x7CC690, size: 0x8, addend: 0x0, symName: '__ZNSt3__110__function6__funcIZN4onnx11GetOpSchemaINS2_16Shape_Onnx_ver25EEENS2_8OpSchemaEvE3$_1NS_9allocatorIS6_EEFvRNS2_22DataPropagationContextEEEclESA_', symObjAddr: 0x137EC, symBinAddr: 0xD7362C, symSize: 0x324 }
  - { offset: 0x7CD0F6, size: 0x8, addend: 0x0, symName: '__ZNKSt3__110__function6__funcIZN4onnx11GetOpSchemaINS2_16Shape_Onnx_ver25EEENS2_8OpSchemaEvE3$_1NS_9allocatorIS6_EEFvRNS2_22DataPropagationContextEEE6targetERKSt9type_info', symObjAddr: 0x13B10, symBinAddr: 0xD73950, symSize: 0x64 }
  - { offset: 0x7CD1A9, size: 0x8, addend: 0x0, symName: '__ZNKSt3__110__function6__funcIZN4onnx11GetOpSchemaINS2_16Shape_Onnx_ver25EEENS2_8OpSchemaEvE3$_1NS_9allocatorIS6_EEFvRNS2_22DataPropagationContextEEE11target_typeEv', symObjAddr: 0x13B74, symBinAddr: 0xD739B4, symSize: 0xC }
  - { offset: 0x7CD1CC, size: 0x8, addend: 0x0, symName: '__ZNSt3__110__function6__funcIZN4onnx11GetOpSchemaINS2_15Size_Onnx_ver25EEENS2_8OpSchemaEvE3$_0NS_9allocatorIS6_EEFvRNS2_16InferenceContextEEED1Ev', symObjAddr: 0x13B80, symBinAddr: 0xD739C0, symSize: 0x4 }
  - { offset: 0x7CD1F7, size: 0x8, addend: 0x0, symName: '__ZNSt3__110__function6__funcIZN4onnx11GetOpSchemaINS2_15Size_Onnx_ver25EEENS2_8OpSchemaEvE3$_0NS_9allocatorIS6_EEFvRNS2_16InferenceContextEEED0Ev', symObjAddr: 0x13B84, symBinAddr: 0xD739C4, symSize: 0x4 }
  - { offset: 0x7CD2AC, size: 0x8, addend: 0x0, symName: '__ZNKSt3__110__function6__funcIZN4onnx11GetOpSchemaINS2_15Size_Onnx_ver25EEENS2_8OpSchemaEvE3$_0NS_9allocatorIS6_EEFvRNS2_16InferenceContextEEE7__cloneEv', symObjAddr: 0x13B88, symBinAddr: 0xD739C8, symSize: 0x24 }
  - { offset: 0x7CD3EF, size: 0x8, addend: 0x0, symName: '__ZNKSt3__110__function6__funcIZN4onnx11GetOpSchemaINS2_15Size_Onnx_ver25EEENS2_8OpSchemaEvE3$_0NS_9allocatorIS6_EEFvRNS2_16InferenceContextEEE7__cloneEPNS0_6__baseISB_EE', symObjAddr: 0x13BAC, symBinAddr: 0xD739EC, symSize: 0x10 }
  - { offset: 0x7CD423, size: 0x8, addend: 0x0, symName: '__ZNKSt3__110__function6__funcIZN4onnx11GetOpSchemaINS2_15Size_Onnx_ver25EEENS2_8OpSchemaEvE3$_0NS_9allocatorIS6_EEFvRNS2_16InferenceContextEEE7__cloneEPNS0_6__baseISB_EE', symObjAddr: 0x13BAC, symBinAddr: 0xD739EC, symSize: 0x10 }
  - { offset: 0x7CD43F, size: 0x8, addend: 0x0, symName: '__ZNKSt3__110__function6__funcIZN4onnx11GetOpSchemaINS2_15Size_Onnx_ver25EEENS2_8OpSchemaEvE3$_0NS_9allocatorIS6_EEFvRNS2_16InferenceContextEEE7__cloneEPNS0_6__baseISB_EE', symObjAddr: 0x13BAC, symBinAddr: 0xD739EC, symSize: 0x10 }
  - { offset: 0x7CD45B, size: 0x8, addend: 0x0, symName: '__ZNSt3__110__function6__funcIZN4onnx11GetOpSchemaINS2_15Size_Onnx_ver25EEENS2_8OpSchemaEvE3$_0NS_9allocatorIS6_EEFvRNS2_16InferenceContextEEE7destroyEv', symObjAddr: 0x13BBC, symBinAddr: 0xD739FC, symSize: 0x4 }
  - { offset: 0x7CD4AA, size: 0x8, addend: 0x0, symName: '__ZNSt3__110__function6__funcIZN4onnx11GetOpSchemaINS2_15Size_Onnx_ver25EEENS2_8OpSchemaEvE3$_0NS_9allocatorIS6_EEFvRNS2_16InferenceContextEEE18destroy_deallocateEv', symObjAddr: 0x13BC0, symBinAddr: 0xD73A00, symSize: 0x4 }
  - { offset: 0x7CD4DD, size: 0x8, addend: 0x0, symName: '__ZNSt3__110__function6__funcIZN4onnx11GetOpSchemaINS2_15Size_Onnx_ver25EEENS2_8OpSchemaEvE3$_0NS_9allocatorIS6_EEFvRNS2_16InferenceContextEEE18destroy_deallocateEv', symObjAddr: 0x13BC0, symBinAddr: 0xD73A00, symSize: 0x4 }
  - { offset: 0x7CD4FF, size: 0x8, addend: 0x0, symName: '__ZNSt3__110__function6__funcIZN4onnx11GetOpSchemaINS2_15Size_Onnx_ver25EEENS2_8OpSchemaEvE3$_0NS_9allocatorIS6_EEFvRNS2_16InferenceContextEEE18destroy_deallocateEv', symObjAddr: 0x13BC0, symBinAddr: 0xD73A00, symSize: 0x4 }
  - { offset: 0x7CD52A, size: 0x8, addend: 0x0, symName: '__ZNSt3__110__function6__funcIZN4onnx11GetOpSchemaINS2_15Size_Onnx_ver25EEENS2_8OpSchemaEvE3$_0NS_9allocatorIS6_EEFvRNS2_16InferenceContextEEE18destroy_deallocateEv', symObjAddr: 0x13BC0, symBinAddr: 0xD73A00, symSize: 0x4 }
  - { offset: 0x7CD550, size: 0x8, addend: 0x0, symName: '__ZNSt3__110__function6__funcIZN4onnx11GetOpSchemaINS2_15Size_Onnx_ver25EEENS2_8OpSchemaEvE3$_0NS_9allocatorIS6_EEFvRNS2_16InferenceContextEEE18destroy_deallocateEv', symObjAddr: 0x13BC0, symBinAddr: 0xD73A00, symSize: 0x4 }
  - { offset: 0x7CD5FA, size: 0x8, addend: 0x0, symName: '__ZNSt3__110__function6__funcIZN4onnx11GetOpSchemaINS2_15Size_Onnx_ver25EEENS2_8OpSchemaEvE3$_0NS_9allocatorIS6_EEFvRNS2_16InferenceContextEEEclESA_', symObjAddr: 0x13BC4, symBinAddr: 0xD73A04, symSize: 0x140 }
  - { offset: 0x7CDA07, size: 0x8, addend: 0x0, symName: '__ZNKSt3__110__function6__funcIZN4onnx11GetOpSchemaINS2_15Size_Onnx_ver25EEENS2_8OpSchemaEvE3$_0NS_9allocatorIS6_EEFvRNS2_16InferenceContextEEE6targetERKSt9type_info', symObjAddr: 0x13D04, symBinAddr: 0xD73B44, symSize: 0x64 }
  - { offset: 0x7CDABA, size: 0x8, addend: 0x0, symName: '__ZNKSt3__110__function6__funcIZN4onnx11GetOpSchemaINS2_15Size_Onnx_ver25EEENS2_8OpSchemaEvE3$_0NS_9allocatorIS6_EEFvRNS2_16InferenceContextEEE11target_typeEv', symObjAddr: 0x13D68, symBinAddr: 0xD73BA8, symSize: 0xC }
  - { offset: 0x7CDADD, size: 0x8, addend: 0x0, symName: '__ZNSt3__110__function6__funcIZN4onnx11GetOpSchemaINS2_15Size_Onnx_ver25EEENS2_8OpSchemaEvE3$_1NS_9allocatorIS6_EEFvRNS2_22DataPropagationContextEEED1Ev', symObjAddr: 0x13D74, symBinAddr: 0xD73BB4, symSize: 0x4 }
  - { offset: 0x7CDB08, size: 0x8, addend: 0x0, symName: '__ZNSt3__110__function6__funcIZN4onnx11GetOpSchemaINS2_15Size_Onnx_ver25EEENS2_8OpSchemaEvE3$_1NS_9allocatorIS6_EEFvRNS2_22DataPropagationContextEEED0Ev', symObjAddr: 0x13D78, symBinAddr: 0xD73BB8, symSize: 0x4 }
  - { offset: 0x7CDBBD, size: 0x8, addend: 0x0, symName: '__ZNKSt3__110__function6__funcIZN4onnx11GetOpSchemaINS2_15Size_Onnx_ver25EEENS2_8OpSchemaEvE3$_1NS_9allocatorIS6_EEFvRNS2_22DataPropagationContextEEE7__cloneEv', symObjAddr: 0x13D7C, symBinAddr: 0xD73BBC, symSize: 0x24 }
  - { offset: 0x7CDD00, size: 0x8, addend: 0x0, symName: '__ZNKSt3__110__function6__funcIZN4onnx11GetOpSchemaINS2_15Size_Onnx_ver25EEENS2_8OpSchemaEvE3$_1NS_9allocatorIS6_EEFvRNS2_22DataPropagationContextEEE7__cloneEPNS0_6__baseISB_EE', symObjAddr: 0x13DA0, symBinAddr: 0xD73BE0, symSize: 0x10 }
  - { offset: 0x7CDD34, size: 0x8, addend: 0x0, symName: '__ZNKSt3__110__function6__funcIZN4onnx11GetOpSchemaINS2_15Size_Onnx_ver25EEENS2_8OpSchemaEvE3$_1NS_9allocatorIS6_EEFvRNS2_22DataPropagationContextEEE7__cloneEPNS0_6__baseISB_EE', symObjAddr: 0x13DA0, symBinAddr: 0xD73BE0, symSize: 0x10 }
  - { offset: 0x7CDD50, size: 0x8, addend: 0x0, symName: '__ZNKSt3__110__function6__funcIZN4onnx11GetOpSchemaINS2_15Size_Onnx_ver25EEENS2_8OpSchemaEvE3$_1NS_9allocatorIS6_EEFvRNS2_22DataPropagationContextEEE7__cloneEPNS0_6__baseISB_EE', symObjAddr: 0x13DA0, symBinAddr: 0xD73BE0, symSize: 0x10 }
  - { offset: 0x7CDD6C, size: 0x8, addend: 0x0, symName: '__ZNSt3__110__function6__funcIZN4onnx11GetOpSchemaINS2_15Size_Onnx_ver25EEENS2_8OpSchemaEvE3$_1NS_9allocatorIS6_EEFvRNS2_22DataPropagationContextEEE7destroyEv', symObjAddr: 0x13DB0, symBinAddr: 0xD73BF0, symSize: 0x4 }
  - { offset: 0x7CDDBB, size: 0x8, addend: 0x0, symName: '__ZNSt3__110__function6__funcIZN4onnx11GetOpSchemaINS2_15Size_Onnx_ver25EEENS2_8OpSchemaEvE3$_1NS_9allocatorIS6_EEFvRNS2_22DataPropagationContextEEE18destroy_deallocateEv', symObjAddr: 0x13DB4, symBinAddr: 0xD73BF4, symSize: 0x4 }
  - { offset: 0x7CDDEE, size: 0x8, addend: 0x0, symName: '__ZNSt3__110__function6__funcIZN4onnx11GetOpSchemaINS2_15Size_Onnx_ver25EEENS2_8OpSchemaEvE3$_1NS_9allocatorIS6_EEFvRNS2_22DataPropagationContextEEE18destroy_deallocateEv', symObjAddr: 0x13DB4, symBinAddr: 0xD73BF4, symSize: 0x4 }
  - { offset: 0x7CDE10, size: 0x8, addend: 0x0, symName: '__ZNSt3__110__function6__funcIZN4onnx11GetOpSchemaINS2_15Size_Onnx_ver25EEENS2_8OpSchemaEvE3$_1NS_9allocatorIS6_EEFvRNS2_22DataPropagationContextEEE18destroy_deallocateEv', symObjAddr: 0x13DB4, symBinAddr: 0xD73BF4, symSize: 0x4 }
  - { offset: 0x7CDE3B, size: 0x8, addend: 0x0, symName: '__ZNSt3__110__function6__funcIZN4onnx11GetOpSchemaINS2_15Size_Onnx_ver25EEENS2_8OpSchemaEvE3$_1NS_9allocatorIS6_EEFvRNS2_22DataPropagationContextEEE18destroy_deallocateEv', symObjAddr: 0x13DB4, symBinAddr: 0xD73BF4, symSize: 0x4 }
  - { offset: 0x7CDE61, size: 0x8, addend: 0x0, symName: '__ZNSt3__110__function6__funcIZN4onnx11GetOpSchemaINS2_15Size_Onnx_ver25EEENS2_8OpSchemaEvE3$_1NS_9allocatorIS6_EEFvRNS2_22DataPropagationContextEEE18destroy_deallocateEv', symObjAddr: 0x13DB4, symBinAddr: 0xD73BF4, symSize: 0x4 }
  - { offset: 0x7CDF3D, size: 0x8, addend: 0x0, symName: '__ZNSt3__110__function6__funcIZN4onnx11GetOpSchemaINS2_15Size_Onnx_ver25EEENS2_8OpSchemaEvE3$_1NS_9allocatorIS6_EEFvRNS2_22DataPropagationContextEEEclESA_', symObjAddr: 0x13DB8, symBinAddr: 0xD73BF8, symSize: 0x138 }
  - { offset: 0x7CE1B3, size: 0x8, addend: 0x0, symName: '__ZNKSt3__110__function6__funcIZN4onnx11GetOpSchemaINS2_15Size_Onnx_ver25EEENS2_8OpSchemaEvE3$_1NS_9allocatorIS6_EEFvRNS2_22DataPropagationContextEEE6targetERKSt9type_info', symObjAddr: 0x13EF0, symBinAddr: 0xD73D30, symSize: 0x64 }
  - { offset: 0x7CE266, size: 0x8, addend: 0x0, symName: '__ZNKSt3__110__function6__funcIZN4onnx11GetOpSchemaINS2_15Size_Onnx_ver25EEENS2_8OpSchemaEvE3$_1NS_9allocatorIS6_EEFvRNS2_22DataPropagationContextEEE11target_typeEv', symObjAddr: 0x13F54, symBinAddr: 0xD73D94, symSize: 0xC }
  - { offset: 0x7CE289, size: 0x8, addend: 0x0, symName: '__ZNSt3__110__function6__funcIZN4onnx11GetOpSchemaINS2_17Concat_Onnx_ver13EEENS2_8OpSchemaEvE3$_0NS_9allocatorIS6_EEFvRNS2_16InferenceContextEEED1Ev', symObjAddr: 0x13F60, symBinAddr: 0xD73DA0, symSize: 0x4 }
  - { offset: 0x7CE2B4, size: 0x8, addend: 0x0, symName: '__ZNSt3__110__function6__funcIZN4onnx11GetOpSchemaINS2_17Concat_Onnx_ver13EEENS2_8OpSchemaEvE3$_0NS_9allocatorIS6_EEFvRNS2_16InferenceContextEEED0Ev', symObjAddr: 0x13F64, symBinAddr: 0xD73DA4, symSize: 0x4 }
  - { offset: 0x7CE369, size: 0x8, addend: 0x0, symName: '__ZNKSt3__110__function6__funcIZN4onnx11GetOpSchemaINS2_17Concat_Onnx_ver13EEENS2_8OpSchemaEvE3$_0NS_9allocatorIS6_EEFvRNS2_16InferenceContextEEE7__cloneEv', symObjAddr: 0x13F68, symBinAddr: 0xD73DA8, symSize: 0x24 }
  - { offset: 0x7CE4AC, size: 0x8, addend: 0x0, symName: '__ZNKSt3__110__function6__funcIZN4onnx11GetOpSchemaINS2_17Concat_Onnx_ver13EEENS2_8OpSchemaEvE3$_0NS_9allocatorIS6_EEFvRNS2_16InferenceContextEEE7__cloneEPNS0_6__baseISB_EE', symObjAddr: 0x13F8C, symBinAddr: 0xD73DCC, symSize: 0x10 }
  - { offset: 0x7CE4E0, size: 0x8, addend: 0x0, symName: '__ZNKSt3__110__function6__funcIZN4onnx11GetOpSchemaINS2_17Concat_Onnx_ver13EEENS2_8OpSchemaEvE3$_0NS_9allocatorIS6_EEFvRNS2_16InferenceContextEEE7__cloneEPNS0_6__baseISB_EE', symObjAddr: 0x13F8C, symBinAddr: 0xD73DCC, symSize: 0x10 }
  - { offset: 0x7CE4FC, size: 0x8, addend: 0x0, symName: '__ZNKSt3__110__function6__funcIZN4onnx11GetOpSchemaINS2_17Concat_Onnx_ver13EEENS2_8OpSchemaEvE3$_0NS_9allocatorIS6_EEFvRNS2_16InferenceContextEEE7__cloneEPNS0_6__baseISB_EE', symObjAddr: 0x13F8C, symBinAddr: 0xD73DCC, symSize: 0x10 }
  - { offset: 0x7CE518, size: 0x8, addend: 0x0, symName: '__ZNSt3__110__function6__funcIZN4onnx11GetOpSchemaINS2_17Concat_Onnx_ver13EEENS2_8OpSchemaEvE3$_0NS_9allocatorIS6_EEFvRNS2_16InferenceContextEEE7destroyEv', symObjAddr: 0x13F9C, symBinAddr: 0xD73DDC, symSize: 0x4 }
  - { offset: 0x7CE567, size: 0x8, addend: 0x0, symName: '__ZNSt3__110__function6__funcIZN4onnx11GetOpSchemaINS2_17Concat_Onnx_ver13EEENS2_8OpSchemaEvE3$_0NS_9allocatorIS6_EEFvRNS2_16InferenceContextEEE18destroy_deallocateEv', symObjAddr: 0x13FA0, symBinAddr: 0xD73DE0, symSize: 0x4 }
  - { offset: 0x7CE59A, size: 0x8, addend: 0x0, symName: '__ZNSt3__110__function6__funcIZN4onnx11GetOpSchemaINS2_17Concat_Onnx_ver13EEENS2_8OpSchemaEvE3$_0NS_9allocatorIS6_EEFvRNS2_16InferenceContextEEE18destroy_deallocateEv', symObjAddr: 0x13FA0, symBinAddr: 0xD73DE0, symSize: 0x4 }
  - { offset: 0x7CE5BC, size: 0x8, addend: 0x0, symName: '__ZNSt3__110__function6__funcIZN4onnx11GetOpSchemaINS2_17Concat_Onnx_ver13EEENS2_8OpSchemaEvE3$_0NS_9allocatorIS6_EEFvRNS2_16InferenceContextEEE18destroy_deallocateEv', symObjAddr: 0x13FA0, symBinAddr: 0xD73DE0, symSize: 0x4 }
  - { offset: 0x7CE5E7, size: 0x8, addend: 0x0, symName: '__ZNSt3__110__function6__funcIZN4onnx11GetOpSchemaINS2_17Concat_Onnx_ver13EEENS2_8OpSchemaEvE3$_0NS_9allocatorIS6_EEFvRNS2_16InferenceContextEEE18destroy_deallocateEv', symObjAddr: 0x13FA0, symBinAddr: 0xD73DE0, symSize: 0x4 }
  - { offset: 0x7CE60D, size: 0x8, addend: 0x0, symName: '__ZNSt3__110__function6__funcIZN4onnx11GetOpSchemaINS2_17Concat_Onnx_ver13EEENS2_8OpSchemaEvE3$_0NS_9allocatorIS6_EEFvRNS2_16InferenceContextEEE18destroy_deallocateEv', symObjAddr: 0x13FA0, symBinAddr: 0xD73DE0, symSize: 0x4 }
  - { offset: 0x7CE7CF, size: 0x8, addend: 0x0, symName: '__ZNSt3__110__function6__funcIZN4onnx11GetOpSchemaINS2_17Concat_Onnx_ver13EEENS2_8OpSchemaEvE3$_0NS_9allocatorIS6_EEFvRNS2_16InferenceContextEEEclESA_', symObjAddr: 0x13FA4, symBinAddr: 0xD73DE4, symSize: 0x718 }
  - { offset: 0x7CFB0F, size: 0x8, addend: 0x0, symName: '__ZNKSt3__110__function6__funcIZN4onnx11GetOpSchemaINS2_17Concat_Onnx_ver13EEENS2_8OpSchemaEvE3$_0NS_9allocatorIS6_EEFvRNS2_16InferenceContextEEE6targetERKSt9type_info', symObjAddr: 0x146BC, symBinAddr: 0xD744FC, symSize: 0x64 }
  - { offset: 0x7CFBC2, size: 0x8, addend: 0x0, symName: '__ZNKSt3__110__function6__funcIZN4onnx11GetOpSchemaINS2_17Concat_Onnx_ver13EEENS2_8OpSchemaEvE3$_0NS_9allocatorIS6_EEFvRNS2_16InferenceContextEEE11target_typeEv', symObjAddr: 0x14720, symBinAddr: 0xD74560, symSize: 0xC }
  - { offset: 0x7CFC30, size: 0x8, addend: 0x0, symName: '__ZNSt3__110__function6__funcIZN4onnx11GetOpSchemaINS2_17Concat_Onnx_ver13EEENS2_8OpSchemaEvE3$_1NS_9allocatorIS6_EEFvRNS2_22DataPropagationContextEEED1Ev', symObjAddr: 0x15178, symBinAddr: 0xD747C0, symSize: 0x4 }
  - { offset: 0x7CFC5B, size: 0x8, addend: 0x0, symName: '__ZNSt3__110__function6__funcIZN4onnx11GetOpSchemaINS2_17Concat_Onnx_ver13EEENS2_8OpSchemaEvE3$_1NS_9allocatorIS6_EEFvRNS2_22DataPropagationContextEEED0Ev', symObjAddr: 0x1517C, symBinAddr: 0xD747C4, symSize: 0x4 }
  - { offset: 0x7CFD10, size: 0x8, addend: 0x0, symName: '__ZNKSt3__110__function6__funcIZN4onnx11GetOpSchemaINS2_17Concat_Onnx_ver13EEENS2_8OpSchemaEvE3$_1NS_9allocatorIS6_EEFvRNS2_22DataPropagationContextEEE7__cloneEv', symObjAddr: 0x15180, symBinAddr: 0xD747C8, symSize: 0x24 }
  - { offset: 0x7CFE53, size: 0x8, addend: 0x0, symName: '__ZNKSt3__110__function6__funcIZN4onnx11GetOpSchemaINS2_17Concat_Onnx_ver13EEENS2_8OpSchemaEvE3$_1NS_9allocatorIS6_EEFvRNS2_22DataPropagationContextEEE7__cloneEPNS0_6__baseISB_EE', symObjAddr: 0x151A4, symBinAddr: 0xD747EC, symSize: 0x10 }
  - { offset: 0x7CFE87, size: 0x8, addend: 0x0, symName: '__ZNKSt3__110__function6__funcIZN4onnx11GetOpSchemaINS2_17Concat_Onnx_ver13EEENS2_8OpSchemaEvE3$_1NS_9allocatorIS6_EEFvRNS2_22DataPropagationContextEEE7__cloneEPNS0_6__baseISB_EE', symObjAddr: 0x151A4, symBinAddr: 0xD747EC, symSize: 0x10 }
  - { offset: 0x7CFEA3, size: 0x8, addend: 0x0, symName: '__ZNKSt3__110__function6__funcIZN4onnx11GetOpSchemaINS2_17Concat_Onnx_ver13EEENS2_8OpSchemaEvE3$_1NS_9allocatorIS6_EEFvRNS2_22DataPropagationContextEEE7__cloneEPNS0_6__baseISB_EE', symObjAddr: 0x151A4, symBinAddr: 0xD747EC, symSize: 0x10 }
  - { offset: 0x7CFEBF, size: 0x8, addend: 0x0, symName: '__ZNSt3__110__function6__funcIZN4onnx11GetOpSchemaINS2_17Concat_Onnx_ver13EEENS2_8OpSchemaEvE3$_1NS_9allocatorIS6_EEFvRNS2_22DataPropagationContextEEE7destroyEv', symObjAddr: 0x151B4, symBinAddr: 0xD747FC, symSize: 0x4 }
  - { offset: 0x7CFF0E, size: 0x8, addend: 0x0, symName: '__ZNSt3__110__function6__funcIZN4onnx11GetOpSchemaINS2_17Concat_Onnx_ver13EEENS2_8OpSchemaEvE3$_1NS_9allocatorIS6_EEFvRNS2_22DataPropagationContextEEE18destroy_deallocateEv', symObjAddr: 0x151B8, symBinAddr: 0xD74800, symSize: 0x4 }
  - { offset: 0x7CFF41, size: 0x8, addend: 0x0, symName: '__ZNSt3__110__function6__funcIZN4onnx11GetOpSchemaINS2_17Concat_Onnx_ver13EEENS2_8OpSchemaEvE3$_1NS_9allocatorIS6_EEFvRNS2_22DataPropagationContextEEE18destroy_deallocateEv', symObjAddr: 0x151B8, symBinAddr: 0xD74800, symSize: 0x4 }
  - { offset: 0x7CFF63, size: 0x8, addend: 0x0, symName: '__ZNSt3__110__function6__funcIZN4onnx11GetOpSchemaINS2_17Concat_Onnx_ver13EEENS2_8OpSchemaEvE3$_1NS_9allocatorIS6_EEFvRNS2_22DataPropagationContextEEE18destroy_deallocateEv', symObjAddr: 0x151B8, symBinAddr: 0xD74800, symSize: 0x4 }
  - { offset: 0x7CFF8E, size: 0x8, addend: 0x0, symName: '__ZNSt3__110__function6__funcIZN4onnx11GetOpSchemaINS2_17Concat_Onnx_ver13EEENS2_8OpSchemaEvE3$_1NS_9allocatorIS6_EEFvRNS2_22DataPropagationContextEEE18destroy_deallocateEv', symObjAddr: 0x151B8, symBinAddr: 0xD74800, symSize: 0x4 }
  - { offset: 0x7CFFB4, size: 0x8, addend: 0x0, symName: '__ZNSt3__110__function6__funcIZN4onnx11GetOpSchemaINS2_17Concat_Onnx_ver13EEENS2_8OpSchemaEvE3$_1NS_9allocatorIS6_EEFvRNS2_22DataPropagationContextEEE18destroy_deallocateEv', symObjAddr: 0x151B8, symBinAddr: 0xD74800, symSize: 0x4 }
  - { offset: 0x7D0094, size: 0x8, addend: 0x0, symName: '__ZNSt3__110__function6__funcIZN4onnx11GetOpSchemaINS2_17Concat_Onnx_ver13EEENS2_8OpSchemaEvE3$_1NS_9allocatorIS6_EEFvRNS2_22DataPropagationContextEEEclESA_', symObjAddr: 0x151BC, symBinAddr: 0xD74804, symSize: 0x1BC }
  - { offset: 0x7D0448, size: 0x8, addend: 0x0, symName: '__ZNKSt3__110__function6__funcIZN4onnx11GetOpSchemaINS2_17Concat_Onnx_ver13EEENS2_8OpSchemaEvE3$_1NS_9allocatorIS6_EEFvRNS2_22DataPropagationContextEEE6targetERKSt9type_info', symObjAddr: 0x15378, symBinAddr: 0xD749C0, symSize: 0x64 }
  - { offset: 0x7D04FB, size: 0x8, addend: 0x0, symName: '__ZNKSt3__110__function6__funcIZN4onnx11GetOpSchemaINS2_17Concat_Onnx_ver13EEENS2_8OpSchemaEvE3$_1NS_9allocatorIS6_EEFvRNS2_22DataPropagationContextEEE11target_typeEv', symObjAddr: 0x153DC, symBinAddr: 0xD74A24, symSize: 0xC }
  - { offset: 0x7D051E, size: 0x8, addend: 0x0, symName: '__ZNSt3__110__function6__funcIZN4onnx11GetOpSchemaINS2_16Split_Onnx_ver18EEENS2_8OpSchemaEvE3$_0NS_9allocatorIS6_EEFvRNS2_16InferenceContextEEED1Ev', symObjAddr: 0x1564C, symBinAddr: 0xD74C94, symSize: 0x4 }
  - { offset: 0x7D0549, size: 0x8, addend: 0x0, symName: '__ZNSt3__110__function6__funcIZN4onnx11GetOpSchemaINS2_16Split_Onnx_ver18EEENS2_8OpSchemaEvE3$_0NS_9allocatorIS6_EEFvRNS2_16InferenceContextEEED0Ev', symObjAddr: 0x15650, symBinAddr: 0xD74C98, symSize: 0x4 }
  - { offset: 0x7D05FE, size: 0x8, addend: 0x0, symName: '__ZNKSt3__110__function6__funcIZN4onnx11GetOpSchemaINS2_16Split_Onnx_ver18EEENS2_8OpSchemaEvE3$_0NS_9allocatorIS6_EEFvRNS2_16InferenceContextEEE7__cloneEv', symObjAddr: 0x15654, symBinAddr: 0xD74C9C, symSize: 0x24 }
  - { offset: 0x7D0741, size: 0x8, addend: 0x0, symName: '__ZNKSt3__110__function6__funcIZN4onnx11GetOpSchemaINS2_16Split_Onnx_ver18EEENS2_8OpSchemaEvE3$_0NS_9allocatorIS6_EEFvRNS2_16InferenceContextEEE7__cloneEPNS0_6__baseISB_EE', symObjAddr: 0x15678, symBinAddr: 0xD74CC0, symSize: 0x10 }
  - { offset: 0x7D0775, size: 0x8, addend: 0x0, symName: '__ZNKSt3__110__function6__funcIZN4onnx11GetOpSchemaINS2_16Split_Onnx_ver18EEENS2_8OpSchemaEvE3$_0NS_9allocatorIS6_EEFvRNS2_16InferenceContextEEE7__cloneEPNS0_6__baseISB_EE', symObjAddr: 0x15678, symBinAddr: 0xD74CC0, symSize: 0x10 }
  - { offset: 0x7D0791, size: 0x8, addend: 0x0, symName: '__ZNKSt3__110__function6__funcIZN4onnx11GetOpSchemaINS2_16Split_Onnx_ver18EEENS2_8OpSchemaEvE3$_0NS_9allocatorIS6_EEFvRNS2_16InferenceContextEEE7__cloneEPNS0_6__baseISB_EE', symObjAddr: 0x15678, symBinAddr: 0xD74CC0, symSize: 0x10 }
  - { offset: 0x7D07AD, size: 0x8, addend: 0x0, symName: '__ZNSt3__110__function6__funcIZN4onnx11GetOpSchemaINS2_16Split_Onnx_ver18EEENS2_8OpSchemaEvE3$_0NS_9allocatorIS6_EEFvRNS2_16InferenceContextEEE7destroyEv', symObjAddr: 0x15688, symBinAddr: 0xD74CD0, symSize: 0x4 }
  - { offset: 0x7D07FC, size: 0x8, addend: 0x0, symName: '__ZNSt3__110__function6__funcIZN4onnx11GetOpSchemaINS2_16Split_Onnx_ver18EEENS2_8OpSchemaEvE3$_0NS_9allocatorIS6_EEFvRNS2_16InferenceContextEEE18destroy_deallocateEv', symObjAddr: 0x1568C, symBinAddr: 0xD74CD4, symSize: 0x4 }
  - { offset: 0x7D082F, size: 0x8, addend: 0x0, symName: '__ZNSt3__110__function6__funcIZN4onnx11GetOpSchemaINS2_16Split_Onnx_ver18EEENS2_8OpSchemaEvE3$_0NS_9allocatorIS6_EEFvRNS2_16InferenceContextEEE18destroy_deallocateEv', symObjAddr: 0x1568C, symBinAddr: 0xD74CD4, symSize: 0x4 }
  - { offset: 0x7D0851, size: 0x8, addend: 0x0, symName: '__ZNSt3__110__function6__funcIZN4onnx11GetOpSchemaINS2_16Split_Onnx_ver18EEENS2_8OpSchemaEvE3$_0NS_9allocatorIS6_EEFvRNS2_16InferenceContextEEE18destroy_deallocateEv', symObjAddr: 0x1568C, symBinAddr: 0xD74CD4, symSize: 0x4 }
  - { offset: 0x7D087C, size: 0x8, addend: 0x0, symName: '__ZNSt3__110__function6__funcIZN4onnx11GetOpSchemaINS2_16Split_Onnx_ver18EEENS2_8OpSchemaEvE3$_0NS_9allocatorIS6_EEFvRNS2_16InferenceContextEEE18destroy_deallocateEv', symObjAddr: 0x1568C, symBinAddr: 0xD74CD4, symSize: 0x4 }
  - { offset: 0x7D08A2, size: 0x8, addend: 0x0, symName: '__ZNSt3__110__function6__funcIZN4onnx11GetOpSchemaINS2_16Split_Onnx_ver18EEENS2_8OpSchemaEvE3$_0NS_9allocatorIS6_EEFvRNS2_16InferenceContextEEE18destroy_deallocateEv', symObjAddr: 0x1568C, symBinAddr: 0xD74CD4, symSize: 0x4 }
  - { offset: 0x7D0F20, size: 0x8, addend: 0x0, symName: '__ZNSt3__110__function6__funcIZN4onnx11GetOpSchemaINS2_16Split_Onnx_ver18EEENS2_8OpSchemaEvE3$_0NS_9allocatorIS6_EEFvRNS2_16InferenceContextEEEclESA_', symObjAddr: 0x15690, symBinAddr: 0xD74CD8, symSize: 0xCA8 }
  - { offset: 0x7D3C81, size: 0x8, addend: 0x0, symName: '__ZNSt3__110__function6__funcIZN4onnx11GetOpSchemaINS2_16Slice_Onnx_ver13EEENS2_8OpSchemaEvE3$_0NS_9allocatorIS6_EEFvRNS2_16InferenceContextEEED1Ev', symObjAddr: 0x16FD4, symBinAddr: 0xD76274, symSize: 0x4 }
  - { offset: 0x7D3C8C, size: 0x8, addend: 0x0, symName: '__ZNKSt3__110__function6__funcIZN4onnx11GetOpSchemaINS2_16Split_Onnx_ver18EEENS2_8OpSchemaEvE3$_0NS_9allocatorIS6_EEFvRNS2_16InferenceContextEEE6targetERKSt9type_info', symObjAddr: 0x16338, symBinAddr: 0xD75980, symSize: 0x64 }
  - { offset: 0x7D3D3F, size: 0x8, addend: 0x0, symName: '__ZNKSt3__110__function6__funcIZN4onnx11GetOpSchemaINS2_16Split_Onnx_ver18EEENS2_8OpSchemaEvE3$_0NS_9allocatorIS6_EEFvRNS2_16InferenceContextEEE11target_typeEv', symObjAddr: 0x1639C, symBinAddr: 0xD759E4, symSize: 0xC }
  - { offset: 0x7D3F72, size: 0x8, addend: 0x0, symName: '__ZNSt3__110__function6__funcIZN4onnx11GetOpSchemaINS2_16Slice_Onnx_ver13EEENS2_8OpSchemaEvE3$_0NS_9allocatorIS6_EEFvRNS2_16InferenceContextEEED1Ev', symObjAddr: 0x16FD4, symBinAddr: 0xD76274, symSize: 0x4 }
  - { offset: 0x7D3F9D, size: 0x8, addend: 0x0, symName: '__ZNSt3__110__function6__funcIZN4onnx11GetOpSchemaINS2_16Slice_Onnx_ver13EEENS2_8OpSchemaEvE3$_0NS_9allocatorIS6_EEFvRNS2_16InferenceContextEEED0Ev', symObjAddr: 0x16FD8, symBinAddr: 0xD76278, symSize: 0x4 }
  - { offset: 0x7D4052, size: 0x8, addend: 0x0, symName: '__ZNKSt3__110__function6__funcIZN4onnx11GetOpSchemaINS2_16Slice_Onnx_ver13EEENS2_8OpSchemaEvE3$_0NS_9allocatorIS6_EEFvRNS2_16InferenceContextEEE7__cloneEv', symObjAddr: 0x16FDC, symBinAddr: 0xD7627C, symSize: 0x24 }
  - { offset: 0x7D4195, size: 0x8, addend: 0x0, symName: '__ZNKSt3__110__function6__funcIZN4onnx11GetOpSchemaINS2_16Slice_Onnx_ver13EEENS2_8OpSchemaEvE3$_0NS_9allocatorIS6_EEFvRNS2_16InferenceContextEEE7__cloneEPNS0_6__baseISB_EE', symObjAddr: 0x17000, symBinAddr: 0xD762A0, symSize: 0x10 }
  - { offset: 0x7D41C9, size: 0x8, addend: 0x0, symName: '__ZNKSt3__110__function6__funcIZN4onnx11GetOpSchemaINS2_16Slice_Onnx_ver13EEENS2_8OpSchemaEvE3$_0NS_9allocatorIS6_EEFvRNS2_16InferenceContextEEE7__cloneEPNS0_6__baseISB_EE', symObjAddr: 0x17000, symBinAddr: 0xD762A0, symSize: 0x10 }
  - { offset: 0x7D41E5, size: 0x8, addend: 0x0, symName: '__ZNKSt3__110__function6__funcIZN4onnx11GetOpSchemaINS2_16Slice_Onnx_ver13EEENS2_8OpSchemaEvE3$_0NS_9allocatorIS6_EEFvRNS2_16InferenceContextEEE7__cloneEPNS0_6__baseISB_EE', symObjAddr: 0x17000, symBinAddr: 0xD762A0, symSize: 0x10 }
  - { offset: 0x7D4201, size: 0x8, addend: 0x0, symName: '__ZNSt3__110__function6__funcIZN4onnx11GetOpSchemaINS2_16Slice_Onnx_ver13EEENS2_8OpSchemaEvE3$_0NS_9allocatorIS6_EEFvRNS2_16InferenceContextEEE7destroyEv', symObjAddr: 0x17010, symBinAddr: 0xD762B0, symSize: 0x4 }
  - { offset: 0x7D4250, size: 0x8, addend: 0x0, symName: '__ZNSt3__110__function6__funcIZN4onnx11GetOpSchemaINS2_16Slice_Onnx_ver13EEENS2_8OpSchemaEvE3$_0NS_9allocatorIS6_EEFvRNS2_16InferenceContextEEE18destroy_deallocateEv', symObjAddr: 0x17014, symBinAddr: 0xD762B4, symSize: 0x4 }
  - { offset: 0x7D4283, size: 0x8, addend: 0x0, symName: '__ZNSt3__110__function6__funcIZN4onnx11GetOpSchemaINS2_16Slice_Onnx_ver13EEENS2_8OpSchemaEvE3$_0NS_9allocatorIS6_EEFvRNS2_16InferenceContextEEE18destroy_deallocateEv', symObjAddr: 0x17014, symBinAddr: 0xD762B4, symSize: 0x4 }
  - { offset: 0x7D42A5, size: 0x8, addend: 0x0, symName: '__ZNSt3__110__function6__funcIZN4onnx11GetOpSchemaINS2_16Slice_Onnx_ver13EEENS2_8OpSchemaEvE3$_0NS_9allocatorIS6_EEFvRNS2_16InferenceContextEEE18destroy_deallocateEv', symObjAddr: 0x17014, symBinAddr: 0xD762B4, symSize: 0x4 }
  - { offset: 0x7D42D0, size: 0x8, addend: 0x0, symName: '__ZNSt3__110__function6__funcIZN4onnx11GetOpSchemaINS2_16Slice_Onnx_ver13EEENS2_8OpSchemaEvE3$_0NS_9allocatorIS6_EEFvRNS2_16InferenceContextEEE18destroy_deallocateEv', symObjAddr: 0x17014, symBinAddr: 0xD762B4, symSize: 0x4 }
  - { offset: 0x7D42F6, size: 0x8, addend: 0x0, symName: '__ZNSt3__110__function6__funcIZN4onnx11GetOpSchemaINS2_16Slice_Onnx_ver13EEENS2_8OpSchemaEvE3$_0NS_9allocatorIS6_EEFvRNS2_16InferenceContextEEE18destroy_deallocateEv', symObjAddr: 0x17014, symBinAddr: 0xD762B4, symSize: 0x4 }
  - { offset: 0x7D4717, size: 0x8, addend: 0x0, symName: '__ZNSt3__110__function6__funcIZN4onnx11GetOpSchemaINS2_16Slice_Onnx_ver13EEENS2_8OpSchemaEvE3$_0NS_9allocatorIS6_EEFvRNS2_16InferenceContextEEEclESA_', symObjAddr: 0x17018, symBinAddr: 0xD762B8, symSize: 0x10CC }
  - { offset: 0x7D7947, size: 0x8, addend: 0x0, symName: '__ZZZN4onnx11GetOpSchemaINS_16Slice_Onnx_ver13EEENS_8OpSchemaEvENK3$_0clERNS_16InferenceContextEENKUlPKNS_11TensorProtoEE_clES8_', symObjAddr: 0x18330, symBinAddr: 0xD773F4, symSize: 0x1A8 }
  - { offset: 0x7D7F52, size: 0x8, addend: 0x0, symName: '__ZNKSt3__110__function6__funcIZN4onnx11GetOpSchemaINS2_16Slice_Onnx_ver13EEENS2_8OpSchemaEvE3$_0NS_9allocatorIS6_EEFvRNS2_16InferenceContextEEE6targetERKSt9type_info', symObjAddr: 0x180E4, symBinAddr: 0xD77384, symSize: 0x64 }
  - { offset: 0x7D8005, size: 0x8, addend: 0x0, symName: '__ZNKSt3__110__function6__funcIZN4onnx11GetOpSchemaINS2_16Slice_Onnx_ver13EEENS2_8OpSchemaEvE3$_0NS_9allocatorIS6_EEFvRNS2_16InferenceContextEEE11target_typeEv', symObjAddr: 0x18148, symBinAddr: 0xD773E8, symSize: 0xC }
  - { offset: 0x7D8C5D, size: 0x8, addend: 0x0, symName: __ZN4onnx10MakeStringIJA23_cA24_cxA19_ciA3_ciA2_cEEENSt3__112basic_stringIcNS6_11char_traitsIcEENS6_9allocatorIcEEEEDpRKT_, symObjAddr: 0x19458, symBinAddr: 0xD77C48, symSize: 0x270 }
  - { offset: 0x7D90C7, size: 0x8, addend: 0x0, symName: '__ZNSt3__110__function6__funcIZN4onnx11GetOpSchemaINS2_16Slice_Onnx_ver13EEENS2_8OpSchemaEvE3$_1NS_9allocatorIS6_EEFvRNS2_22DataPropagationContextEEED1Ev', symObjAddr: 0x19AB4, symBinAddr: 0xD780C8, symSize: 0x4 }
  - { offset: 0x7D90F2, size: 0x8, addend: 0x0, symName: '__ZNSt3__110__function6__funcIZN4onnx11GetOpSchemaINS2_16Slice_Onnx_ver13EEENS2_8OpSchemaEvE3$_1NS_9allocatorIS6_EEFvRNS2_22DataPropagationContextEEED0Ev', symObjAddr: 0x19AB8, symBinAddr: 0xD780CC, symSize: 0x4 }
  - { offset: 0x7D91A7, size: 0x8, addend: 0x0, symName: '__ZNKSt3__110__function6__funcIZN4onnx11GetOpSchemaINS2_16Slice_Onnx_ver13EEENS2_8OpSchemaEvE3$_1NS_9allocatorIS6_EEFvRNS2_22DataPropagationContextEEE7__cloneEv', symObjAddr: 0x19ABC, symBinAddr: 0xD780D0, symSize: 0x24 }
  - { offset: 0x7D92EA, size: 0x8, addend: 0x0, symName: '__ZNKSt3__110__function6__funcIZN4onnx11GetOpSchemaINS2_16Slice_Onnx_ver13EEENS2_8OpSchemaEvE3$_1NS_9allocatorIS6_EEFvRNS2_22DataPropagationContextEEE7__cloneEPNS0_6__baseISB_EE', symObjAddr: 0x19AE0, symBinAddr: 0xD780F4, symSize: 0x10 }
  - { offset: 0x7D931E, size: 0x8, addend: 0x0, symName: '__ZNKSt3__110__function6__funcIZN4onnx11GetOpSchemaINS2_16Slice_Onnx_ver13EEENS2_8OpSchemaEvE3$_1NS_9allocatorIS6_EEFvRNS2_22DataPropagationContextEEE7__cloneEPNS0_6__baseISB_EE', symObjAddr: 0x19AE0, symBinAddr: 0xD780F4, symSize: 0x10 }
  - { offset: 0x7D933A, size: 0x8, addend: 0x0, symName: '__ZNKSt3__110__function6__funcIZN4onnx11GetOpSchemaINS2_16Slice_Onnx_ver13EEENS2_8OpSchemaEvE3$_1NS_9allocatorIS6_EEFvRNS2_22DataPropagationContextEEE7__cloneEPNS0_6__baseISB_EE', symObjAddr: 0x19AE0, symBinAddr: 0xD780F4, symSize: 0x10 }
  - { offset: 0x7D9356, size: 0x8, addend: 0x0, symName: '__ZNSt3__110__function6__funcIZN4onnx11GetOpSchemaINS2_16Slice_Onnx_ver13EEENS2_8OpSchemaEvE3$_1NS_9allocatorIS6_EEFvRNS2_22DataPropagationContextEEE7destroyEv', symObjAddr: 0x19AF0, symBinAddr: 0xD78104, symSize: 0x4 }
  - { offset: 0x7D93A5, size: 0x8, addend: 0x0, symName: '__ZNSt3__110__function6__funcIZN4onnx11GetOpSchemaINS2_16Slice_Onnx_ver13EEENS2_8OpSchemaEvE3$_1NS_9allocatorIS6_EEFvRNS2_22DataPropagationContextEEE18destroy_deallocateEv', symObjAddr: 0x19AF4, symBinAddr: 0xD78108, symSize: 0x4 }
  - { offset: 0x7D93D8, size: 0x8, addend: 0x0, symName: '__ZNSt3__110__function6__funcIZN4onnx11GetOpSchemaINS2_16Slice_Onnx_ver13EEENS2_8OpSchemaEvE3$_1NS_9allocatorIS6_EEFvRNS2_22DataPropagationContextEEE18destroy_deallocateEv', symObjAddr: 0x19AF4, symBinAddr: 0xD78108, symSize: 0x4 }
  - { offset: 0x7D93FA, size: 0x8, addend: 0x0, symName: '__ZNSt3__110__function6__funcIZN4onnx11GetOpSchemaINS2_16Slice_Onnx_ver13EEENS2_8OpSchemaEvE3$_1NS_9allocatorIS6_EEFvRNS2_22DataPropagationContextEEE18destroy_deallocateEv', symObjAddr: 0x19AF4, symBinAddr: 0xD78108, symSize: 0x4 }
  - { offset: 0x7D9425, size: 0x8, addend: 0x0, symName: '__ZNSt3__110__function6__funcIZN4onnx11GetOpSchemaINS2_16Slice_Onnx_ver13EEENS2_8OpSchemaEvE3$_1NS_9allocatorIS6_EEFvRNS2_22DataPropagationContextEEE18destroy_deallocateEv', symObjAddr: 0x19AF4, symBinAddr: 0xD78108, symSize: 0x4 }
  - { offset: 0x7D944B, size: 0x8, addend: 0x0, symName: '__ZNSt3__110__function6__funcIZN4onnx11GetOpSchemaINS2_16Slice_Onnx_ver13EEENS2_8OpSchemaEvE3$_1NS_9allocatorIS6_EEFvRNS2_22DataPropagationContextEEE18destroy_deallocateEv', symObjAddr: 0x19AF4, symBinAddr: 0xD78108, symSize: 0x4 }
  - { offset: 0x7D9597, size: 0x8, addend: 0x0, symName: '__ZNSt3__110__function6__funcIZN4onnx11GetOpSchemaINS2_16Slice_Onnx_ver13EEENS2_8OpSchemaEvE3$_1NS_9allocatorIS6_EEFvRNS2_22DataPropagationContextEEEclESA_', symObjAddr: 0x19AF8, symBinAddr: 0xD7810C, symSize: 0x484 }
  - { offset: 0x7DA4A9, size: 0x8, addend: 0x0, symName: '__ZNKSt3__110__function6__funcIZN4onnx11GetOpSchemaINS2_16Slice_Onnx_ver13EEENS2_8OpSchemaEvE3$_1NS_9allocatorIS6_EEFvRNS2_22DataPropagationContextEEE6targetERKSt9type_info', symObjAddr: 0x19F7C, symBinAddr: 0xD78590, symSize: 0x64 }
  - { offset: 0x7DA55C, size: 0x8, addend: 0x0, symName: '__ZNKSt3__110__function6__funcIZN4onnx11GetOpSchemaINS2_16Slice_Onnx_ver13EEENS2_8OpSchemaEvE3$_1NS_9allocatorIS6_EEFvRNS2_22DataPropagationContextEEE11target_typeEv', symObjAddr: 0x19FE0, symBinAddr: 0xD785F4, symSize: 0xC }
  - { offset: 0x7DA598, size: 0x8, addend: 0x0, symName: '__ZNSt3__110__function6__funcIZN4onnx11GetOpSchemaINS2_20Transpose_Onnx_ver25EEENS2_8OpSchemaEvE3$_0NS_9allocatorIS6_EEFvRNS2_16InferenceContextEEED1Ev', symObjAddr: 0x1A230, symBinAddr: 0xD78844, symSize: 0x4 }
  - { offset: 0x7DA5C3, size: 0x8, addend: 0x0, symName: '__ZNSt3__110__function6__funcIZN4onnx11GetOpSchemaINS2_20Transpose_Onnx_ver25EEENS2_8OpSchemaEvE3$_0NS_9allocatorIS6_EEFvRNS2_16InferenceContextEEED0Ev', symObjAddr: 0x1A234, symBinAddr: 0xD78848, symSize: 0x4 }
  - { offset: 0x7DA678, size: 0x8, addend: 0x0, symName: '__ZNKSt3__110__function6__funcIZN4onnx11GetOpSchemaINS2_20Transpose_Onnx_ver25EEENS2_8OpSchemaEvE3$_0NS_9allocatorIS6_EEFvRNS2_16InferenceContextEEE7__cloneEv', symObjAddr: 0x1A238, symBinAddr: 0xD7884C, symSize: 0x24 }
  - { offset: 0x7DA7BB, size: 0x8, addend: 0x0, symName: '__ZNKSt3__110__function6__funcIZN4onnx11GetOpSchemaINS2_20Transpose_Onnx_ver25EEENS2_8OpSchemaEvE3$_0NS_9allocatorIS6_EEFvRNS2_16InferenceContextEEE7__cloneEPNS0_6__baseISB_EE', symObjAddr: 0x1A25C, symBinAddr: 0xD78870, symSize: 0x10 }
  - { offset: 0x7DA7EF, size: 0x8, addend: 0x0, symName: '__ZNKSt3__110__function6__funcIZN4onnx11GetOpSchemaINS2_20Transpose_Onnx_ver25EEENS2_8OpSchemaEvE3$_0NS_9allocatorIS6_EEFvRNS2_16InferenceContextEEE7__cloneEPNS0_6__baseISB_EE', symObjAddr: 0x1A25C, symBinAddr: 0xD78870, symSize: 0x10 }
  - { offset: 0x7DA80B, size: 0x8, addend: 0x0, symName: '__ZNKSt3__110__function6__funcIZN4onnx11GetOpSchemaINS2_20Transpose_Onnx_ver25EEENS2_8OpSchemaEvE3$_0NS_9allocatorIS6_EEFvRNS2_16InferenceContextEEE7__cloneEPNS0_6__baseISB_EE', symObjAddr: 0x1A25C, symBinAddr: 0xD78870, symSize: 0x10 }
  - { offset: 0x7DA827, size: 0x8, addend: 0x0, symName: '__ZNSt3__110__function6__funcIZN4onnx11GetOpSchemaINS2_20Transpose_Onnx_ver25EEENS2_8OpSchemaEvE3$_0NS_9allocatorIS6_EEFvRNS2_16InferenceContextEEE7destroyEv', symObjAddr: 0x1A26C, symBinAddr: 0xD78880, symSize: 0x4 }
  - { offset: 0x7DA876, size: 0x8, addend: 0x0, symName: '__ZNSt3__110__function6__funcIZN4onnx11GetOpSchemaINS2_20Transpose_Onnx_ver25EEENS2_8OpSchemaEvE3$_0NS_9allocatorIS6_EEFvRNS2_16InferenceContextEEE18destroy_deallocateEv', symObjAddr: 0x1A270, symBinAddr: 0xD78884, symSize: 0x4 }
  - { offset: 0x7DA8A9, size: 0x8, addend: 0x0, symName: '__ZNSt3__110__function6__funcIZN4onnx11GetOpSchemaINS2_20Transpose_Onnx_ver25EEENS2_8OpSchemaEvE3$_0NS_9allocatorIS6_EEFvRNS2_16InferenceContextEEE18destroy_deallocateEv', symObjAddr: 0x1A270, symBinAddr: 0xD78884, symSize: 0x4 }
  - { offset: 0x7DA8CB, size: 0x8, addend: 0x0, symName: '__ZNSt3__110__function6__funcIZN4onnx11GetOpSchemaINS2_20Transpose_Onnx_ver25EEENS2_8OpSchemaEvE3$_0NS_9allocatorIS6_EEFvRNS2_16InferenceContextEEE18destroy_deallocateEv', symObjAddr: 0x1A270, symBinAddr: 0xD78884, symSize: 0x4 }
  - { offset: 0x7DA8F6, size: 0x8, addend: 0x0, symName: '__ZNSt3__110__function6__funcIZN4onnx11GetOpSchemaINS2_20Transpose_Onnx_ver25EEENS2_8OpSchemaEvE3$_0NS_9allocatorIS6_EEFvRNS2_16InferenceContextEEE18destroy_deallocateEv', symObjAddr: 0x1A270, symBinAddr: 0xD78884, symSize: 0x4 }
  - { offset: 0x7DA91C, size: 0x8, addend: 0x0, symName: '__ZNSt3__110__function6__funcIZN4onnx11GetOpSchemaINS2_20Transpose_Onnx_ver25EEENS2_8OpSchemaEvE3$_0NS_9allocatorIS6_EEFvRNS2_16InferenceContextEEE18destroy_deallocateEv', symObjAddr: 0x1A270, symBinAddr: 0xD78884, symSize: 0x4 }
  - { offset: 0x7DACA3, size: 0x8, addend: 0x0, symName: '__ZNSt3__110__function6__funcIZN4onnx11GetOpSchemaINS2_20Transpose_Onnx_ver25EEENS2_8OpSchemaEvE3$_0NS_9allocatorIS6_EEFvRNS2_16InferenceContextEEEclESA_', symObjAddr: 0x1A274, symBinAddr: 0xD78888, symSize: 0x810 }
  - { offset: 0x7DD548, size: 0x8, addend: 0x0, symName: '__ZNKSt3__110__function6__funcIZN4onnx11GetOpSchemaINS2_20Transpose_Onnx_ver25EEENS2_8OpSchemaEvE3$_0NS_9allocatorIS6_EEFvRNS2_16InferenceContextEEE6targetERKSt9type_info', symObjAddr: 0x1AA84, symBinAddr: 0xD79098, symSize: 0x64 }
  - { offset: 0x7DD5FB, size: 0x8, addend: 0x0, symName: '__ZNKSt3__110__function6__funcIZN4onnx11GetOpSchemaINS2_20Transpose_Onnx_ver25EEENS2_8OpSchemaEvE3$_0NS_9allocatorIS6_EEFvRNS2_16InferenceContextEEE11target_typeEv', symObjAddr: 0x1AAE8, symBinAddr: 0xD790FC, symSize: 0xC }
  - { offset: 0x7DD785, size: 0x8, addend: 0x0, symName: '__ZNSt3__110__function6__funcIZN4onnx11GetOpSchemaINS2_18Scatter_Onnx_ver11EEENS2_8OpSchemaEvE3$_0NS_9allocatorIS6_EEFvRNS2_16InferenceContextEEED1Ev', symObjAddr: 0x1C59C, symBinAddr: 0xD7A000, symSize: 0x4 }
  - { offset: 0x7DD7B0, size: 0x8, addend: 0x0, symName: '__ZNSt3__110__function6__funcIZN4onnx11GetOpSchemaINS2_18Scatter_Onnx_ver11EEENS2_8OpSchemaEvE3$_0NS_9allocatorIS6_EEFvRNS2_16InferenceContextEEED0Ev', symObjAddr: 0x1C5A0, symBinAddr: 0xD7A004, symSize: 0x4 }
  - { offset: 0x7DD865, size: 0x8, addend: 0x0, symName: '__ZNKSt3__110__function6__funcIZN4onnx11GetOpSchemaINS2_18Scatter_Onnx_ver11EEENS2_8OpSchemaEvE3$_0NS_9allocatorIS6_EEFvRNS2_16InferenceContextEEE7__cloneEv', symObjAddr: 0x1C5A4, symBinAddr: 0xD7A008, symSize: 0x24 }
  - { offset: 0x7DD9A8, size: 0x8, addend: 0x0, symName: '__ZNKSt3__110__function6__funcIZN4onnx11GetOpSchemaINS2_18Scatter_Onnx_ver11EEENS2_8OpSchemaEvE3$_0NS_9allocatorIS6_EEFvRNS2_16InferenceContextEEE7__cloneEPNS0_6__baseISB_EE', symObjAddr: 0x1C5C8, symBinAddr: 0xD7A02C, symSize: 0x10 }
  - { offset: 0x7DD9DC, size: 0x8, addend: 0x0, symName: '__ZNKSt3__110__function6__funcIZN4onnx11GetOpSchemaINS2_18Scatter_Onnx_ver11EEENS2_8OpSchemaEvE3$_0NS_9allocatorIS6_EEFvRNS2_16InferenceContextEEE7__cloneEPNS0_6__baseISB_EE', symObjAddr: 0x1C5C8, symBinAddr: 0xD7A02C, symSize: 0x10 }
  - { offset: 0x7DD9F8, size: 0x8, addend: 0x0, symName: '__ZNKSt3__110__function6__funcIZN4onnx11GetOpSchemaINS2_18Scatter_Onnx_ver11EEENS2_8OpSchemaEvE3$_0NS_9allocatorIS6_EEFvRNS2_16InferenceContextEEE7__cloneEPNS0_6__baseISB_EE', symObjAddr: 0x1C5C8, symBinAddr: 0xD7A02C, symSize: 0x10 }
  - { offset: 0x7DDA14, size: 0x8, addend: 0x0, symName: '__ZNSt3__110__function6__funcIZN4onnx11GetOpSchemaINS2_18Scatter_Onnx_ver11EEENS2_8OpSchemaEvE3$_0NS_9allocatorIS6_EEFvRNS2_16InferenceContextEEE7destroyEv', symObjAddr: 0x1C5D8, symBinAddr: 0xD7A03C, symSize: 0x4 }
  - { offset: 0x7DDA63, size: 0x8, addend: 0x0, symName: '__ZNSt3__110__function6__funcIZN4onnx11GetOpSchemaINS2_18Scatter_Onnx_ver11EEENS2_8OpSchemaEvE3$_0NS_9allocatorIS6_EEFvRNS2_16InferenceContextEEE18destroy_deallocateEv', symObjAddr: 0x1C5DC, symBinAddr: 0xD7A040, symSize: 0x4 }
  - { offset: 0x7DDA96, size: 0x8, addend: 0x0, symName: '__ZNSt3__110__function6__funcIZN4onnx11GetOpSchemaINS2_18Scatter_Onnx_ver11EEENS2_8OpSchemaEvE3$_0NS_9allocatorIS6_EEFvRNS2_16InferenceContextEEE18destroy_deallocateEv', symObjAddr: 0x1C5DC, symBinAddr: 0xD7A040, symSize: 0x4 }
  - { offset: 0x7DDAB8, size: 0x8, addend: 0x0, symName: '__ZNSt3__110__function6__funcIZN4onnx11GetOpSchemaINS2_18Scatter_Onnx_ver11EEENS2_8OpSchemaEvE3$_0NS_9allocatorIS6_EEFvRNS2_16InferenceContextEEE18destroy_deallocateEv', symObjAddr: 0x1C5DC, symBinAddr: 0xD7A040, symSize: 0x4 }
  - { offset: 0x7DDAE3, size: 0x8, addend: 0x0, symName: '__ZNSt3__110__function6__funcIZN4onnx11GetOpSchemaINS2_18Scatter_Onnx_ver11EEENS2_8OpSchemaEvE3$_0NS_9allocatorIS6_EEFvRNS2_16InferenceContextEEE18destroy_deallocateEv', symObjAddr: 0x1C5DC, symBinAddr: 0xD7A040, symSize: 0x4 }
  - { offset: 0x7DDB09, size: 0x8, addend: 0x0, symName: '__ZNSt3__110__function6__funcIZN4onnx11GetOpSchemaINS2_18Scatter_Onnx_ver11EEENS2_8OpSchemaEvE3$_0NS_9allocatorIS6_EEFvRNS2_16InferenceContextEEE18destroy_deallocateEv', symObjAddr: 0x1C5DC, symBinAddr: 0xD7A040, symSize: 0x4 }
  - { offset: 0x7DDBB3, size: 0x8, addend: 0x0, symName: '__ZNSt3__110__function6__funcIZN4onnx11GetOpSchemaINS2_18Scatter_Onnx_ver11EEENS2_8OpSchemaEvE3$_0NS_9allocatorIS6_EEFvRNS2_16InferenceContextEEEclESA_', symObjAddr: 0x1C5E0, symBinAddr: 0xD7A044, symSize: 0x108 }
  - { offset: 0x7DDDD2, size: 0x8, addend: 0x0, symName: '__ZNKSt3__110__function6__funcIZN4onnx11GetOpSchemaINS2_18Scatter_Onnx_ver11EEENS2_8OpSchemaEvE3$_0NS_9allocatorIS6_EEFvRNS2_16InferenceContextEEE6targetERKSt9type_info', symObjAddr: 0x1C6E8, symBinAddr: 0xD7A14C, symSize: 0x64 }
  - { offset: 0x7DDE85, size: 0x8, addend: 0x0, symName: '__ZNKSt3__110__function6__funcIZN4onnx11GetOpSchemaINS2_18Scatter_Onnx_ver11EEENS2_8OpSchemaEvE3$_0NS_9allocatorIS6_EEFvRNS2_16InferenceContextEEE11target_typeEv', symObjAddr: 0x1C74C, symBinAddr: 0xD7A1B0, symSize: 0xC }
  - { offset: 0x7DDEA8, size: 0x8, addend: 0x0, symName: '__ZNSt3__110__function6__funcIZN4onnx11GetOpSchemaINS2_20ScatterND_Onnx_ver18EEENS2_8OpSchemaEvE3$_0NS_9allocatorIS6_EEFvRNS2_16InferenceContextEEED1Ev', symObjAddr: 0x1C758, symBinAddr: 0xD7A1BC, symSize: 0x4 }
  - { offset: 0x7DDED3, size: 0x8, addend: 0x0, symName: '__ZNSt3__110__function6__funcIZN4onnx11GetOpSchemaINS2_20ScatterND_Onnx_ver18EEENS2_8OpSchemaEvE3$_0NS_9allocatorIS6_EEFvRNS2_16InferenceContextEEED0Ev', symObjAddr: 0x1C75C, symBinAddr: 0xD7A1C0, symSize: 0x4 }
  - { offset: 0x7DDF88, size: 0x8, addend: 0x0, symName: '__ZNKSt3__110__function6__funcIZN4onnx11GetOpSchemaINS2_20ScatterND_Onnx_ver18EEENS2_8OpSchemaEvE3$_0NS_9allocatorIS6_EEFvRNS2_16InferenceContextEEE7__cloneEv', symObjAddr: 0x1C760, symBinAddr: 0xD7A1C4, symSize: 0x24 }
  - { offset: 0x7DE0CB, size: 0x8, addend: 0x0, symName: '__ZNKSt3__110__function6__funcIZN4onnx11GetOpSchemaINS2_20ScatterND_Onnx_ver18EEENS2_8OpSchemaEvE3$_0NS_9allocatorIS6_EEFvRNS2_16InferenceContextEEE7__cloneEPNS0_6__baseISB_EE', symObjAddr: 0x1C784, symBinAddr: 0xD7A1E8, symSize: 0x10 }
  - { offset: 0x7DE0FF, size: 0x8, addend: 0x0, symName: '__ZNKSt3__110__function6__funcIZN4onnx11GetOpSchemaINS2_20ScatterND_Onnx_ver18EEENS2_8OpSchemaEvE3$_0NS_9allocatorIS6_EEFvRNS2_16InferenceContextEEE7__cloneEPNS0_6__baseISB_EE', symObjAddr: 0x1C784, symBinAddr: 0xD7A1E8, symSize: 0x10 }
  - { offset: 0x7DE11B, size: 0x8, addend: 0x0, symName: '__ZNKSt3__110__function6__funcIZN4onnx11GetOpSchemaINS2_20ScatterND_Onnx_ver18EEENS2_8OpSchemaEvE3$_0NS_9allocatorIS6_EEFvRNS2_16InferenceContextEEE7__cloneEPNS0_6__baseISB_EE', symObjAddr: 0x1C784, symBinAddr: 0xD7A1E8, symSize: 0x10 }
  - { offset: 0x7DE137, size: 0x8, addend: 0x0, symName: '__ZNSt3__110__function6__funcIZN4onnx11GetOpSchemaINS2_20ScatterND_Onnx_ver18EEENS2_8OpSchemaEvE3$_0NS_9allocatorIS6_EEFvRNS2_16InferenceContextEEE7destroyEv', symObjAddr: 0x1C794, symBinAddr: 0xD7A1F8, symSize: 0x4 }
  - { offset: 0x7DE186, size: 0x8, addend: 0x0, symName: '__ZNSt3__110__function6__funcIZN4onnx11GetOpSchemaINS2_20ScatterND_Onnx_ver18EEENS2_8OpSchemaEvE3$_0NS_9allocatorIS6_EEFvRNS2_16InferenceContextEEE18destroy_deallocateEv', symObjAddr: 0x1C798, symBinAddr: 0xD7A1FC, symSize: 0x4 }
  - { offset: 0x7DE1B9, size: 0x8, addend: 0x0, symName: '__ZNSt3__110__function6__funcIZN4onnx11GetOpSchemaINS2_20ScatterND_Onnx_ver18EEENS2_8OpSchemaEvE3$_0NS_9allocatorIS6_EEFvRNS2_16InferenceContextEEE18destroy_deallocateEv', symObjAddr: 0x1C798, symBinAddr: 0xD7A1FC, symSize: 0x4 }
  - { offset: 0x7DE1DB, size: 0x8, addend: 0x0, symName: '__ZNSt3__110__function6__funcIZN4onnx11GetOpSchemaINS2_20ScatterND_Onnx_ver18EEENS2_8OpSchemaEvE3$_0NS_9allocatorIS6_EEFvRNS2_16InferenceContextEEE18destroy_deallocateEv', symObjAddr: 0x1C798, symBinAddr: 0xD7A1FC, symSize: 0x4 }
  - { offset: 0x7DE206, size: 0x8, addend: 0x0, symName: '__ZNSt3__110__function6__funcIZN4onnx11GetOpSchemaINS2_20ScatterND_Onnx_ver18EEENS2_8OpSchemaEvE3$_0NS_9allocatorIS6_EEFvRNS2_16InferenceContextEEE18destroy_deallocateEv', symObjAddr: 0x1C798, symBinAddr: 0xD7A1FC, symSize: 0x4 }
  - { offset: 0x7DE22C, size: 0x8, addend: 0x0, symName: '__ZNSt3__110__function6__funcIZN4onnx11GetOpSchemaINS2_20ScatterND_Onnx_ver18EEENS2_8OpSchemaEvE3$_0NS_9allocatorIS6_EEFvRNS2_16InferenceContextEEE18destroy_deallocateEv', symObjAddr: 0x1C798, symBinAddr: 0xD7A1FC, symSize: 0x4 }
  - { offset: 0x7DE2D6, size: 0x8, addend: 0x0, symName: '__ZNSt3__110__function6__funcIZN4onnx11GetOpSchemaINS2_20ScatterND_Onnx_ver18EEENS2_8OpSchemaEvE3$_0NS_9allocatorIS6_EEFvRNS2_16InferenceContextEEEclESA_', symObjAddr: 0x1C79C, symBinAddr: 0xD7A200, symSize: 0x108 }
  - { offset: 0x7DE4F5, size: 0x8, addend: 0x0, symName: '__ZNKSt3__110__function6__funcIZN4onnx11GetOpSchemaINS2_20ScatterND_Onnx_ver18EEENS2_8OpSchemaEvE3$_0NS_9allocatorIS6_EEFvRNS2_16InferenceContextEEE6targetERKSt9type_info', symObjAddr: 0x1C8A4, symBinAddr: 0xD7A308, symSize: 0x64 }
  - { offset: 0x7DE5A8, size: 0x8, addend: 0x0, symName: '__ZNKSt3__110__function6__funcIZN4onnx11GetOpSchemaINS2_20ScatterND_Onnx_ver18EEENS2_8OpSchemaEvE3$_0NS_9allocatorIS6_EEFvRNS2_16InferenceContextEEE11target_typeEv', symObjAddr: 0x1C908, symBinAddr: 0xD7A36C, symSize: 0xC }
  - { offset: 0x7DE5CB, size: 0x8, addend: 0x0, symName: '__ZNSt3__110__function6__funcIZN4onnx11GetOpSchemaINS2_26ScatterElements_Onnx_ver18EEENS2_8OpSchemaEvE3$_0NS_9allocatorIS6_EEFvRNS2_16InferenceContextEEED1Ev', symObjAddr: 0x1C914, symBinAddr: 0xD7A378, symSize: 0x4 }
  - { offset: 0x7DE5F6, size: 0x8, addend: 0x0, symName: '__ZNSt3__110__function6__funcIZN4onnx11GetOpSchemaINS2_26ScatterElements_Onnx_ver18EEENS2_8OpSchemaEvE3$_0NS_9allocatorIS6_EEFvRNS2_16InferenceContextEEED0Ev', symObjAddr: 0x1C918, symBinAddr: 0xD7A37C, symSize: 0x4 }
  - { offset: 0x7DE6AB, size: 0x8, addend: 0x0, symName: '__ZNKSt3__110__function6__funcIZN4onnx11GetOpSchemaINS2_26ScatterElements_Onnx_ver18EEENS2_8OpSchemaEvE3$_0NS_9allocatorIS6_EEFvRNS2_16InferenceContextEEE7__cloneEv', symObjAddr: 0x1C91C, symBinAddr: 0xD7A380, symSize: 0x24 }
  - { offset: 0x7DE7EE, size: 0x8, addend: 0x0, symName: '__ZNKSt3__110__function6__funcIZN4onnx11GetOpSchemaINS2_26ScatterElements_Onnx_ver18EEENS2_8OpSchemaEvE3$_0NS_9allocatorIS6_EEFvRNS2_16InferenceContextEEE7__cloneEPNS0_6__baseISB_EE', symObjAddr: 0x1C940, symBinAddr: 0xD7A3A4, symSize: 0x10 }
  - { offset: 0x7DE822, size: 0x8, addend: 0x0, symName: '__ZNKSt3__110__function6__funcIZN4onnx11GetOpSchemaINS2_26ScatterElements_Onnx_ver18EEENS2_8OpSchemaEvE3$_0NS_9allocatorIS6_EEFvRNS2_16InferenceContextEEE7__cloneEPNS0_6__baseISB_EE', symObjAddr: 0x1C940, symBinAddr: 0xD7A3A4, symSize: 0x10 }
  - { offset: 0x7DE83E, size: 0x8, addend: 0x0, symName: '__ZNKSt3__110__function6__funcIZN4onnx11GetOpSchemaINS2_26ScatterElements_Onnx_ver18EEENS2_8OpSchemaEvE3$_0NS_9allocatorIS6_EEFvRNS2_16InferenceContextEEE7__cloneEPNS0_6__baseISB_EE', symObjAddr: 0x1C940, symBinAddr: 0xD7A3A4, symSize: 0x10 }
  - { offset: 0x7DE85A, size: 0x8, addend: 0x0, symName: '__ZNSt3__110__function6__funcIZN4onnx11GetOpSchemaINS2_26ScatterElements_Onnx_ver18EEENS2_8OpSchemaEvE3$_0NS_9allocatorIS6_EEFvRNS2_16InferenceContextEEE7destroyEv', symObjAddr: 0x1C950, symBinAddr: 0xD7A3B4, symSize: 0x4 }
  - { offset: 0x7DE8A9, size: 0x8, addend: 0x0, symName: '__ZNSt3__110__function6__funcIZN4onnx11GetOpSchemaINS2_26ScatterElements_Onnx_ver18EEENS2_8OpSchemaEvE3$_0NS_9allocatorIS6_EEFvRNS2_16InferenceContextEEE18destroy_deallocateEv', symObjAddr: 0x1C954, symBinAddr: 0xD7A3B8, symSize: 0x4 }
  - { offset: 0x7DE8DC, size: 0x8, addend: 0x0, symName: '__ZNSt3__110__function6__funcIZN4onnx11GetOpSchemaINS2_26ScatterElements_Onnx_ver18EEENS2_8OpSchemaEvE3$_0NS_9allocatorIS6_EEFvRNS2_16InferenceContextEEE18destroy_deallocateEv', symObjAddr: 0x1C954, symBinAddr: 0xD7A3B8, symSize: 0x4 }
  - { offset: 0x7DE8FE, size: 0x8, addend: 0x0, symName: '__ZNSt3__110__function6__funcIZN4onnx11GetOpSchemaINS2_26ScatterElements_Onnx_ver18EEENS2_8OpSchemaEvE3$_0NS_9allocatorIS6_EEFvRNS2_16InferenceContextEEE18destroy_deallocateEv', symObjAddr: 0x1C954, symBinAddr: 0xD7A3B8, symSize: 0x4 }
  - { offset: 0x7DE929, size: 0x8, addend: 0x0, symName: '__ZNSt3__110__function6__funcIZN4onnx11GetOpSchemaINS2_26ScatterElements_Onnx_ver18EEENS2_8OpSchemaEvE3$_0NS_9allocatorIS6_EEFvRNS2_16InferenceContextEEE18destroy_deallocateEv', symObjAddr: 0x1C954, symBinAddr: 0xD7A3B8, symSize: 0x4 }
  - { offset: 0x7DE94F, size: 0x8, addend: 0x0, symName: '__ZNSt3__110__function6__funcIZN4onnx11GetOpSchemaINS2_26ScatterElements_Onnx_ver18EEENS2_8OpSchemaEvE3$_0NS_9allocatorIS6_EEFvRNS2_16InferenceContextEEE18destroy_deallocateEv', symObjAddr: 0x1C954, symBinAddr: 0xD7A3B8, symSize: 0x4 }
  - { offset: 0x7DE9F9, size: 0x8, addend: 0x0, symName: '__ZNSt3__110__function6__funcIZN4onnx11GetOpSchemaINS2_26ScatterElements_Onnx_ver18EEENS2_8OpSchemaEvE3$_0NS_9allocatorIS6_EEFvRNS2_16InferenceContextEEEclESA_', symObjAddr: 0x1C958, symBinAddr: 0xD7A3BC, symSize: 0x108 }
  - { offset: 0x7DEC18, size: 0x8, addend: 0x0, symName: '__ZNKSt3__110__function6__funcIZN4onnx11GetOpSchemaINS2_26ScatterElements_Onnx_ver18EEENS2_8OpSchemaEvE3$_0NS_9allocatorIS6_EEFvRNS2_16InferenceContextEEE6targetERKSt9type_info', symObjAddr: 0x1CA60, symBinAddr: 0xD7A4C4, symSize: 0x64 }
  - { offset: 0x7DECCB, size: 0x8, addend: 0x0, symName: '__ZNKSt3__110__function6__funcIZN4onnx11GetOpSchemaINS2_26ScatterElements_Onnx_ver18EEENS2_8OpSchemaEvE3$_0NS_9allocatorIS6_EEFvRNS2_16InferenceContextEEE11target_typeEv', symObjAddr: 0x1CAC4, symBinAddr: 0xD7A528, symSize: 0xC }
  - { offset: 0x7DECEE, size: 0x8, addend: 0x0, symName: '__ZNSt3__110__function6__funcIZN4onnx11GetOpSchemaINS2_17Gather_Onnx_ver13EEENS2_8OpSchemaEvE3$_0NS_9allocatorIS6_EEFvRNS2_16InferenceContextEEED1Ev', symObjAddr: 0x1CAD0, symBinAddr: 0xD7A534, symSize: 0x4 }
  - { offset: 0x7DED19, size: 0x8, addend: 0x0, symName: '__ZNSt3__110__function6__funcIZN4onnx11GetOpSchemaINS2_17Gather_Onnx_ver13EEENS2_8OpSchemaEvE3$_0NS_9allocatorIS6_EEFvRNS2_16InferenceContextEEED0Ev', symObjAddr: 0x1CAD4, symBinAddr: 0xD7A538, symSize: 0x4 }
  - { offset: 0x7DEDCE, size: 0x8, addend: 0x0, symName: '__ZNKSt3__110__function6__funcIZN4onnx11GetOpSchemaINS2_17Gather_Onnx_ver13EEENS2_8OpSchemaEvE3$_0NS_9allocatorIS6_EEFvRNS2_16InferenceContextEEE7__cloneEv', symObjAddr: 0x1CAD8, symBinAddr: 0xD7A53C, symSize: 0x24 }
  - { offset: 0x7DEF11, size: 0x8, addend: 0x0, symName: '__ZNKSt3__110__function6__funcIZN4onnx11GetOpSchemaINS2_17Gather_Onnx_ver13EEENS2_8OpSchemaEvE3$_0NS_9allocatorIS6_EEFvRNS2_16InferenceContextEEE7__cloneEPNS0_6__baseISB_EE', symObjAddr: 0x1CAFC, symBinAddr: 0xD7A560, symSize: 0x10 }
  - { offset: 0x7DEF45, size: 0x8, addend: 0x0, symName: '__ZNKSt3__110__function6__funcIZN4onnx11GetOpSchemaINS2_17Gather_Onnx_ver13EEENS2_8OpSchemaEvE3$_0NS_9allocatorIS6_EEFvRNS2_16InferenceContextEEE7__cloneEPNS0_6__baseISB_EE', symObjAddr: 0x1CAFC, symBinAddr: 0xD7A560, symSize: 0x10 }
  - { offset: 0x7DEF61, size: 0x8, addend: 0x0, symName: '__ZNKSt3__110__function6__funcIZN4onnx11GetOpSchemaINS2_17Gather_Onnx_ver13EEENS2_8OpSchemaEvE3$_0NS_9allocatorIS6_EEFvRNS2_16InferenceContextEEE7__cloneEPNS0_6__baseISB_EE', symObjAddr: 0x1CAFC, symBinAddr: 0xD7A560, symSize: 0x10 }
  - { offset: 0x7DEF7D, size: 0x8, addend: 0x0, symName: '__ZNSt3__110__function6__funcIZN4onnx11GetOpSchemaINS2_17Gather_Onnx_ver13EEENS2_8OpSchemaEvE3$_0NS_9allocatorIS6_EEFvRNS2_16InferenceContextEEE7destroyEv', symObjAddr: 0x1CB0C, symBinAddr: 0xD7A570, symSize: 0x4 }
  - { offset: 0x7DEFCC, size: 0x8, addend: 0x0, symName: '__ZNSt3__110__function6__funcIZN4onnx11GetOpSchemaINS2_17Gather_Onnx_ver13EEENS2_8OpSchemaEvE3$_0NS_9allocatorIS6_EEFvRNS2_16InferenceContextEEE18destroy_deallocateEv', symObjAddr: 0x1CB10, symBinAddr: 0xD7A574, symSize: 0x4 }
  - { offset: 0x7DEFFF, size: 0x8, addend: 0x0, symName: '__ZNSt3__110__function6__funcIZN4onnx11GetOpSchemaINS2_17Gather_Onnx_ver13EEENS2_8OpSchemaEvE3$_0NS_9allocatorIS6_EEFvRNS2_16InferenceContextEEE18destroy_deallocateEv', symObjAddr: 0x1CB10, symBinAddr: 0xD7A574, symSize: 0x4 }
  - { offset: 0x7DF021, size: 0x8, addend: 0x0, symName: '__ZNSt3__110__function6__funcIZN4onnx11GetOpSchemaINS2_17Gather_Onnx_ver13EEENS2_8OpSchemaEvE3$_0NS_9allocatorIS6_EEFvRNS2_16InferenceContextEEE18destroy_deallocateEv', symObjAddr: 0x1CB10, symBinAddr: 0xD7A574, symSize: 0x4 }
  - { offset: 0x7DF04C, size: 0x8, addend: 0x0, symName: '__ZNSt3__110__function6__funcIZN4onnx11GetOpSchemaINS2_17Gather_Onnx_ver13EEENS2_8OpSchemaEvE3$_0NS_9allocatorIS6_EEFvRNS2_16InferenceContextEEE18destroy_deallocateEv', symObjAddr: 0x1CB10, symBinAddr: 0xD7A574, symSize: 0x4 }
  - { offset: 0x7DF072, size: 0x8, addend: 0x0, symName: '__ZNSt3__110__function6__funcIZN4onnx11GetOpSchemaINS2_17Gather_Onnx_ver13EEENS2_8OpSchemaEvE3$_0NS_9allocatorIS6_EEFvRNS2_16InferenceContextEEE18destroy_deallocateEv', symObjAddr: 0x1CB10, symBinAddr: 0xD7A574, symSize: 0x4 }
  - { offset: 0x7DF172, size: 0x8, addend: 0x0, symName: '__ZNSt3__110__function6__funcIZN4onnx11GetOpSchemaINS2_17Gather_Onnx_ver13EEENS2_8OpSchemaEvE3$_0NS_9allocatorIS6_EEFvRNS2_16InferenceContextEEEclESA_', symObjAddr: 0x1CB14, symBinAddr: 0xD7A578, symSize: 0x61C }
  - { offset: 0x7E043A, size: 0x8, addend: 0x0, symName: '__ZNKSt3__110__function6__funcIZN4onnx11GetOpSchemaINS2_17Gather_Onnx_ver13EEENS2_8OpSchemaEvE3$_0NS_9allocatorIS6_EEFvRNS2_16InferenceContextEEE6targetERKSt9type_info', symObjAddr: 0x1D130, symBinAddr: 0xD7AB94, symSize: 0x64 }
  - { offset: 0x7E04ED, size: 0x8, addend: 0x0, symName: '__ZNKSt3__110__function6__funcIZN4onnx11GetOpSchemaINS2_17Gather_Onnx_ver13EEENS2_8OpSchemaEvE3$_0NS_9allocatorIS6_EEFvRNS2_16InferenceContextEEE11target_typeEv', symObjAddr: 0x1D194, symBinAddr: 0xD7ABF8, symSize: 0xC }
  - { offset: 0x7E0510, size: 0x8, addend: 0x0, symName: '__ZNSt3__110__function6__funcIZN4onnx11GetOpSchemaINS2_17Gather_Onnx_ver13EEENS2_8OpSchemaEvE3$_1NS_9allocatorIS6_EEFvRNS2_22DataPropagationContextEEED1Ev', symObjAddr: 0x1D37C, symBinAddr: 0xD7AC04, symSize: 0x4 }
  - { offset: 0x7E053B, size: 0x8, addend: 0x0, symName: '__ZNSt3__110__function6__funcIZN4onnx11GetOpSchemaINS2_17Gather_Onnx_ver13EEENS2_8OpSchemaEvE3$_1NS_9allocatorIS6_EEFvRNS2_22DataPropagationContextEEED0Ev', symObjAddr: 0x1D380, symBinAddr: 0xD7AC08, symSize: 0x4 }
  - { offset: 0x7E05F0, size: 0x8, addend: 0x0, symName: '__ZNKSt3__110__function6__funcIZN4onnx11GetOpSchemaINS2_17Gather_Onnx_ver13EEENS2_8OpSchemaEvE3$_1NS_9allocatorIS6_EEFvRNS2_22DataPropagationContextEEE7__cloneEv', symObjAddr: 0x1D384, symBinAddr: 0xD7AC0C, symSize: 0x24 }
  - { offset: 0x7E0733, size: 0x8, addend: 0x0, symName: '__ZNKSt3__110__function6__funcIZN4onnx11GetOpSchemaINS2_17Gather_Onnx_ver13EEENS2_8OpSchemaEvE3$_1NS_9allocatorIS6_EEFvRNS2_22DataPropagationContextEEE7__cloneEPNS0_6__baseISB_EE', symObjAddr: 0x1D3A8, symBinAddr: 0xD7AC30, symSize: 0x10 }
  - { offset: 0x7E0767, size: 0x8, addend: 0x0, symName: '__ZNKSt3__110__function6__funcIZN4onnx11GetOpSchemaINS2_17Gather_Onnx_ver13EEENS2_8OpSchemaEvE3$_1NS_9allocatorIS6_EEFvRNS2_22DataPropagationContextEEE7__cloneEPNS0_6__baseISB_EE', symObjAddr: 0x1D3A8, symBinAddr: 0xD7AC30, symSize: 0x10 }
  - { offset: 0x7E0783, size: 0x8, addend: 0x0, symName: '__ZNKSt3__110__function6__funcIZN4onnx11GetOpSchemaINS2_17Gather_Onnx_ver13EEENS2_8OpSchemaEvE3$_1NS_9allocatorIS6_EEFvRNS2_22DataPropagationContextEEE7__cloneEPNS0_6__baseISB_EE', symObjAddr: 0x1D3A8, symBinAddr: 0xD7AC30, symSize: 0x10 }
  - { offset: 0x7E079F, size: 0x8, addend: 0x0, symName: '__ZNSt3__110__function6__funcIZN4onnx11GetOpSchemaINS2_17Gather_Onnx_ver13EEENS2_8OpSchemaEvE3$_1NS_9allocatorIS6_EEFvRNS2_22DataPropagationContextEEE7destroyEv', symObjAddr: 0x1D3B8, symBinAddr: 0xD7AC40, symSize: 0x4 }
  - { offset: 0x7E07EE, size: 0x8, addend: 0x0, symName: '__ZNSt3__110__function6__funcIZN4onnx11GetOpSchemaINS2_17Gather_Onnx_ver13EEENS2_8OpSchemaEvE3$_1NS_9allocatorIS6_EEFvRNS2_22DataPropagationContextEEE18destroy_deallocateEv', symObjAddr: 0x1D3BC, symBinAddr: 0xD7AC44, symSize: 0x4 }
  - { offset: 0x7E0821, size: 0x8, addend: 0x0, symName: '__ZNSt3__110__function6__funcIZN4onnx11GetOpSchemaINS2_17Gather_Onnx_ver13EEENS2_8OpSchemaEvE3$_1NS_9allocatorIS6_EEFvRNS2_22DataPropagationContextEEE18destroy_deallocateEv', symObjAddr: 0x1D3BC, symBinAddr: 0xD7AC44, symSize: 0x4 }
  - { offset: 0x7E0843, size: 0x8, addend: 0x0, symName: '__ZNSt3__110__function6__funcIZN4onnx11GetOpSchemaINS2_17Gather_Onnx_ver13EEENS2_8OpSchemaEvE3$_1NS_9allocatorIS6_EEFvRNS2_22DataPropagationContextEEE18destroy_deallocateEv', symObjAddr: 0x1D3BC, symBinAddr: 0xD7AC44, symSize: 0x4 }
  - { offset: 0x7E086E, size: 0x8, addend: 0x0, symName: '__ZNSt3__110__function6__funcIZN4onnx11GetOpSchemaINS2_17Gather_Onnx_ver13EEENS2_8OpSchemaEvE3$_1NS_9allocatorIS6_EEFvRNS2_22DataPropagationContextEEE18destroy_deallocateEv', symObjAddr: 0x1D3BC, symBinAddr: 0xD7AC44, symSize: 0x4 }
  - { offset: 0x7E0894, size: 0x8, addend: 0x0, symName: '__ZNSt3__110__function6__funcIZN4onnx11GetOpSchemaINS2_17Gather_Onnx_ver13EEENS2_8OpSchemaEvE3$_1NS_9allocatorIS6_EEFvRNS2_22DataPropagationContextEEE18destroy_deallocateEv', symObjAddr: 0x1D3BC, symBinAddr: 0xD7AC44, symSize: 0x4 }
  - { offset: 0x7E093E, size: 0x8, addend: 0x0, symName: '__ZNSt3__110__function6__funcIZN4onnx11GetOpSchemaINS2_17Gather_Onnx_ver13EEENS2_8OpSchemaEvE3$_1NS_9allocatorIS6_EEFvRNS2_22DataPropagationContextEEEclESA_', symObjAddr: 0x1D3C0, symBinAddr: 0xD7AC48, symSize: 0x8 }
  - { offset: 0x7E09F8, size: 0x8, addend: 0x0, symName: '__ZNKSt3__110__function6__funcIZN4onnx11GetOpSchemaINS2_17Gather_Onnx_ver13EEENS2_8OpSchemaEvE3$_1NS_9allocatorIS6_EEFvRNS2_22DataPropagationContextEEE6targetERKSt9type_info', symObjAddr: 0x1D3C8, symBinAddr: 0xD7AC50, symSize: 0x64 }
  - { offset: 0x7E0AAB, size: 0x8, addend: 0x0, symName: '__ZNKSt3__110__function6__funcIZN4onnx11GetOpSchemaINS2_17Gather_Onnx_ver13EEENS2_8OpSchemaEvE3$_1NS_9allocatorIS6_EEFvRNS2_22DataPropagationContextEEE11target_typeEv', symObjAddr: 0x1D42C, symBinAddr: 0xD7ACB4, symSize: 0xC }
  - { offset: 0x7E0ACE, size: 0x8, addend: 0x0, symName: '__ZNSt3__110__function6__funcIZN4onnx11GetOpSchemaINS2_25GatherElements_Onnx_ver13EEENS2_8OpSchemaEvE3$_0NS_9allocatorIS6_EEFvRNS2_16InferenceContextEEED1Ev', symObjAddr: 0x1D8CC, symBinAddr: 0xD7AF78, symSize: 0x4 }
  - { offset: 0x7E0AF9, size: 0x8, addend: 0x0, symName: '__ZNSt3__110__function6__funcIZN4onnx11GetOpSchemaINS2_25GatherElements_Onnx_ver13EEENS2_8OpSchemaEvE3$_0NS_9allocatorIS6_EEFvRNS2_16InferenceContextEEED0Ev', symObjAddr: 0x1D8D0, symBinAddr: 0xD7AF7C, symSize: 0x4 }
  - { offset: 0x7E0BAE, size: 0x8, addend: 0x0, symName: '__ZNKSt3__110__function6__funcIZN4onnx11GetOpSchemaINS2_25GatherElements_Onnx_ver13EEENS2_8OpSchemaEvE3$_0NS_9allocatorIS6_EEFvRNS2_16InferenceContextEEE7__cloneEv', symObjAddr: 0x1D8D4, symBinAddr: 0xD7AF80, symSize: 0x24 }
  - { offset: 0x7E0CF1, size: 0x8, addend: 0x0, symName: '__ZNKSt3__110__function6__funcIZN4onnx11GetOpSchemaINS2_25GatherElements_Onnx_ver13EEENS2_8OpSchemaEvE3$_0NS_9allocatorIS6_EEFvRNS2_16InferenceContextEEE7__cloneEPNS0_6__baseISB_EE', symObjAddr: 0x1D8F8, symBinAddr: 0xD7AFA4, symSize: 0x10 }
  - { offset: 0x7E0D25, size: 0x8, addend: 0x0, symName: '__ZNKSt3__110__function6__funcIZN4onnx11GetOpSchemaINS2_25GatherElements_Onnx_ver13EEENS2_8OpSchemaEvE3$_0NS_9allocatorIS6_EEFvRNS2_16InferenceContextEEE7__cloneEPNS0_6__baseISB_EE', symObjAddr: 0x1D8F8, symBinAddr: 0xD7AFA4, symSize: 0x10 }
  - { offset: 0x7E0D41, size: 0x8, addend: 0x0, symName: '__ZNKSt3__110__function6__funcIZN4onnx11GetOpSchemaINS2_25GatherElements_Onnx_ver13EEENS2_8OpSchemaEvE3$_0NS_9allocatorIS6_EEFvRNS2_16InferenceContextEEE7__cloneEPNS0_6__baseISB_EE', symObjAddr: 0x1D8F8, symBinAddr: 0xD7AFA4, symSize: 0x10 }
  - { offset: 0x7E0D5D, size: 0x8, addend: 0x0, symName: '__ZNSt3__110__function6__funcIZN4onnx11GetOpSchemaINS2_25GatherElements_Onnx_ver13EEENS2_8OpSchemaEvE3$_0NS_9allocatorIS6_EEFvRNS2_16InferenceContextEEE7destroyEv', symObjAddr: 0x1D908, symBinAddr: 0xD7AFB4, symSize: 0x4 }
  - { offset: 0x7E0DAC, size: 0x8, addend: 0x0, symName: '__ZNSt3__110__function6__funcIZN4onnx11GetOpSchemaINS2_25GatherElements_Onnx_ver13EEENS2_8OpSchemaEvE3$_0NS_9allocatorIS6_EEFvRNS2_16InferenceContextEEE18destroy_deallocateEv', symObjAddr: 0x1D90C, symBinAddr: 0xD7AFB8, symSize: 0x4 }
  - { offset: 0x7E0DDF, size: 0x8, addend: 0x0, symName: '__ZNSt3__110__function6__funcIZN4onnx11GetOpSchemaINS2_25GatherElements_Onnx_ver13EEENS2_8OpSchemaEvE3$_0NS_9allocatorIS6_EEFvRNS2_16InferenceContextEEE18destroy_deallocateEv', symObjAddr: 0x1D90C, symBinAddr: 0xD7AFB8, symSize: 0x4 }
  - { offset: 0x7E0E01, size: 0x8, addend: 0x0, symName: '__ZNSt3__110__function6__funcIZN4onnx11GetOpSchemaINS2_25GatherElements_Onnx_ver13EEENS2_8OpSchemaEvE3$_0NS_9allocatorIS6_EEFvRNS2_16InferenceContextEEE18destroy_deallocateEv', symObjAddr: 0x1D90C, symBinAddr: 0xD7AFB8, symSize: 0x4 }
  - { offset: 0x7E0E2C, size: 0x8, addend: 0x0, symName: '__ZNSt3__110__function6__funcIZN4onnx11GetOpSchemaINS2_25GatherElements_Onnx_ver13EEENS2_8OpSchemaEvE3$_0NS_9allocatorIS6_EEFvRNS2_16InferenceContextEEE18destroy_deallocateEv', symObjAddr: 0x1D90C, symBinAddr: 0xD7AFB8, symSize: 0x4 }
  - { offset: 0x7E0E52, size: 0x8, addend: 0x0, symName: '__ZNSt3__110__function6__funcIZN4onnx11GetOpSchemaINS2_25GatherElements_Onnx_ver13EEENS2_8OpSchemaEvE3$_0NS_9allocatorIS6_EEFvRNS2_16InferenceContextEEE18destroy_deallocateEv', symObjAddr: 0x1D90C, symBinAddr: 0xD7AFB8, symSize: 0x4 }
  - { offset: 0x7E0EFC, size: 0x8, addend: 0x0, symName: '__ZNSt3__110__function6__funcIZN4onnx11GetOpSchemaINS2_25GatherElements_Onnx_ver13EEENS2_8OpSchemaEvE3$_0NS_9allocatorIS6_EEFvRNS2_16InferenceContextEEEclESA_', symObjAddr: 0x1D910, symBinAddr: 0xD7AFBC, symSize: 0x10C }
  - { offset: 0x7E10E4, size: 0x8, addend: 0x0, symName: '__ZNKSt3__110__function6__funcIZN4onnx11GetOpSchemaINS2_25GatherElements_Onnx_ver13EEENS2_8OpSchemaEvE3$_0NS_9allocatorIS6_EEFvRNS2_16InferenceContextEEE6targetERKSt9type_info', symObjAddr: 0x1DA1C, symBinAddr: 0xD7B0C8, symSize: 0x64 }
  - { offset: 0x7E1197, size: 0x8, addend: 0x0, symName: '__ZNKSt3__110__function6__funcIZN4onnx11GetOpSchemaINS2_25GatherElements_Onnx_ver13EEENS2_8OpSchemaEvE3$_0NS_9allocatorIS6_EEFvRNS2_16InferenceContextEEE11target_typeEv', symObjAddr: 0x1DA80, symBinAddr: 0xD7B12C, symSize: 0xC }
  - { offset: 0x7E11BA, size: 0x8, addend: 0x0, symName: '__ZNSt3__110__function6__funcIZN4onnx11GetOpSchemaINS2_18Squeeze_Onnx_ver25EEENS2_8OpSchemaEvE3$_0NS_9allocatorIS6_EEFvRNS2_16InferenceContextEEED1Ev', symObjAddr: 0x1DA8C, symBinAddr: 0xD7B138, symSize: 0x4 }
  - { offset: 0x7E11E5, size: 0x8, addend: 0x0, symName: '__ZNSt3__110__function6__funcIZN4onnx11GetOpSchemaINS2_18Squeeze_Onnx_ver25EEENS2_8OpSchemaEvE3$_0NS_9allocatorIS6_EEFvRNS2_16InferenceContextEEED0Ev', symObjAddr: 0x1DA90, symBinAddr: 0xD7B13C, symSize: 0x4 }
  - { offset: 0x7E129A, size: 0x8, addend: 0x0, symName: '__ZNKSt3__110__function6__funcIZN4onnx11GetOpSchemaINS2_18Squeeze_Onnx_ver25EEENS2_8OpSchemaEvE3$_0NS_9allocatorIS6_EEFvRNS2_16InferenceContextEEE7__cloneEv', symObjAddr: 0x1DA94, symBinAddr: 0xD7B140, symSize: 0x24 }
  - { offset: 0x7E13DD, size: 0x8, addend: 0x0, symName: '__ZNKSt3__110__function6__funcIZN4onnx11GetOpSchemaINS2_18Squeeze_Onnx_ver25EEENS2_8OpSchemaEvE3$_0NS_9allocatorIS6_EEFvRNS2_16InferenceContextEEE7__cloneEPNS0_6__baseISB_EE', symObjAddr: 0x1DAB8, symBinAddr: 0xD7B164, symSize: 0x10 }
  - { offset: 0x7E1411, size: 0x8, addend: 0x0, symName: '__ZNKSt3__110__function6__funcIZN4onnx11GetOpSchemaINS2_18Squeeze_Onnx_ver25EEENS2_8OpSchemaEvE3$_0NS_9allocatorIS6_EEFvRNS2_16InferenceContextEEE7__cloneEPNS0_6__baseISB_EE', symObjAddr: 0x1DAB8, symBinAddr: 0xD7B164, symSize: 0x10 }
  - { offset: 0x7E142D, size: 0x8, addend: 0x0, symName: '__ZNKSt3__110__function6__funcIZN4onnx11GetOpSchemaINS2_18Squeeze_Onnx_ver25EEENS2_8OpSchemaEvE3$_0NS_9allocatorIS6_EEFvRNS2_16InferenceContextEEE7__cloneEPNS0_6__baseISB_EE', symObjAddr: 0x1DAB8, symBinAddr: 0xD7B164, symSize: 0x10 }
  - { offset: 0x7E1449, size: 0x8, addend: 0x0, symName: '__ZNSt3__110__function6__funcIZN4onnx11GetOpSchemaINS2_18Squeeze_Onnx_ver25EEENS2_8OpSchemaEvE3$_0NS_9allocatorIS6_EEFvRNS2_16InferenceContextEEE7destroyEv', symObjAddr: 0x1DAC8, symBinAddr: 0xD7B174, symSize: 0x4 }
  - { offset: 0x7E1498, size: 0x8, addend: 0x0, symName: '__ZNSt3__110__function6__funcIZN4onnx11GetOpSchemaINS2_18Squeeze_Onnx_ver25EEENS2_8OpSchemaEvE3$_0NS_9allocatorIS6_EEFvRNS2_16InferenceContextEEE18destroy_deallocateEv', symObjAddr: 0x1DACC, symBinAddr: 0xD7B178, symSize: 0x4 }
  - { offset: 0x7E14CB, size: 0x8, addend: 0x0, symName: '__ZNSt3__110__function6__funcIZN4onnx11GetOpSchemaINS2_18Squeeze_Onnx_ver25EEENS2_8OpSchemaEvE3$_0NS_9allocatorIS6_EEFvRNS2_16InferenceContextEEE18destroy_deallocateEv', symObjAddr: 0x1DACC, symBinAddr: 0xD7B178, symSize: 0x4 }
  - { offset: 0x7E14ED, size: 0x8, addend: 0x0, symName: '__ZNSt3__110__function6__funcIZN4onnx11GetOpSchemaINS2_18Squeeze_Onnx_ver25EEENS2_8OpSchemaEvE3$_0NS_9allocatorIS6_EEFvRNS2_16InferenceContextEEE18destroy_deallocateEv', symObjAddr: 0x1DACC, symBinAddr: 0xD7B178, symSize: 0x4 }
  - { offset: 0x7E1518, size: 0x8, addend: 0x0, symName: '__ZNSt3__110__function6__funcIZN4onnx11GetOpSchemaINS2_18Squeeze_Onnx_ver25EEENS2_8OpSchemaEvE3$_0NS_9allocatorIS6_EEFvRNS2_16InferenceContextEEE18destroy_deallocateEv', symObjAddr: 0x1DACC, symBinAddr: 0xD7B178, symSize: 0x4 }
  - { offset: 0x7E153E, size: 0x8, addend: 0x0, symName: '__ZNSt3__110__function6__funcIZN4onnx11GetOpSchemaINS2_18Squeeze_Onnx_ver25EEENS2_8OpSchemaEvE3$_0NS_9allocatorIS6_EEFvRNS2_16InferenceContextEEE18destroy_deallocateEv', symObjAddr: 0x1DACC, symBinAddr: 0xD7B178, symSize: 0x4 }
  - { offset: 0x7E1654, size: 0x8, addend: 0x0, symName: '__ZNSt3__110__function6__funcIZN4onnx11GetOpSchemaINS2_18Squeeze_Onnx_ver25EEENS2_8OpSchemaEvE3$_0NS_9allocatorIS6_EEFvRNS2_16InferenceContextEEEclESA_', symObjAddr: 0x1DAD0, symBinAddr: 0xD7B17C, symSize: 0x638 }
  - { offset: 0x7E2A85, size: 0x8, addend: 0x0, symName: '__ZNKSt3__110__function6__funcIZN4onnx11GetOpSchemaINS2_18Squeeze_Onnx_ver25EEENS2_8OpSchemaEvE3$_0NS_9allocatorIS6_EEFvRNS2_16InferenceContextEEE6targetERKSt9type_info', symObjAddr: 0x1E108, symBinAddr: 0xD7B7B4, symSize: 0x64 }
  - { offset: 0x7E2B38, size: 0x8, addend: 0x0, symName: '__ZNKSt3__110__function6__funcIZN4onnx11GetOpSchemaINS2_18Squeeze_Onnx_ver25EEENS2_8OpSchemaEvE3$_0NS_9allocatorIS6_EEFvRNS2_16InferenceContextEEE11target_typeEv', symObjAddr: 0x1E16C, symBinAddr: 0xD7B818, symSize: 0xC }
  - { offset: 0x7E2B5B, size: 0x8, addend: 0x0, symName: '__ZNSt3__110__function6__funcIZN4onnx11GetOpSchemaINS2_18Squeeze_Onnx_ver25EEENS2_8OpSchemaEvE3$_1NS_9allocatorIS6_EEFvRNS2_22DataPropagationContextEEED1Ev', symObjAddr: 0x1E398, symBinAddr: 0xD7BA44, symSize: 0x4 }
  - { offset: 0x7E2B86, size: 0x8, addend: 0x0, symName: '__ZNSt3__110__function6__funcIZN4onnx11GetOpSchemaINS2_18Squeeze_Onnx_ver25EEENS2_8OpSchemaEvE3$_1NS_9allocatorIS6_EEFvRNS2_22DataPropagationContextEEED0Ev', symObjAddr: 0x1E39C, symBinAddr: 0xD7BA48, symSize: 0x4 }
  - { offset: 0x7E2C3B, size: 0x8, addend: 0x0, symName: '__ZNKSt3__110__function6__funcIZN4onnx11GetOpSchemaINS2_18Squeeze_Onnx_ver25EEENS2_8OpSchemaEvE3$_1NS_9allocatorIS6_EEFvRNS2_22DataPropagationContextEEE7__cloneEv', symObjAddr: 0x1E3A0, symBinAddr: 0xD7BA4C, symSize: 0x24 }
  - { offset: 0x7E2D7E, size: 0x8, addend: 0x0, symName: '__ZNKSt3__110__function6__funcIZN4onnx11GetOpSchemaINS2_18Squeeze_Onnx_ver25EEENS2_8OpSchemaEvE3$_1NS_9allocatorIS6_EEFvRNS2_22DataPropagationContextEEE7__cloneEPNS0_6__baseISB_EE', symObjAddr: 0x1E3C4, symBinAddr: 0xD7BA70, symSize: 0x10 }
  - { offset: 0x7E2DB2, size: 0x8, addend: 0x0, symName: '__ZNKSt3__110__function6__funcIZN4onnx11GetOpSchemaINS2_18Squeeze_Onnx_ver25EEENS2_8OpSchemaEvE3$_1NS_9allocatorIS6_EEFvRNS2_22DataPropagationContextEEE7__cloneEPNS0_6__baseISB_EE', symObjAddr: 0x1E3C4, symBinAddr: 0xD7BA70, symSize: 0x10 }
  - { offset: 0x7E2DCE, size: 0x8, addend: 0x0, symName: '__ZNKSt3__110__function6__funcIZN4onnx11GetOpSchemaINS2_18Squeeze_Onnx_ver25EEENS2_8OpSchemaEvE3$_1NS_9allocatorIS6_EEFvRNS2_22DataPropagationContextEEE7__cloneEPNS0_6__baseISB_EE', symObjAddr: 0x1E3C4, symBinAddr: 0xD7BA70, symSize: 0x10 }
  - { offset: 0x7E2DEA, size: 0x8, addend: 0x0, symName: '__ZNSt3__110__function6__funcIZN4onnx11GetOpSchemaINS2_18Squeeze_Onnx_ver25EEENS2_8OpSchemaEvE3$_1NS_9allocatorIS6_EEFvRNS2_22DataPropagationContextEEE7destroyEv', symObjAddr: 0x1E3D4, symBinAddr: 0xD7BA80, symSize: 0x4 }
  - { offset: 0x7E2E39, size: 0x8, addend: 0x0, symName: '__ZNSt3__110__function6__funcIZN4onnx11GetOpSchemaINS2_18Squeeze_Onnx_ver25EEENS2_8OpSchemaEvE3$_1NS_9allocatorIS6_EEFvRNS2_22DataPropagationContextEEE18destroy_deallocateEv', symObjAddr: 0x1E3D8, symBinAddr: 0xD7BA84, symSize: 0x4 }
  - { offset: 0x7E2E6C, size: 0x8, addend: 0x0, symName: '__ZNSt3__110__function6__funcIZN4onnx11GetOpSchemaINS2_18Squeeze_Onnx_ver25EEENS2_8OpSchemaEvE3$_1NS_9allocatorIS6_EEFvRNS2_22DataPropagationContextEEE18destroy_deallocateEv', symObjAddr: 0x1E3D8, symBinAddr: 0xD7BA84, symSize: 0x4 }
  - { offset: 0x7E2E8E, size: 0x8, addend: 0x0, symName: '__ZNSt3__110__function6__funcIZN4onnx11GetOpSchemaINS2_18Squeeze_Onnx_ver25EEENS2_8OpSchemaEvE3$_1NS_9allocatorIS6_EEFvRNS2_22DataPropagationContextEEE18destroy_deallocateEv', symObjAddr: 0x1E3D8, symBinAddr: 0xD7BA84, symSize: 0x4 }
  - { offset: 0x7E2EB9, size: 0x8, addend: 0x0, symName: '__ZNSt3__110__function6__funcIZN4onnx11GetOpSchemaINS2_18Squeeze_Onnx_ver25EEENS2_8OpSchemaEvE3$_1NS_9allocatorIS6_EEFvRNS2_22DataPropagationContextEEE18destroy_deallocateEv', symObjAddr: 0x1E3D8, symBinAddr: 0xD7BA84, symSize: 0x4 }
  - { offset: 0x7E2EDF, size: 0x8, addend: 0x0, symName: '__ZNSt3__110__function6__funcIZN4onnx11GetOpSchemaINS2_18Squeeze_Onnx_ver25EEENS2_8OpSchemaEvE3$_1NS_9allocatorIS6_EEFvRNS2_22DataPropagationContextEEE18destroy_deallocateEv', symObjAddr: 0x1E3D8, symBinAddr: 0xD7BA84, symSize: 0x4 }
  - { offset: 0x7E2F89, size: 0x8, addend: 0x0, symName: '__ZNSt3__110__function6__funcIZN4onnx11GetOpSchemaINS2_18Squeeze_Onnx_ver25EEENS2_8OpSchemaEvE3$_1NS_9allocatorIS6_EEFvRNS2_22DataPropagationContextEEEclESA_', symObjAddr: 0x1E3DC, symBinAddr: 0xD7BA88, symSize: 0xC0 }
  - { offset: 0x7E30A7, size: 0x8, addend: 0x0, symName: '__ZNKSt3__110__function6__funcIZN4onnx11GetOpSchemaINS2_18Squeeze_Onnx_ver25EEENS2_8OpSchemaEvE3$_1NS_9allocatorIS6_EEFvRNS2_22DataPropagationContextEEE6targetERKSt9type_info', symObjAddr: 0x1E49C, symBinAddr: 0xD7BB48, symSize: 0x64 }
  - { offset: 0x7E315A, size: 0x8, addend: 0x0, symName: '__ZNKSt3__110__function6__funcIZN4onnx11GetOpSchemaINS2_18Squeeze_Onnx_ver25EEENS2_8OpSchemaEvE3$_1NS_9allocatorIS6_EEFvRNS2_22DataPropagationContextEEE11target_typeEv', symObjAddr: 0x1E500, symBinAddr: 0xD7BBAC, symSize: 0xC }
  - { offset: 0x7E317D, size: 0x8, addend: 0x0, symName: '__ZNSt3__110__function6__funcIZN4onnx11GetOpSchemaINS2_20Unsqueeze_Onnx_ver25EEENS2_8OpSchemaEvE3$_0NS_9allocatorIS6_EEFvRNS2_16InferenceContextEEED1Ev', symObjAddr: 0x1E50C, symBinAddr: 0xD7BBB8, symSize: 0x4 }
  - { offset: 0x7E31A8, size: 0x8, addend: 0x0, symName: '__ZNSt3__110__function6__funcIZN4onnx11GetOpSchemaINS2_20Unsqueeze_Onnx_ver25EEENS2_8OpSchemaEvE3$_0NS_9allocatorIS6_EEFvRNS2_16InferenceContextEEED0Ev', symObjAddr: 0x1E510, symBinAddr: 0xD7BBBC, symSize: 0x4 }
  - { offset: 0x7E325D, size: 0x8, addend: 0x0, symName: '__ZNKSt3__110__function6__funcIZN4onnx11GetOpSchemaINS2_20Unsqueeze_Onnx_ver25EEENS2_8OpSchemaEvE3$_0NS_9allocatorIS6_EEFvRNS2_16InferenceContextEEE7__cloneEv', symObjAddr: 0x1E514, symBinAddr: 0xD7BBC0, symSize: 0x24 }
  - { offset: 0x7E33A0, size: 0x8, addend: 0x0, symName: '__ZNKSt3__110__function6__funcIZN4onnx11GetOpSchemaINS2_20Unsqueeze_Onnx_ver25EEENS2_8OpSchemaEvE3$_0NS_9allocatorIS6_EEFvRNS2_16InferenceContextEEE7__cloneEPNS0_6__baseISB_EE', symObjAddr: 0x1E538, symBinAddr: 0xD7BBE4, symSize: 0x10 }
  - { offset: 0x7E33D4, size: 0x8, addend: 0x0, symName: '__ZNKSt3__110__function6__funcIZN4onnx11GetOpSchemaINS2_20Unsqueeze_Onnx_ver25EEENS2_8OpSchemaEvE3$_0NS_9allocatorIS6_EEFvRNS2_16InferenceContextEEE7__cloneEPNS0_6__baseISB_EE', symObjAddr: 0x1E538, symBinAddr: 0xD7BBE4, symSize: 0x10 }
  - { offset: 0x7E33F0, size: 0x8, addend: 0x0, symName: '__ZNKSt3__110__function6__funcIZN4onnx11GetOpSchemaINS2_20Unsqueeze_Onnx_ver25EEENS2_8OpSchemaEvE3$_0NS_9allocatorIS6_EEFvRNS2_16InferenceContextEEE7__cloneEPNS0_6__baseISB_EE', symObjAddr: 0x1E538, symBinAddr: 0xD7BBE4, symSize: 0x10 }
  - { offset: 0x7E340C, size: 0x8, addend: 0x0, symName: '__ZNSt3__110__function6__funcIZN4onnx11GetOpSchemaINS2_20Unsqueeze_Onnx_ver25EEENS2_8OpSchemaEvE3$_0NS_9allocatorIS6_EEFvRNS2_16InferenceContextEEE7destroyEv', symObjAddr: 0x1E548, symBinAddr: 0xD7BBF4, symSize: 0x4 }
  - { offset: 0x7E345B, size: 0x8, addend: 0x0, symName: '__ZNSt3__110__function6__funcIZN4onnx11GetOpSchemaINS2_20Unsqueeze_Onnx_ver25EEENS2_8OpSchemaEvE3$_0NS_9allocatorIS6_EEFvRNS2_16InferenceContextEEE18destroy_deallocateEv', symObjAddr: 0x1E54C, symBinAddr: 0xD7BBF8, symSize: 0x4 }
  - { offset: 0x7E348E, size: 0x8, addend: 0x0, symName: '__ZNSt3__110__function6__funcIZN4onnx11GetOpSchemaINS2_20Unsqueeze_Onnx_ver25EEENS2_8OpSchemaEvE3$_0NS_9allocatorIS6_EEFvRNS2_16InferenceContextEEE18destroy_deallocateEv', symObjAddr: 0x1E54C, symBinAddr: 0xD7BBF8, symSize: 0x4 }
  - { offset: 0x7E34B0, size: 0x8, addend: 0x0, symName: '__ZNSt3__110__function6__funcIZN4onnx11GetOpSchemaINS2_20Unsqueeze_Onnx_ver25EEENS2_8OpSchemaEvE3$_0NS_9allocatorIS6_EEFvRNS2_16InferenceContextEEE18destroy_deallocateEv', symObjAddr: 0x1E54C, symBinAddr: 0xD7BBF8, symSize: 0x4 }
  - { offset: 0x7E34DB, size: 0x8, addend: 0x0, symName: '__ZNSt3__110__function6__funcIZN4onnx11GetOpSchemaINS2_20Unsqueeze_Onnx_ver25EEENS2_8OpSchemaEvE3$_0NS_9allocatorIS6_EEFvRNS2_16InferenceContextEEE18destroy_deallocateEv', symObjAddr: 0x1E54C, symBinAddr: 0xD7BBF8, symSize: 0x4 }
  - { offset: 0x7E3501, size: 0x8, addend: 0x0, symName: '__ZNSt3__110__function6__funcIZN4onnx11GetOpSchemaINS2_20Unsqueeze_Onnx_ver25EEENS2_8OpSchemaEvE3$_0NS_9allocatorIS6_EEFvRNS2_16InferenceContextEEE18destroy_deallocateEv', symObjAddr: 0x1E54C, symBinAddr: 0xD7BBF8, symSize: 0x4 }
  - { offset: 0x7E3607, size: 0x8, addend: 0x0, symName: '__ZNSt3__110__function6__funcIZN4onnx11GetOpSchemaINS2_20Unsqueeze_Onnx_ver25EEENS2_8OpSchemaEvE3$_0NS_9allocatorIS6_EEFvRNS2_16InferenceContextEEEclESA_', symObjAddr: 0x1E550, symBinAddr: 0xD7BBFC, symSize: 0x7EC }
  - { offset: 0x7E4E6A, size: 0x8, addend: 0x0, symName: '__ZNKSt3__110__function6__funcIZN4onnx11GetOpSchemaINS2_20Unsqueeze_Onnx_ver25EEENS2_8OpSchemaEvE3$_0NS_9allocatorIS6_EEFvRNS2_16InferenceContextEEE6targetERKSt9type_info', symObjAddr: 0x1ED3C, symBinAddr: 0xD7C3E8, symSize: 0x64 }
  - { offset: 0x7E4F1D, size: 0x8, addend: 0x0, symName: '__ZNKSt3__110__function6__funcIZN4onnx11GetOpSchemaINS2_20Unsqueeze_Onnx_ver25EEENS2_8OpSchemaEvE3$_0NS_9allocatorIS6_EEFvRNS2_16InferenceContextEEE11target_typeEv', symObjAddr: 0x1EDA0, symBinAddr: 0xD7C44C, symSize: 0xC }
  - { offset: 0x7E4F40, size: 0x8, addend: 0x0, symName: '__ZNSt3__110__function6__funcIZN4onnx11GetOpSchemaINS2_20Unsqueeze_Onnx_ver25EEENS2_8OpSchemaEvE3$_1NS_9allocatorIS6_EEFvRNS2_22DataPropagationContextEEED1Ev', symObjAddr: 0x1EDAC, symBinAddr: 0xD7C458, symSize: 0x4 }
  - { offset: 0x7E4F6B, size: 0x8, addend: 0x0, symName: '__ZNSt3__110__function6__funcIZN4onnx11GetOpSchemaINS2_20Unsqueeze_Onnx_ver25EEENS2_8OpSchemaEvE3$_1NS_9allocatorIS6_EEFvRNS2_22DataPropagationContextEEED0Ev', symObjAddr: 0x1EDB0, symBinAddr: 0xD7C45C, symSize: 0x4 }
  - { offset: 0x7E5020, size: 0x8, addend: 0x0, symName: '__ZNKSt3__110__function6__funcIZN4onnx11GetOpSchemaINS2_20Unsqueeze_Onnx_ver25EEENS2_8OpSchemaEvE3$_1NS_9allocatorIS6_EEFvRNS2_22DataPropagationContextEEE7__cloneEv', symObjAddr: 0x1EDB4, symBinAddr: 0xD7C460, symSize: 0x24 }
  - { offset: 0x7E5163, size: 0x8, addend: 0x0, symName: '__ZNKSt3__110__function6__funcIZN4onnx11GetOpSchemaINS2_20Unsqueeze_Onnx_ver25EEENS2_8OpSchemaEvE3$_1NS_9allocatorIS6_EEFvRNS2_22DataPropagationContextEEE7__cloneEPNS0_6__baseISB_EE', symObjAddr: 0x1EDD8, symBinAddr: 0xD7C484, symSize: 0x10 }
  - { offset: 0x7E5197, size: 0x8, addend: 0x0, symName: '__ZNKSt3__110__function6__funcIZN4onnx11GetOpSchemaINS2_20Unsqueeze_Onnx_ver25EEENS2_8OpSchemaEvE3$_1NS_9allocatorIS6_EEFvRNS2_22DataPropagationContextEEE7__cloneEPNS0_6__baseISB_EE', symObjAddr: 0x1EDD8, symBinAddr: 0xD7C484, symSize: 0x10 }
  - { offset: 0x7E51B3, size: 0x8, addend: 0x0, symName: '__ZNKSt3__110__function6__funcIZN4onnx11GetOpSchemaINS2_20Unsqueeze_Onnx_ver25EEENS2_8OpSchemaEvE3$_1NS_9allocatorIS6_EEFvRNS2_22DataPropagationContextEEE7__cloneEPNS0_6__baseISB_EE', symObjAddr: 0x1EDD8, symBinAddr: 0xD7C484, symSize: 0x10 }
  - { offset: 0x7E51CF, size: 0x8, addend: 0x0, symName: '__ZNSt3__110__function6__funcIZN4onnx11GetOpSchemaINS2_20Unsqueeze_Onnx_ver25EEENS2_8OpSchemaEvE3$_1NS_9allocatorIS6_EEFvRNS2_22DataPropagationContextEEE7destroyEv', symObjAddr: 0x1EDE8, symBinAddr: 0xD7C494, symSize: 0x4 }
  - { offset: 0x7E521E, size: 0x8, addend: 0x0, symName: '__ZNSt3__110__function6__funcIZN4onnx11GetOpSchemaINS2_20Unsqueeze_Onnx_ver25EEENS2_8OpSchemaEvE3$_1NS_9allocatorIS6_EEFvRNS2_22DataPropagationContextEEE18destroy_deallocateEv', symObjAddr: 0x1EDEC, symBinAddr: 0xD7C498, symSize: 0x4 }
  - { offset: 0x7E5251, size: 0x8, addend: 0x0, symName: '__ZNSt3__110__function6__funcIZN4onnx11GetOpSchemaINS2_20Unsqueeze_Onnx_ver25EEENS2_8OpSchemaEvE3$_1NS_9allocatorIS6_EEFvRNS2_22DataPropagationContextEEE18destroy_deallocateEv', symObjAddr: 0x1EDEC, symBinAddr: 0xD7C498, symSize: 0x4 }
  - { offset: 0x7E5273, size: 0x8, addend: 0x0, symName: '__ZNSt3__110__function6__funcIZN4onnx11GetOpSchemaINS2_20Unsqueeze_Onnx_ver25EEENS2_8OpSchemaEvE3$_1NS_9allocatorIS6_EEFvRNS2_22DataPropagationContextEEE18destroy_deallocateEv', symObjAddr: 0x1EDEC, symBinAddr: 0xD7C498, symSize: 0x4 }
  - { offset: 0x7E529E, size: 0x8, addend: 0x0, symName: '__ZNSt3__110__function6__funcIZN4onnx11GetOpSchemaINS2_20Unsqueeze_Onnx_ver25EEENS2_8OpSchemaEvE3$_1NS_9allocatorIS6_EEFvRNS2_22DataPropagationContextEEE18destroy_deallocateEv', symObjAddr: 0x1EDEC, symBinAddr: 0xD7C498, symSize: 0x4 }
  - { offset: 0x7E52C4, size: 0x8, addend: 0x0, symName: '__ZNSt3__110__function6__funcIZN4onnx11GetOpSchemaINS2_20Unsqueeze_Onnx_ver25EEENS2_8OpSchemaEvE3$_1NS_9allocatorIS6_EEFvRNS2_22DataPropagationContextEEE18destroy_deallocateEv', symObjAddr: 0x1EDEC, symBinAddr: 0xD7C498, symSize: 0x4 }
  - { offset: 0x7E536E, size: 0x8, addend: 0x0, symName: '__ZNSt3__110__function6__funcIZN4onnx11GetOpSchemaINS2_20Unsqueeze_Onnx_ver25EEENS2_8OpSchemaEvE3$_1NS_9allocatorIS6_EEFvRNS2_22DataPropagationContextEEEclESA_', symObjAddr: 0x1EDF0, symBinAddr: 0xD7C49C, symSize: 0xC0 }
  - { offset: 0x7E548C, size: 0x8, addend: 0x0, symName: '__ZNKSt3__110__function6__funcIZN4onnx11GetOpSchemaINS2_20Unsqueeze_Onnx_ver25EEENS2_8OpSchemaEvE3$_1NS_9allocatorIS6_EEFvRNS2_22DataPropagationContextEEE6targetERKSt9type_info', symObjAddr: 0x1EEB0, symBinAddr: 0xD7C55C, symSize: 0x64 }
  - { offset: 0x7E553F, size: 0x8, addend: 0x0, symName: '__ZNKSt3__110__function6__funcIZN4onnx11GetOpSchemaINS2_20Unsqueeze_Onnx_ver25EEENS2_8OpSchemaEvE3$_1NS_9allocatorIS6_EEFvRNS2_22DataPropagationContextEEE11target_typeEv', symObjAddr: 0x1EF14, symBinAddr: 0xD7C5C0, symSize: 0xC }
  - { offset: 0x7E5562, size: 0x8, addend: 0x0, symName: '__ZNSt3__110__function6__funcIZN4onnx11GetOpSchemaINS2_23SpaceToDepth_Onnx_ver13EEENS2_8OpSchemaEvE3$_0NS_9allocatorIS6_EEFvRNS2_16InferenceContextEEED1Ev', symObjAddr: 0x1EF20, symBinAddr: 0xD7C5CC, symSize: 0x4 }
  - { offset: 0x7E558D, size: 0x8, addend: 0x0, symName: '__ZNSt3__110__function6__funcIZN4onnx11GetOpSchemaINS2_23SpaceToDepth_Onnx_ver13EEENS2_8OpSchemaEvE3$_0NS_9allocatorIS6_EEFvRNS2_16InferenceContextEEED0Ev', symObjAddr: 0x1EF24, symBinAddr: 0xD7C5D0, symSize: 0x4 }
  - { offset: 0x7E5642, size: 0x8, addend: 0x0, symName: '__ZNKSt3__110__function6__funcIZN4onnx11GetOpSchemaINS2_23SpaceToDepth_Onnx_ver13EEENS2_8OpSchemaEvE3$_0NS_9allocatorIS6_EEFvRNS2_16InferenceContextEEE7__cloneEv', symObjAddr: 0x1EF28, symBinAddr: 0xD7C5D4, symSize: 0x24 }
  - { offset: 0x7E5785, size: 0x8, addend: 0x0, symName: '__ZNKSt3__110__function6__funcIZN4onnx11GetOpSchemaINS2_23SpaceToDepth_Onnx_ver13EEENS2_8OpSchemaEvE3$_0NS_9allocatorIS6_EEFvRNS2_16InferenceContextEEE7__cloneEPNS0_6__baseISB_EE', symObjAddr: 0x1EF4C, symBinAddr: 0xD7C5F8, symSize: 0x10 }
  - { offset: 0x7E57B9, size: 0x8, addend: 0x0, symName: '__ZNKSt3__110__function6__funcIZN4onnx11GetOpSchemaINS2_23SpaceToDepth_Onnx_ver13EEENS2_8OpSchemaEvE3$_0NS_9allocatorIS6_EEFvRNS2_16InferenceContextEEE7__cloneEPNS0_6__baseISB_EE', symObjAddr: 0x1EF4C, symBinAddr: 0xD7C5F8, symSize: 0x10 }
  - { offset: 0x7E57D5, size: 0x8, addend: 0x0, symName: '__ZNKSt3__110__function6__funcIZN4onnx11GetOpSchemaINS2_23SpaceToDepth_Onnx_ver13EEENS2_8OpSchemaEvE3$_0NS_9allocatorIS6_EEFvRNS2_16InferenceContextEEE7__cloneEPNS0_6__baseISB_EE', symObjAddr: 0x1EF4C, symBinAddr: 0xD7C5F8, symSize: 0x10 }
  - { offset: 0x7E57F1, size: 0x8, addend: 0x0, symName: '__ZNSt3__110__function6__funcIZN4onnx11GetOpSchemaINS2_23SpaceToDepth_Onnx_ver13EEENS2_8OpSchemaEvE3$_0NS_9allocatorIS6_EEFvRNS2_16InferenceContextEEE7destroyEv', symObjAddr: 0x1EF5C, symBinAddr: 0xD7C608, symSize: 0x4 }
  - { offset: 0x7E5840, size: 0x8, addend: 0x0, symName: '__ZNSt3__110__function6__funcIZN4onnx11GetOpSchemaINS2_23SpaceToDepth_Onnx_ver13EEENS2_8OpSchemaEvE3$_0NS_9allocatorIS6_EEFvRNS2_16InferenceContextEEE18destroy_deallocateEv', symObjAddr: 0x1EF60, symBinAddr: 0xD7C60C, symSize: 0x4 }
  - { offset: 0x7E5873, size: 0x8, addend: 0x0, symName: '__ZNSt3__110__function6__funcIZN4onnx11GetOpSchemaINS2_23SpaceToDepth_Onnx_ver13EEENS2_8OpSchemaEvE3$_0NS_9allocatorIS6_EEFvRNS2_16InferenceContextEEE18destroy_deallocateEv', symObjAddr: 0x1EF60, symBinAddr: 0xD7C60C, symSize: 0x4 }
  - { offset: 0x7E5895, size: 0x8, addend: 0x0, symName: '__ZNSt3__110__function6__funcIZN4onnx11GetOpSchemaINS2_23SpaceToDepth_Onnx_ver13EEENS2_8OpSchemaEvE3$_0NS_9allocatorIS6_EEFvRNS2_16InferenceContextEEE18destroy_deallocateEv', symObjAddr: 0x1EF60, symBinAddr: 0xD7C60C, symSize: 0x4 }
  - { offset: 0x7E58C0, size: 0x8, addend: 0x0, symName: '__ZNSt3__110__function6__funcIZN4onnx11GetOpSchemaINS2_23SpaceToDepth_Onnx_ver13EEENS2_8OpSchemaEvE3$_0NS_9allocatorIS6_EEFvRNS2_16InferenceContextEEE18destroy_deallocateEv', symObjAddr: 0x1EF60, symBinAddr: 0xD7C60C, symSize: 0x4 }
  - { offset: 0x7E58E6, size: 0x8, addend: 0x0, symName: '__ZNSt3__110__function6__funcIZN4onnx11GetOpSchemaINS2_23SpaceToDepth_Onnx_ver13EEENS2_8OpSchemaEvE3$_0NS_9allocatorIS6_EEFvRNS2_16InferenceContextEEE18destroy_deallocateEv', symObjAddr: 0x1EF60, symBinAddr: 0xD7C60C, symSize: 0x4 }
  - { offset: 0x7E59D5, size: 0x8, addend: 0x0, symName: '__ZNSt3__110__function6__funcIZN4onnx11GetOpSchemaINS2_23SpaceToDepth_Onnx_ver13EEENS2_8OpSchemaEvE3$_0NS_9allocatorIS6_EEFvRNS2_16InferenceContextEEEclESA_', symObjAddr: 0x1EF64, symBinAddr: 0xD7C610, symSize: 0x678 }
  - { offset: 0x7E6C4F, size: 0x8, addend: 0x0, symName: '__ZNKSt3__110__function6__funcIZN4onnx11GetOpSchemaINS2_23SpaceToDepth_Onnx_ver13EEENS2_8OpSchemaEvE3$_0NS_9allocatorIS6_EEFvRNS2_16InferenceContextEEE6targetERKSt9type_info', symObjAddr: 0x1F5DC, symBinAddr: 0xD7CC88, symSize: 0x64 }
  - { offset: 0x7E6D02, size: 0x8, addend: 0x0, symName: '__ZNKSt3__110__function6__funcIZN4onnx11GetOpSchemaINS2_23SpaceToDepth_Onnx_ver13EEENS2_8OpSchemaEvE3$_0NS_9allocatorIS6_EEFvRNS2_16InferenceContextEEE11target_typeEv', symObjAddr: 0x1F640, symBinAddr: 0xD7CCEC, symSize: 0xC }
  - { offset: 0x7E6DDA, size: 0x8, addend: 0x0, symName: '__ZNSt3__110__function6__funcIZN4onnx11GetOpSchemaINS2_23DepthToSpace_Onnx_ver13EEENS2_8OpSchemaEvE3$_0NS_9allocatorIS6_EEFvRNS2_16InferenceContextEEED1Ev', symObjAddr: 0x20038, symBinAddr: 0xD7CED4, symSize: 0x4 }
  - { offset: 0x7E6E05, size: 0x8, addend: 0x0, symName: '__ZNSt3__110__function6__funcIZN4onnx11GetOpSchemaINS2_23DepthToSpace_Onnx_ver13EEENS2_8OpSchemaEvE3$_0NS_9allocatorIS6_EEFvRNS2_16InferenceContextEEED0Ev', symObjAddr: 0x2003C, symBinAddr: 0xD7CED8, symSize: 0x4 }
  - { offset: 0x7E6EBA, size: 0x8, addend: 0x0, symName: '__ZNKSt3__110__function6__funcIZN4onnx11GetOpSchemaINS2_23DepthToSpace_Onnx_ver13EEENS2_8OpSchemaEvE3$_0NS_9allocatorIS6_EEFvRNS2_16InferenceContextEEE7__cloneEv', symObjAddr: 0x20040, symBinAddr: 0xD7CEDC, symSize: 0x24 }
  - { offset: 0x7E6FFD, size: 0x8, addend: 0x0, symName: '__ZNKSt3__110__function6__funcIZN4onnx11GetOpSchemaINS2_23DepthToSpace_Onnx_ver13EEENS2_8OpSchemaEvE3$_0NS_9allocatorIS6_EEFvRNS2_16InferenceContextEEE7__cloneEPNS0_6__baseISB_EE', symObjAddr: 0x20064, symBinAddr: 0xD7CF00, symSize: 0x10 }
  - { offset: 0x7E7031, size: 0x8, addend: 0x0, symName: '__ZNKSt3__110__function6__funcIZN4onnx11GetOpSchemaINS2_23DepthToSpace_Onnx_ver13EEENS2_8OpSchemaEvE3$_0NS_9allocatorIS6_EEFvRNS2_16InferenceContextEEE7__cloneEPNS0_6__baseISB_EE', symObjAddr: 0x20064, symBinAddr: 0xD7CF00, symSize: 0x10 }
